SF:/Users/tomaszpietrek/coding/nats.rs/async-nats/src/auth.rs
FN:15,_RNvMNtCs1hbFQVFAImq_10async_nats4authNtB2_4Auth3new
FN:15,_RNvMNtCs6qhVEmoZJ2z_10async_nats4authNtB2_4Auth3new
FNDA:0,_RNvMNtCs1hbFQVFAImq_10async_nats4authNtB2_4Auth3new
FNDA:2,_RNvMNtCs6qhVEmoZJ2z_10async_nats4authNtB2_4Auth3new
FNF:1
FNH:1
DA:15,2
DA:16,2
DA:17,2
BRF:0
BRH:0
LF:3
LH:3
end_of_record
SF:/Users/tomaszpietrek/coding/nats.rs/async-nats/src/auth_utils.rs
FN:22,_RNCNCNvNtCs1hbFQVFAImq_10async_nats10auth_utils10load_creds00B7_
FN:21,_RNCNvNtCs1hbFQVFAImq_10async_nats10auth_utils10load_creds0B5_
FN:29,_RNCNvNtCs1hbFQVFAImq_10async_nats10auth_utils28parse_jwt_and_key_from_creds0B5_
FN:44,_RNCNvNtCs1hbFQVFAImq_10async_nats10auth_utils28parse_jwt_and_key_from_credss0_0B5_
FN:36,_RNCNvNtCs1hbFQVFAImq_10async_nats10auth_utils28parse_jwt_and_key_from_credss_0B5_
FN:21,_RNvNtCs1hbFQVFAImq_10async_nats10auth_utils10load_creds
FN:73,_RNvNtCs1hbFQVFAImq_10async_nats10auth_utils19parse_decorated_jwt
FN:79,_RNvNtCs1hbFQVFAImq_10async_nats10auth_utils20parse_decorated_nkey
FN:28,_RNvNtCs1hbFQVFAImq_10async_nats10auth_utils28parse_jwt_and_key_from_creds
FN:67,_RNCNvNtCs1hbFQVFAImq_10async_nats10auth_utils14USER_CONFIG_RE0B5_
FN:22,_RNCNCNvNtCs6qhVEmoZJ2z_10async_nats10auth_utils10load_creds00CsdpdgC16NPIW_12client_tests
FN:21,_RNCNvNtCs6qhVEmoZJ2z_10async_nats10auth_utils10load_creds0CsdpdgC16NPIW_12client_tests
FN:22,_RNCNCNvNtCs6qhVEmoZJ2z_10async_nats10auth_utils10load_creds00B7_
FN:21,_RNCNvNtCs6qhVEmoZJ2z_10async_nats10auth_utils10load_creds0B5_
FN:21,_RNvNtCs6qhVEmoZJ2z_10async_nats10auth_utils10load_creds
FN:73,_RNvNtCs6qhVEmoZJ2z_10async_nats10auth_utils19parse_decorated_jwt
FN:79,_RNvNtCs6qhVEmoZJ2z_10async_nats10auth_utils20parse_decorated_nkey
FN:28,_RNvNtCs6qhVEmoZJ2z_10async_nats10auth_utils28parse_jwt_and_key_from_creds
FN:67,_RNCNvNtCs6qhVEmoZJ2z_10async_nats10auth_utils14USER_CONFIG_RE0B5_
FN:29,_RNCNvNtCs6qhVEmoZJ2z_10async_nats10auth_utils28parse_jwt_and_key_from_creds0B5_
FN:44,_RNCNvNtCs6qhVEmoZJ2z_10async_nats10auth_utils28parse_jwt_and_key_from_credss0_0B5_
FN:36,_RNCNvNtCs6qhVEmoZJ2z_10async_nats10auth_utils28parse_jwt_and_key_from_credss_0B5_
FN:22,_RNCNCNvNtCs6qhVEmoZJ2z_10async_nats10auth_utils10load_creds00CsWLjOOar9jQ_9jwt_tests
FN:21,_RNCNvNtCs6qhVEmoZJ2z_10async_nats10auth_utils10load_creds0CsWLjOOar9jQ_9jwt_tests
FNDA:0,_RNCNCNvNtCs1hbFQVFAImq_10async_nats10auth_utils10load_creds00B7_
FNDA:0,_RNCNvNtCs1hbFQVFAImq_10async_nats10auth_utils10load_creds0B5_
FNDA:0,_RNCNvNtCs1hbFQVFAImq_10async_nats10auth_utils28parse_jwt_and_key_from_creds0B5_
FNDA:0,_RNCNvNtCs1hbFQVFAImq_10async_nats10auth_utils28parse_jwt_and_key_from_credss0_0B5_
FNDA:0,_RNCNvNtCs1hbFQVFAImq_10async_nats10auth_utils28parse_jwt_and_key_from_credss_0B5_
FNDA:0,_RNvNtCs1hbFQVFAImq_10async_nats10auth_utils10load_creds
FNDA:0,_RNvNtCs1hbFQVFAImq_10async_nats10auth_utils19parse_decorated_jwt
FNDA:0,_RNvNtCs1hbFQVFAImq_10async_nats10auth_utils20parse_decorated_nkey
FNDA:0,_RNvNtCs1hbFQVFAImq_10async_nats10auth_utils28parse_jwt_and_key_from_creds
FNDA:0,_RNCNvNtCs1hbFQVFAImq_10async_nats10auth_utils14USER_CONFIG_RE0B5_
FNDA:0,_RNCNCNvNtCs6qhVEmoZJ2z_10async_nats10auth_utils10load_creds00CsdpdgC16NPIW_12client_tests
FNDA:1,_RNCNvNtCs6qhVEmoZJ2z_10async_nats10auth_utils10load_creds0CsdpdgC16NPIW_12client_tests
FNDA:0,_RNCNCNvNtCs6qhVEmoZJ2z_10async_nats10auth_utils10load_creds00B7_
FNDA:0,_RNCNvNtCs6qhVEmoZJ2z_10async_nats10auth_utils10load_creds0B5_
FNDA:4,_RNvNtCs6qhVEmoZJ2z_10async_nats10auth_utils10load_creds
FNDA:4,_RNvNtCs6qhVEmoZJ2z_10async_nats10auth_utils19parse_decorated_jwt
FNDA:4,_RNvNtCs6qhVEmoZJ2z_10async_nats10auth_utils20parse_decorated_nkey
FNDA:4,_RNvNtCs6qhVEmoZJ2z_10async_nats10auth_utils28parse_jwt_and_key_from_creds
FNDA:2,_RNCNvNtCs6qhVEmoZJ2z_10async_nats10auth_utils14USER_CONFIG_RE0B5_
FNDA:0,_RNCNvNtCs6qhVEmoZJ2z_10async_nats10auth_utils28parse_jwt_and_key_from_creds0B5_
FNDA:0,_RNCNvNtCs6qhVEmoZJ2z_10async_nats10auth_utils28parse_jwt_and_key_from_credss0_0B5_
FNDA:0,_RNCNvNtCs6qhVEmoZJ2z_10async_nats10auth_utils28parse_jwt_and_key_from_credss_0B5_
FNDA:0,_RNCNCNvNtCs6qhVEmoZJ2z_10async_nats10auth_utils10load_creds00CsWLjOOar9jQ_9jwt_tests
FNDA:3,_RNCNvNtCs6qhVEmoZJ2z_10async_nats10auth_utils10load_creds0CsWLjOOar9jQ_9jwt_tests
FNF:10
FNH:6
DA:21,4
DA:22,4
DA:23,0
DA:24,0
DA:25,4
DA:28,4
DA:29,4
DA:30,0
DA:31,0
DA:34,0
DA:36,4
DA:37,0
DA:38,0
DA:41,0
DA:43,4
DA:44,4
DA:46,4
DA:47,4
DA:67,2
DA:68,2
DA:69,2
DA:70,2
DA:73,4
DA:74,4
DA:75,4
DA:76,4
DA:79,4
DA:80,4
DA:81,4
DA:82,4
BRF:0
BRH:0
LF:37
LH:23
end_of_record
SF:/Users/tomaszpietrek/coding/nats.rs/async-nats/src/client.rs
FN:525,_RINvMs6_NtCs1hbFQVFAImq_10async_nats6clientNtB6_6Client12send_requestpEB8_
FN:675,_RINvMs6_NtCs1hbFQVFAImq_10async_nats6clientNtB6_6Client15queue_subscribepEB8_
FN:399,_RINvMs6_NtCs1hbFQVFAImq_10async_nats6clientNtB6_6Client18publish_with_replyppEB8_
FN:364,_RINvMs6_NtCs1hbFQVFAImq_10async_nats6clientNtB6_6Client20publish_with_headerspEB8_
FN:500,_RINvMs6_NtCs1hbFQVFAImq_10async_nats6clientNtB6_6Client20request_with_headerspEB8_
FN:437,_RINvMs6_NtCs1hbFQVFAImq_10async_nats6clientNtB6_6Client30publish_with_reply_and_headersppEB8_
FN:316,_RINvMs6_NtCs1hbFQVFAImq_10async_nats6clientNtB6_6Client7publishpEB8_
FN:469,_RINvMs6_NtCs1hbFQVFAImq_10async_nats6clientNtB6_6Client7requestpEB8_
FN:642,_RINvMs6_NtCs1hbFQVFAImq_10async_nats6clientNtB6_6Client9subscribepEB8_
FN:134,_RINvXs1_NtCs1hbFQVFAImq_10async_nats6clientNtB6_6ClientNtNtB6_6traits9Requester12send_requestpEB8_
FN:150,_RINvXs3_NtCs1hbFQVFAImq_10async_nats6clientNtB6_6ClientNtNtB6_6traits9Publisher18publish_with_replyppEB8_
FN:168,_RINvXs4_NtCs1hbFQVFAImq_10async_nats6clientNtB6_6ClientNtNtB6_6traits10Subscriber9subscribepEB8_
FN:529,_RNCINvMs6_NtCs1hbFQVFAImq_10async_nats6clientNtB8_6Client12send_requestpE0Ba_
FN:679,_RNCINvMs6_NtCs1hbFQVFAImq_10async_nats6clientNtB8_6Client15queue_subscribepE0Ba_
FN:404,_RNCINvMs6_NtCs1hbFQVFAImq_10async_nats6clientNtB8_6Client18publish_with_replyppE0Ba_
FN:369,_RNCINvMs6_NtCs1hbFQVFAImq_10async_nats6clientNtB8_6Client20publish_with_headerspE0Ba_
FN:505,_RNCINvMs6_NtCs1hbFQVFAImq_10async_nats6clientNtB8_6Client20request_with_headerspE0Ba_
FN:443,_RNCINvMs6_NtCs1hbFQVFAImq_10async_nats6clientNtB8_6Client30publish_with_reply_and_headersppE0Ba_
FN:320,_RNCINvMs6_NtCs1hbFQVFAImq_10async_nats6clientNtB8_6Client7publishpE0Ba_
FN:473,_RNCINvMs6_NtCs1hbFQVFAImq_10async_nats6clientNtB8_6Client7requestpE0Ba_
FN:642,_RNCINvMs6_NtCs1hbFQVFAImq_10async_nats6clientNtB8_6Client9subscribepE0Ba_
FN:546,_RNCNCINvMs6_NtCs1hbFQVFAImq_10async_nats6clientNtBa_6Client12send_requestpE00Bc_
FN:588,_RNCNCINvMs6_NtCs1hbFQVFAImq_10async_nats6clientNtBa_6Client12send_requestpE0s0_0Bc_
FN:581,_RNCNCINvMs6_NtCs1hbFQVFAImq_10async_nats6clientNtBa_6Client12send_requestpE0s_0Bc_
FN:714,_RNCNCNvMs6_NtCs1hbFQVFAImq_10async_nats6clientNtB9_6Client5flush00Bb_
FN:717,_RNCNCNvMs6_NtCs1hbFQVFAImq_10async_nats6clientNtB9_6Client5flush0s_0Bb_
FN:785,_RNCNvMs6_NtCs1hbFQVFAImq_10async_nats6clientNtB7_6Client15force_reconnect0B9_
FN:283,_RNCNvMs6_NtCs1hbFQVFAImq_10async_nats6clientNtB7_6Client20is_server_compatible0B9_
FN:293,_RNCNvMs6_NtCs1hbFQVFAImq_10async_nats6clientNtB7_6Client20is_server_compatibles0_0B9_
FN:288,_RNCNvMs6_NtCs1hbFQVFAImq_10async_nats6clientNtB7_6Client20is_server_compatibles_0B9_
FN:746,_RNCNvMs6_NtCs1hbFQVFAImq_10async_nats6clientNtB7_6Client5drain0B9_
FN:709,_RNCNvMs6_NtCs1hbFQVFAImq_10async_nats6clientNtB7_6Client5flush0B9_
FN:159,_RNCNvXs3_NtCs1hbFQVFAImq_10async_nats6clientNtB7_6ClientNtNtB7_6traits9Publisher15publish_message0B9_
FN:808,_RNvMs6_NtCs1hbFQVFAImq_10async_nats6clientNtB5_6Client10statistics
FN:252,_RNvMs6_NtCs1hbFQVFAImq_10async_nats6clientNtB5_6Client11server_info
FN:785,_RNvMs6_NtCs1hbFQVFAImq_10async_nats6clientNtB5_6Client15force_reconnect
FN:765,_RNvMs6_NtCs1hbFQVFAImq_10async_nats6clientNtB5_6Client16connection_state
FN:273,_RNvMs6_NtCs1hbFQVFAImq_10async_nats6clientNtB5_6Client20is_server_compatible
FN:746,_RNvMs6_NtCs1hbFQVFAImq_10async_nats6clientNtB5_6Client5drain
FN:709,_RNvMs6_NtCs1hbFQVFAImq_10async_nats6clientNtB5_6Client5flush
FN:236,_RNvMs6_NtCs1hbFQVFAImq_10async_nats6clientNtB5_6Client7timeout
FN:622,_RNvMs6_NtCs1hbFQVFAImq_10async_nats6clientNtB5_6Client9new_inbox
FN:823,_RNvMs7_NtCs1hbFQVFAImq_10async_nats6clientNtB5_7Request3new
FN:905,_RNvMs7_NtCs1hbFQVFAImq_10async_nats6clientNtB5_7Request5inbox
FN:864,_RNvMs7_NtCs1hbFQVFAImq_10async_nats6clientNtB5_7Request7headers
FN:839,_RNvMs7_NtCs1hbFQVFAImq_10async_nats6clientNtB5_7Request7payload
FN:885,_RNvMs7_NtCs1hbFQVFAImq_10async_nats6clientNtB5_7Request7timeout
FN:48,_RNvXNtCs1hbFQVFAImq_10async_nats6clientINtNtB4_5error5ErrorNtB2_16PublishErrorKindEINtNtCs2CqrNpCrSUr_4core7convert4FromINtNtNtNtCskNaXoohSNNl_5tokio4sync4mpsc5error9SendErrorNtB4_7CommandEE4from
FN:67,_RNvXs0_NtCs1hbFQVFAImq_10async_nats6clientNtB5_16PublishErrorKindNtNtCs2CqrNpCrSUr_4core3fmt7Display3fmt
FN:144,_RNvXs2_NtCs1hbFQVFAImq_10async_nats6clientNtB5_6ClientNtNtB5_6traits15TimeoutProvider7timeout
FN:159,_RNvXs3_NtCs1hbFQVFAImq_10async_nats6clientNtB5_6ClientNtNtB5_6traits9Publisher15publish_message
FN:193,_RNvXs5_NtCs1hbFQVFAImq_10async_nats6clientNtB5_6ClientINtCsk9TkWPiTIMt_12futures_sink4SinkNtNtB7_7message15OutboundMessageE10poll_close
FN:189,_RNvXs5_NtCs1hbFQVFAImq_10async_nats6clientNtB5_6ClientINtCsk9TkWPiTIMt_12futures_sink4SinkNtNtB7_7message15OutboundMessageE10poll_flush
FN:179,_RNvXs5_NtCs1hbFQVFAImq_10async_nats6clientNtB5_6ClientINtCsk9TkWPiTIMt_12futures_sink4SinkNtNtB7_7message15OutboundMessageE10poll_ready
FN:183,_RNvXs5_NtCs1hbFQVFAImq_10async_nats6clientNtB5_6ClientINtCsk9TkWPiTIMt_12futures_sink4SinkNtNtB7_7message15OutboundMessageE10start_send
FN:916,_RNvXs8_NtCs1hbFQVFAImq_10async_nats6clientNtB5_14ReconnectErrorINtNtCs2CqrNpCrSUr_4core7convert4FromINtNtNtNtCskNaXoohSNNl_5tokio4sync4mpsc5error9SendErrorNtB7_7CommandEE4from
FN:926,_RNvXs9_NtCs1hbFQVFAImq_10async_nats6clientNtB5_14SubscribeErrorINtNtCs2CqrNpCrSUr_4core7convert4FromINtNtNtNtCskNaXoohSNNl_5tokio4sync4mpsc5error9SendErrorNtB7_7CommandEE4from
FN:54,_RNvXs_NtCs1hbFQVFAImq_10async_nats6clientINtNtB6_5error5ErrorNtB4_16PublishErrorKindEINtNtCs2CqrNpCrSUr_4core7convert4FromINtNtNtCshOwRwf5n7ZO_10tokio_util4sync4mpsc13PollSendErrorNtB6_7CommandEE4from
FN:936,_RNvXsa_NtCs1hbFQVFAImq_10async_nats6clientNtB5_10DrainErrorINtNtCs2CqrNpCrSUr_4core7convert4FromINtNtNtNtCskNaXoohSNNl_5tokio4sync4mpsc5error9SendErrorNtB7_7CommandEE4from
FN:953,_RNvXsb_NtCs1hbFQVFAImq_10async_nats6clientNtB5_16RequestErrorKindNtNtCs2CqrNpCrSUr_4core3fmt7Display3fmt
FN:967,_RNvXsc_NtCs1hbFQVFAImq_10async_nats6clientINtNtB7_5error5ErrorNtB5_16RequestErrorKindEINtNtCs2CqrNpCrSUr_4core7convert4FromIBF_NtB5_16PublishErrorKindEE4from
FN:973,_RNvXsd_NtCs1hbFQVFAImq_10async_nats6clientINtNtB7_5error5ErrorNtB5_16RequestErrorKindEINtNtCs2CqrNpCrSUr_4core7convert4FromNtB5_14SubscribeErrorE4from
FN:989,_RNvXse_NtCs1hbFQVFAImq_10async_nats6clientNtB5_14FlushErrorKindNtNtCs2CqrNpCrSUr_4core3fmt7Display3fmt
FN:200,_RNvMs6_NtCs1hbFQVFAImq_10async_nats6clientNtB5_6Client3new
FN:41,_RNCNvNtCs1hbFQVFAImq_10async_nats6client10VERSION_RE0B5_
FN:525,_RINvMs6_NtCs6qhVEmoZJ2z_10async_nats6clientNtB6_6Client12send_requestReECsdpdgC16NPIW_12client_tests
FN:675,_RINvMs6_NtCs6qhVEmoZJ2z_10async_nats6clientNtB6_6Client15queue_subscribeReECsdpdgC16NPIW_12client_tests
FN:399,_RINvMs6_NtCs6qhVEmoZJ2z_10async_nats6clientNtB6_6Client18publish_with_replyReNtNtCs1AhsD0INetT_5alloc6string6StringECsdpdgC16NPIW_12client_tests
FN:364,_RINvMs6_NtCs6qhVEmoZJ2z_10async_nats6clientNtB6_6Client20publish_with_headersReECsdpdgC16NPIW_12client_tests
FN:316,_RINvMs6_NtCs6qhVEmoZJ2z_10async_nats6clientNtB6_6Client7publishReECsdpdgC16NPIW_12client_tests
FN:469,_RINvMs6_NtCs6qhVEmoZJ2z_10async_nats6clientNtB6_6Client7requestReECsdpdgC16NPIW_12client_tests
FN:642,_RINvMs6_NtCs6qhVEmoZJ2z_10async_nats6clientNtB6_6Client9subscribeReECsdpdgC16NPIW_12client_tests
FN:529,_RNCINvMs6_NtCs6qhVEmoZJ2z_10async_nats6clientNtB8_6Client12send_requestReE0CsdpdgC16NPIW_12client_tests
FN:679,_RNCINvMs6_NtCs6qhVEmoZJ2z_10async_nats6clientNtB8_6Client15queue_subscribeReE0CsdpdgC16NPIW_12client_tests
FN:404,_RNCINvMs6_NtCs6qhVEmoZJ2z_10async_nats6clientNtB8_6Client18publish_with_replyReNtNtCs1AhsD0INetT_5alloc6string6StringE0CsdpdgC16NPIW_12client_tests
FN:369,_RNCINvMs6_NtCs6qhVEmoZJ2z_10async_nats6clientNtB8_6Client20publish_with_headersReE0CsdpdgC16NPIW_12client_tests
FN:320,_RNCINvMs6_NtCs6qhVEmoZJ2z_10async_nats6clientNtB8_6Client7publishReE0CsdpdgC16NPIW_12client_tests
FN:473,_RNCINvMs6_NtCs6qhVEmoZJ2z_10async_nats6clientNtB8_6Client7requestReE0CsdpdgC16NPIW_12client_tests
FN:642,_RNCINvMs6_NtCs6qhVEmoZJ2z_10async_nats6clientNtB8_6Client9subscribeReE0CsdpdgC16NPIW_12client_tests
FN:546,_RNCNCINvMs6_NtCs6qhVEmoZJ2z_10async_nats6clientNtBa_6Client12send_requestReE00CsdpdgC16NPIW_12client_tests
FN:588,_RNCNCINvMs6_NtCs6qhVEmoZJ2z_10async_nats6clientNtBa_6Client12send_requestReE0s0_0CsdpdgC16NPIW_12client_tests
FN:581,_RNCNCINvMs6_NtCs6qhVEmoZJ2z_10async_nats6clientNtBa_6Client12send_requestReE0s_0CsdpdgC16NPIW_12client_tests
FN:714,_RNCNCNvMs6_NtCs6qhVEmoZJ2z_10async_nats6clientNtB9_6Client5flush00CsdpdgC16NPIW_12client_tests
FN:717,_RNCNCNvMs6_NtCs6qhVEmoZJ2z_10async_nats6clientNtB9_6Client5flush0s_0CsdpdgC16NPIW_12client_tests
FN:785,_RNCNvMs6_NtCs6qhVEmoZJ2z_10async_nats6clientNtB7_6Client15force_reconnect0CsdpdgC16NPIW_12client_tests
FN:746,_RNCNvMs6_NtCs6qhVEmoZJ2z_10async_nats6clientNtB7_6Client5drain0CsdpdgC16NPIW_12client_tests
FN:709,_RNCNvMs6_NtCs6qhVEmoZJ2z_10async_nats6clientNtB7_6Client5flush0CsdpdgC16NPIW_12client_tests
FN:675,_RINvMs6_NtCs6qhVEmoZJ2z_10async_nats6clientNtB6_6Client15queue_subscribepEB8_
FN:364,_RINvMs6_NtCs6qhVEmoZJ2z_10async_nats6clientNtB6_6Client20publish_with_headerspEB8_
FN:500,_RINvMs6_NtCs6qhVEmoZJ2z_10async_nats6clientNtB6_6Client20request_with_headerspEB8_
FN:134,_RINvXs1_NtCs6qhVEmoZJ2z_10async_nats6clientNtB6_6ClientNtNtB6_6traits9Requester12send_requestpEB8_
FN:150,_RINvXs3_NtCs6qhVEmoZJ2z_10async_nats6clientNtB6_6ClientNtNtB6_6traits9Publisher18publish_with_replyppEB8_
FN:168,_RINvXs4_NtCs6qhVEmoZJ2z_10async_nats6clientNtB6_6ClientNtNtB6_6traits10Subscriber9subscribepEB8_
FN:679,_RNCINvMs6_NtCs6qhVEmoZJ2z_10async_nats6clientNtB8_6Client15queue_subscribepE0Ba_
FN:369,_RNCINvMs6_NtCs6qhVEmoZJ2z_10async_nats6clientNtB8_6Client20publish_with_headerspE0Ba_
FN:505,_RNCINvMs6_NtCs6qhVEmoZJ2z_10async_nats6clientNtB8_6Client20request_with_headerspE0Ba_
FN:714,_RNCNCNvMs6_NtCs6qhVEmoZJ2z_10async_nats6clientNtB9_6Client5flush00Bb_
FN:717,_RNCNCNvMs6_NtCs6qhVEmoZJ2z_10async_nats6clientNtB9_6Client5flush0s_0Bb_
FN:785,_RNCNvMs6_NtCs6qhVEmoZJ2z_10async_nats6clientNtB7_6Client15force_reconnect0B9_
FN:746,_RNCNvMs6_NtCs6qhVEmoZJ2z_10async_nats6clientNtB7_6Client5drain0B9_
FN:709,_RNCNvMs6_NtCs6qhVEmoZJ2z_10async_nats6clientNtB7_6Client5flush0B9_
FN:159,_RNCNvXs3_NtCs6qhVEmoZJ2z_10async_nats6clientNtB7_6ClientNtNtB7_6traits9Publisher15publish_message0B9_
FN:48,_RNvXNtCs6qhVEmoZJ2z_10async_nats6clientINtNtB4_5error5ErrorNtB2_16PublishErrorKindEINtNtCs2CqrNpCrSUr_4core7convert4FromINtNtNtNtCskNaXoohSNNl_5tokio4sync4mpsc5error9SendErrorNtB4_7CommandEE4from
FN:54,_RNvXs_NtCs6qhVEmoZJ2z_10async_nats6clientINtNtB6_5error5ErrorNtB4_16PublishErrorKindEINtNtCs2CqrNpCrSUr_4core7convert4FromINtNtNtCshOwRwf5n7ZO_10tokio_util4sync4mpsc13PollSendErrorNtB6_7CommandEE4from
FN:967,_RNvXsc_NtCs6qhVEmoZJ2z_10async_nats6clientINtNtB7_5error5ErrorNtB5_16RequestErrorKindEINtNtCs2CqrNpCrSUr_4core7convert4FromIBF_NtB5_16PublishErrorKindEE4from
FN:973,_RNvXsd_NtCs6qhVEmoZJ2z_10async_nats6clientINtNtB7_5error5ErrorNtB5_16RequestErrorKindEINtNtCs2CqrNpCrSUr_4core7convert4FromNtB5_14SubscribeErrorE4from
FN:525,_RINvMs6_NtCs6qhVEmoZJ2z_10async_nats6clientNtB6_6Client12send_requestNtNtB8_7subject7SubjectEB8_
FN:399,_RINvMs6_NtCs6qhVEmoZJ2z_10async_nats6clientNtB6_6Client18publish_with_replyNtNtB8_7subject7SubjectNtNtCs1AhsD0INetT_5alloc6string6StringEB8_
FN:399,_RINvMs6_NtCs6qhVEmoZJ2z_10async_nats6clientNtB6_6Client18publish_with_replyNtNtCs1AhsD0INetT_5alloc6string6StringB1b_EB8_
FN:437,_RINvMs6_NtCs6qhVEmoZJ2z_10async_nats6clientNtB6_6Client30publish_with_reply_and_headersNtNtB8_7subject7SubjectNtNtCs1AhsD0INetT_5alloc6string6StringEB8_
FN:316,_RINvMs6_NtCs6qhVEmoZJ2z_10async_nats6clientNtB6_6Client7publishNtNtB8_7subject7SubjectEB8_
FN:469,_RINvMs6_NtCs6qhVEmoZJ2z_10async_nats6clientNtB6_6Client7requestNtNtCs1AhsD0INetT_5alloc6string6StringEB8_
FN:642,_RINvMs6_NtCs6qhVEmoZJ2z_10async_nats6clientNtB6_6Client9subscribeNtNtCs1AhsD0INetT_5alloc6string6StringEB8_
FN:529,_RNCINvMs6_NtCs6qhVEmoZJ2z_10async_nats6clientNtB8_6Client12send_requestNtNtBa_7subject7SubjectE0Ba_
FN:404,_RNCINvMs6_NtCs6qhVEmoZJ2z_10async_nats6clientNtB8_6Client18publish_with_replyNtNtBa_7subject7SubjectNtNtCs1AhsD0INetT_5alloc6string6StringE0Ba_
FN:404,_RNCINvMs6_NtCs6qhVEmoZJ2z_10async_nats6clientNtB8_6Client18publish_with_replyNtNtCs1AhsD0INetT_5alloc6string6StringB1d_E0Ba_
FN:443,_RNCINvMs6_NtCs6qhVEmoZJ2z_10async_nats6clientNtB8_6Client30publish_with_reply_and_headersNtNtBa_7subject7SubjectNtNtCs1AhsD0INetT_5alloc6string6StringE0Ba_
FN:320,_RNCINvMs6_NtCs6qhVEmoZJ2z_10async_nats6clientNtB8_6Client7publishNtNtBa_7subject7SubjectE0Ba_
FN:473,_RNCINvMs6_NtCs6qhVEmoZJ2z_10async_nats6clientNtB8_6Client7requestNtNtCs1AhsD0INetT_5alloc6string6StringE0Ba_
FN:642,_RNCINvMs6_NtCs6qhVEmoZJ2z_10async_nats6clientNtB8_6Client9subscribeNtNtCs1AhsD0INetT_5alloc6string6StringE0Ba_
FN:546,_RNCNCINvMs6_NtCs6qhVEmoZJ2z_10async_nats6clientNtBa_6Client12send_requestNtNtBc_7subject7SubjectE00Bc_
FN:588,_RNCNCINvMs6_NtCs6qhVEmoZJ2z_10async_nats6clientNtBa_6Client12send_requestNtNtBc_7subject7SubjectE0s0_0Bc_
FN:581,_RNCNCINvMs6_NtCs6qhVEmoZJ2z_10async_nats6clientNtBa_6Client12send_requestNtNtBc_7subject7SubjectE0s_0Bc_
FN:283,_RNCNvMs6_NtCs6qhVEmoZJ2z_10async_nats6clientNtB7_6Client20is_server_compatible0B9_
FN:293,_RNCNvMs6_NtCs6qhVEmoZJ2z_10async_nats6clientNtB7_6Client20is_server_compatibles0_0B9_
FN:288,_RNCNvMs6_NtCs6qhVEmoZJ2z_10async_nats6clientNtB7_6Client20is_server_compatibles_0B9_
FN:41,_RNCNvNtCs6qhVEmoZJ2z_10async_nats6client10VERSION_RE0B5_
FN:808,_RNvMs6_NtCs6qhVEmoZJ2z_10async_nats6clientNtB5_6Client10statistics
FN:252,_RNvMs6_NtCs6qhVEmoZJ2z_10async_nats6clientNtB5_6Client11server_info
FN:785,_RNvMs6_NtCs6qhVEmoZJ2z_10async_nats6clientNtB5_6Client15force_reconnect
FN:765,_RNvMs6_NtCs6qhVEmoZJ2z_10async_nats6clientNtB5_6Client16connection_state
FN:273,_RNvMs6_NtCs6qhVEmoZJ2z_10async_nats6clientNtB5_6Client20is_server_compatible
FN:200,_RNvMs6_NtCs6qhVEmoZJ2z_10async_nats6clientNtB5_6Client3new
FN:746,_RNvMs6_NtCs6qhVEmoZJ2z_10async_nats6clientNtB5_6Client5drain
FN:709,_RNvMs6_NtCs6qhVEmoZJ2z_10async_nats6clientNtB5_6Client5flush
FN:236,_RNvMs6_NtCs6qhVEmoZJ2z_10async_nats6clientNtB5_6Client7timeout
FN:622,_RNvMs6_NtCs6qhVEmoZJ2z_10async_nats6clientNtB5_6Client9new_inbox
FN:823,_RNvMs7_NtCs6qhVEmoZJ2z_10async_nats6clientNtB5_7Request3new
FN:905,_RNvMs7_NtCs6qhVEmoZJ2z_10async_nats6clientNtB5_7Request5inbox
FN:864,_RNvMs7_NtCs6qhVEmoZJ2z_10async_nats6clientNtB5_7Request7headers
FN:839,_RNvMs7_NtCs6qhVEmoZJ2z_10async_nats6clientNtB5_7Request7payload
FN:885,_RNvMs7_NtCs6qhVEmoZJ2z_10async_nats6clientNtB5_7Request7timeout
FN:67,_RNvXs0_NtCs6qhVEmoZJ2z_10async_nats6clientNtB5_16PublishErrorKindNtNtCs2CqrNpCrSUr_4core3fmt7Display3fmt
FN:144,_RNvXs2_NtCs6qhVEmoZJ2z_10async_nats6clientNtB5_6ClientNtNtB5_6traits15TimeoutProvider7timeout
FN:159,_RNvXs3_NtCs6qhVEmoZJ2z_10async_nats6clientNtB5_6ClientNtNtB5_6traits9Publisher15publish_message
FN:193,_RNvXs5_NtCs6qhVEmoZJ2z_10async_nats6clientNtB5_6ClientINtCsk9TkWPiTIMt_12futures_sink4SinkNtNtB7_7message15OutboundMessageE10poll_close
FN:189,_RNvXs5_NtCs6qhVEmoZJ2z_10async_nats6clientNtB5_6ClientINtCsk9TkWPiTIMt_12futures_sink4SinkNtNtB7_7message15OutboundMessageE10poll_flush
FN:179,_RNvXs5_NtCs6qhVEmoZJ2z_10async_nats6clientNtB5_6ClientINtCsk9TkWPiTIMt_12futures_sink4SinkNtNtB7_7message15OutboundMessageE10poll_ready
FN:183,_RNvXs5_NtCs6qhVEmoZJ2z_10async_nats6clientNtB5_6ClientINtCsk9TkWPiTIMt_12futures_sink4SinkNtNtB7_7message15OutboundMessageE10start_send
FN:916,_RNvXs8_NtCs6qhVEmoZJ2z_10async_nats6clientNtB5_14ReconnectErrorINtNtCs2CqrNpCrSUr_4core7convert4FromINtNtNtNtCskNaXoohSNNl_5tokio4sync4mpsc5error9SendErrorNtB7_7CommandEE4from
FN:926,_RNvXs9_NtCs6qhVEmoZJ2z_10async_nats6clientNtB5_14SubscribeErrorINtNtCs2CqrNpCrSUr_4core7convert4FromINtNtNtNtCskNaXoohSNNl_5tokio4sync4mpsc5error9SendErrorNtB7_7CommandEE4from
FN:936,_RNvXsa_NtCs6qhVEmoZJ2z_10async_nats6clientNtB5_10DrainErrorINtNtCs2CqrNpCrSUr_4core7convert4FromINtNtNtNtCskNaXoohSNNl_5tokio4sync4mpsc5error9SendErrorNtB7_7CommandEE4from
FN:953,_RNvXsb_NtCs6qhVEmoZJ2z_10async_nats6clientNtB5_16RequestErrorKindNtNtCs2CqrNpCrSUr_4core3fmt7Display3fmt
FN:989,_RNvXse_NtCs6qhVEmoZJ2z_10async_nats6clientNtB5_14FlushErrorKindNtNtCs2CqrNpCrSUr_4core3fmt7Display3fmt
FN:675,_RINvMs6_NtCs6qhVEmoZJ2z_10async_nats6clientNtB6_6Client15queue_subscribeNtNtCs1AhsD0INetT_5alloc6string6StringECsbhX8fe0itkR_15jetstream_tests
FN:399,_RINvMs6_NtCs6qhVEmoZJ2z_10async_nats6clientNtB6_6Client18publish_with_replyNtNtCs1AhsD0INetT_5alloc6string6StringNtNtB8_7subject7SubjectECsbhX8fe0itkR_15jetstream_tests
FN:642,_RINvMs6_NtCs6qhVEmoZJ2z_10async_nats6clientNtB6_6Client9subscribeNtNtB8_7subject7SubjectECsbhX8fe0itkR_15jetstream_tests
FN:642,_RINvMs6_NtCs6qhVEmoZJ2z_10async_nats6clientNtB6_6Client9subscribeReECsbhX8fe0itkR_15jetstream_tests
FN:679,_RNCINvMs6_NtCs6qhVEmoZJ2z_10async_nats6clientNtB8_6Client15queue_subscribeNtNtCs1AhsD0INetT_5alloc6string6StringE0CsbhX8fe0itkR_15jetstream_tests
FN:404,_RNCINvMs6_NtCs6qhVEmoZJ2z_10async_nats6clientNtB8_6Client18publish_with_replyNtNtCs1AhsD0INetT_5alloc6string6StringNtNtBa_7subject7SubjectE0CsbhX8fe0itkR_15jetstream_tests
FN:642,_RNCINvMs6_NtCs6qhVEmoZJ2z_10async_nats6clientNtB8_6Client9subscribeNtNtBa_7subject7SubjectE0CsbhX8fe0itkR_15jetstream_tests
FN:642,_RNCINvMs6_NtCs6qhVEmoZJ2z_10async_nats6clientNtB8_6Client9subscribeReE0CsbhX8fe0itkR_15jetstream_tests
FN:714,_RNCNCNvMs6_NtCs6qhVEmoZJ2z_10async_nats6clientNtB9_6Client5flush00CsbhX8fe0itkR_15jetstream_tests
FN:717,_RNCNCNvMs6_NtCs6qhVEmoZJ2z_10async_nats6clientNtB9_6Client5flush0s_0CsbhX8fe0itkR_15jetstream_tests
FN:709,_RNCNvMs6_NtCs6qhVEmoZJ2z_10async_nats6clientNtB7_6Client5flush0CsbhX8fe0itkR_15jetstream_tests
FN:316,_RINvMs6_NtCs6qhVEmoZJ2z_10async_nats6clientNtB6_6Client7publishReECsWLjOOar9jQ_9jwt_tests
FN:642,_RINvMs6_NtCs6qhVEmoZJ2z_10async_nats6clientNtB6_6Client9subscribeReECsWLjOOar9jQ_9jwt_tests
FN:320,_RNCINvMs6_NtCs6qhVEmoZJ2z_10async_nats6clientNtB8_6Client7publishReE0CsWLjOOar9jQ_9jwt_tests
FN:642,_RNCINvMs6_NtCs6qhVEmoZJ2z_10async_nats6clientNtB8_6Client9subscribeReE0CsWLjOOar9jQ_9jwt_tests
FN:714,_RNCNCNvMs6_NtCs6qhVEmoZJ2z_10async_nats6clientNtB9_6Client5flush00CsWLjOOar9jQ_9jwt_tests
FN:717,_RNCNCNvMs6_NtCs6qhVEmoZJ2z_10async_nats6clientNtB9_6Client5flush0s_0CsWLjOOar9jQ_9jwt_tests
FN:709,_RNCNvMs6_NtCs6qhVEmoZJ2z_10async_nats6clientNtB7_6Client5flush0CsWLjOOar9jQ_9jwt_tests
FN:642,_RINvMs6_NtCs6qhVEmoZJ2z_10async_nats6clientNtB6_6Client9subscribeReECs98b7hshCa6M_8kv_tests
FN:642,_RNCINvMs6_NtCs6qhVEmoZJ2z_10async_nats6clientNtB8_6Client9subscribeReE0Cs98b7hshCa6M_8kv_tests
FN:714,_RNCNCNvMs6_NtCs6qhVEmoZJ2z_10async_nats6clientNtB9_6Client5flush00Cs98b7hshCa6M_8kv_tests
FN:717,_RNCNCNvMs6_NtCs6qhVEmoZJ2z_10async_nats6clientNtB9_6Client5flush0s_0Cs98b7hshCa6M_8kv_tests
FN:709,_RNCNvMs6_NtCs6qhVEmoZJ2z_10async_nats6clientNtB7_6Client5flush0Cs98b7hshCa6M_8kv_tests
FN:316,_RINvMs6_NtCs6qhVEmoZJ2z_10async_nats6clientNtB6_6Client7publishReECslYd6v58rjWA_10nkey_tests
FN:642,_RINvMs6_NtCs6qhVEmoZJ2z_10async_nats6clientNtB6_6Client9subscribeReECslYd6v58rjWA_10nkey_tests
FN:320,_RNCINvMs6_NtCs6qhVEmoZJ2z_10async_nats6clientNtB8_6Client7publishReE0CslYd6v58rjWA_10nkey_tests
FN:642,_RNCINvMs6_NtCs6qhVEmoZJ2z_10async_nats6clientNtB8_6Client9subscribeReE0CslYd6v58rjWA_10nkey_tests
FN:714,_RNCNCNvMs6_NtCs6qhVEmoZJ2z_10async_nats6clientNtB9_6Client5flush00CslYd6v58rjWA_10nkey_tests
FN:717,_RNCNCNvMs6_NtCs6qhVEmoZJ2z_10async_nats6clientNtB9_6Client5flush0s_0CslYd6v58rjWA_10nkey_tests
FN:709,_RNCNvMs6_NtCs6qhVEmoZJ2z_10async_nats6clientNtB7_6Client5flush0CslYd6v58rjWA_10nkey_tests
FN:675,_RINvMs6_NtCs6qhVEmoZJ2z_10async_nats6clientNtB6_6Client15queue_subscribeNtNtCs1AhsD0INetT_5alloc6string6StringECscGYhHI872CP_13service_tests
FN:399,_RINvMs6_NtCs6qhVEmoZJ2z_10async_nats6clientNtB6_6Client18publish_with_replyReNtNtCs1AhsD0INetT_5alloc6string6StringECscGYhHI872CP_13service_tests
FN:364,_RINvMs6_NtCs6qhVEmoZJ2z_10async_nats6clientNtB6_6Client20publish_with_headersNtNtB8_7subject7SubjectECscGYhHI872CP_13service_tests
FN:316,_RINvMs6_NtCs6qhVEmoZJ2z_10async_nats6clientNtB6_6Client7publishReECscGYhHI872CP_13service_tests
FN:469,_RINvMs6_NtCs6qhVEmoZJ2z_10async_nats6clientNtB6_6Client7requestReECscGYhHI872CP_13service_tests
FN:679,_RNCINvMs6_NtCs6qhVEmoZJ2z_10async_nats6clientNtB8_6Client15queue_subscribeNtNtCs1AhsD0INetT_5alloc6string6StringE0CscGYhHI872CP_13service_tests
FN:404,_RNCINvMs6_NtCs6qhVEmoZJ2z_10async_nats6clientNtB8_6Client18publish_with_replyReNtNtCs1AhsD0INetT_5alloc6string6StringE0CscGYhHI872CP_13service_tests
FN:369,_RNCINvMs6_NtCs6qhVEmoZJ2z_10async_nats6clientNtB8_6Client20publish_with_headersNtNtBa_7subject7SubjectE0CscGYhHI872CP_13service_tests
FN:320,_RNCINvMs6_NtCs6qhVEmoZJ2z_10async_nats6clientNtB8_6Client7publishReE0CscGYhHI872CP_13service_tests
FN:473,_RNCINvMs6_NtCs6qhVEmoZJ2z_10async_nats6clientNtB8_6Client7requestReE0CscGYhHI872CP_13service_tests
FN:714,_RNCNCNvMs6_NtCs6qhVEmoZJ2z_10async_nats6clientNtB9_6Client5flush00CscGYhHI872CP_13service_tests
FN:717,_RNCNCNvMs6_NtCs6qhVEmoZJ2z_10async_nats6clientNtB9_6Client5flush0s_0CscGYhHI872CP_13service_tests
FN:709,_RNCNvMs6_NtCs6qhVEmoZJ2z_10async_nats6clientNtB7_6Client5flush0CscGYhHI872CP_13service_tests
FN:316,_RINvMs6_NtCs6qhVEmoZJ2z_10async_nats6clientNtB6_6Client7publishReECs2VP52EYB5HS_9tls_tests
FN:642,_RINvMs6_NtCs6qhVEmoZJ2z_10async_nats6clientNtB6_6Client9subscribeReECs2VP52EYB5HS_9tls_tests
FN:320,_RNCINvMs6_NtCs6qhVEmoZJ2z_10async_nats6clientNtB8_6Client7publishReE0Cs2VP52EYB5HS_9tls_tests
FN:642,_RNCINvMs6_NtCs6qhVEmoZJ2z_10async_nats6clientNtB8_6Client9subscribeReE0Cs2VP52EYB5HS_9tls_tests
FN:714,_RNCNCNvMs6_NtCs6qhVEmoZJ2z_10async_nats6clientNtB9_6Client5flush00Cs2VP52EYB5HS_9tls_tests
FN:717,_RNCNCNvMs6_NtCs6qhVEmoZJ2z_10async_nats6clientNtB9_6Client5flush0s_0Cs2VP52EYB5HS_9tls_tests
FN:709,_RNCNvMs6_NtCs6qhVEmoZJ2z_10async_nats6clientNtB7_6Client5flush0Cs2VP52EYB5HS_9tls_tests
FNDA:0,_RINvMs6_NtCs1hbFQVFAImq_10async_nats6clientNtB6_6Client12send_requestpEB8_
FNDA:0,_RINvMs6_NtCs1hbFQVFAImq_10async_nats6clientNtB6_6Client15queue_subscribepEB8_
FNDA:0,_RINvMs6_NtCs1hbFQVFAImq_10async_nats6clientNtB6_6Client18publish_with_replyppEB8_
FNDA:0,_RINvMs6_NtCs1hbFQVFAImq_10async_nats6clientNtB6_6Client20publish_with_headerspEB8_
FNDA:0,_RINvMs6_NtCs1hbFQVFAImq_10async_nats6clientNtB6_6Client20request_with_headerspEB8_
FNDA:0,_RINvMs6_NtCs1hbFQVFAImq_10async_nats6clientNtB6_6Client30publish_with_reply_and_headersppEB8_
FNDA:0,_RINvMs6_NtCs1hbFQVFAImq_10async_nats6clientNtB6_6Client7publishpEB8_
FNDA:0,_RINvMs6_NtCs1hbFQVFAImq_10async_nats6clientNtB6_6Client7requestpEB8_
FNDA:0,_RINvMs6_NtCs1hbFQVFAImq_10async_nats6clientNtB6_6Client9subscribepEB8_
FNDA:0,_RINvXs1_NtCs1hbFQVFAImq_10async_nats6clientNtB6_6ClientNtNtB6_6traits9Requester12send_requestpEB8_
FNDA:0,_RINvXs3_NtCs1hbFQVFAImq_10async_nats6clientNtB6_6ClientNtNtB6_6traits9Publisher18publish_with_replyppEB8_
FNDA:0,_RINvXs4_NtCs1hbFQVFAImq_10async_nats6clientNtB6_6ClientNtNtB6_6traits10Subscriber9subscribepEB8_
FNDA:0,_RNCINvMs6_NtCs1hbFQVFAImq_10async_nats6clientNtB8_6Client12send_requestpE0Ba_
FNDA:0,_RNCINvMs6_NtCs1hbFQVFAImq_10async_nats6clientNtB8_6Client15queue_subscribepE0Ba_
FNDA:0,_RNCINvMs6_NtCs1hbFQVFAImq_10async_nats6clientNtB8_6Client18publish_with_replyppE0Ba_
FNDA:0,_RNCINvMs6_NtCs1hbFQVFAImq_10async_nats6clientNtB8_6Client20publish_with_headerspE0Ba_
FNDA:0,_RNCINvMs6_NtCs1hbFQVFAImq_10async_nats6clientNtB8_6Client20request_with_headerspE0Ba_
FNDA:0,_RNCINvMs6_NtCs1hbFQVFAImq_10async_nats6clientNtB8_6Client30publish_with_reply_and_headersppE0Ba_
FNDA:0,_RNCINvMs6_NtCs1hbFQVFAImq_10async_nats6clientNtB8_6Client7publishpE0Ba_
FNDA:0,_RNCINvMs6_NtCs1hbFQVFAImq_10async_nats6clientNtB8_6Client7requestpE0Ba_
FNDA:0,_RNCINvMs6_NtCs1hbFQVFAImq_10async_nats6clientNtB8_6Client9subscribepE0Ba_
FNDA:0,_RNCNCINvMs6_NtCs1hbFQVFAImq_10async_nats6clientNtBa_6Client12send_requestpE00Bc_
FNDA:0,_RNCNCINvMs6_NtCs1hbFQVFAImq_10async_nats6clientNtBa_6Client12send_requestpE0s0_0Bc_
FNDA:0,_RNCNCINvMs6_NtCs1hbFQVFAImq_10async_nats6clientNtBa_6Client12send_requestpE0s_0Bc_
FNDA:0,_RNCNCNvMs6_NtCs1hbFQVFAImq_10async_nats6clientNtB9_6Client5flush00Bb_
FNDA:0,_RNCNCNvMs6_NtCs1hbFQVFAImq_10async_nats6clientNtB9_6Client5flush0s_0Bb_
FNDA:0,_RNCNvMs6_NtCs1hbFQVFAImq_10async_nats6clientNtB7_6Client15force_reconnect0B9_
FNDA:0,_RNCNvMs6_NtCs1hbFQVFAImq_10async_nats6clientNtB7_6Client20is_server_compatible0B9_
FNDA:0,_RNCNvMs6_NtCs1hbFQVFAImq_10async_nats6clientNtB7_6Client20is_server_compatibles0_0B9_
FNDA:0,_RNCNvMs6_NtCs1hbFQVFAImq_10async_nats6clientNtB7_6Client20is_server_compatibles_0B9_
FNDA:0,_RNCNvMs6_NtCs1hbFQVFAImq_10async_nats6clientNtB7_6Client5drain0B9_
FNDA:0,_RNCNvMs6_NtCs1hbFQVFAImq_10async_nats6clientNtB7_6Client5flush0B9_
FNDA:0,_RNCNvXs3_NtCs1hbFQVFAImq_10async_nats6clientNtB7_6ClientNtNtB7_6traits9Publisher15publish_message0B9_
FNDA:0,_RNvMs6_NtCs1hbFQVFAImq_10async_nats6clientNtB5_6Client10statistics
FNDA:0,_RNvMs6_NtCs1hbFQVFAImq_10async_nats6clientNtB5_6Client11server_info
FNDA:0,_RNvMs6_NtCs1hbFQVFAImq_10async_nats6clientNtB5_6Client15force_reconnect
FNDA:0,_RNvMs6_NtCs1hbFQVFAImq_10async_nats6clientNtB5_6Client16connection_state
FNDA:0,_RNvMs6_NtCs1hbFQVFAImq_10async_nats6clientNtB5_6Client20is_server_compatible
FNDA:0,_RNvMs6_NtCs1hbFQVFAImq_10async_nats6clientNtB5_6Client5drain
FNDA:0,_RNvMs6_NtCs1hbFQVFAImq_10async_nats6clientNtB5_6Client5flush
FNDA:0,_RNvMs6_NtCs1hbFQVFAImq_10async_nats6clientNtB5_6Client7timeout
FNDA:0,_RNvMs6_NtCs1hbFQVFAImq_10async_nats6clientNtB5_6Client9new_inbox
FNDA:0,_RNvMs7_NtCs1hbFQVFAImq_10async_nats6clientNtB5_7Request3new
FNDA:0,_RNvMs7_NtCs1hbFQVFAImq_10async_nats6clientNtB5_7Request5inbox
FNDA:0,_RNvMs7_NtCs1hbFQVFAImq_10async_nats6clientNtB5_7Request7headers
FNDA:0,_RNvMs7_NtCs1hbFQVFAImq_10async_nats6clientNtB5_7Request7payload
FNDA:0,_RNvMs7_NtCs1hbFQVFAImq_10async_nats6clientNtB5_7Request7timeout
FNDA:0,_RNvXNtCs1hbFQVFAImq_10async_nats6clientINtNtB4_5error5ErrorNtB2_16PublishErrorKindEINtNtCs2CqrNpCrSUr_4core7convert4FromINtNtNtNtCskNaXoohSNNl_5tokio4sync4mpsc5error9SendErrorNtB4_7CommandEE4from
FNDA:0,_RNvXs0_NtCs1hbFQVFAImq_10async_nats6clientNtB5_16PublishErrorKindNtNtCs2CqrNpCrSUr_4core3fmt7Display3fmt
FNDA:0,_RNvXs2_NtCs1hbFQVFAImq_10async_nats6clientNtB5_6ClientNtNtB5_6traits15TimeoutProvider7timeout
FNDA:0,_RNvXs3_NtCs1hbFQVFAImq_10async_nats6clientNtB5_6ClientNtNtB5_6traits9Publisher15publish_message
FNDA:0,_RNvXs5_NtCs1hbFQVFAImq_10async_nats6clientNtB5_6ClientINtCsk9TkWPiTIMt_12futures_sink4SinkNtNtB7_7message15OutboundMessageE10poll_close
FNDA:0,_RNvXs5_NtCs1hbFQVFAImq_10async_nats6clientNtB5_6ClientINtCsk9TkWPiTIMt_12futures_sink4SinkNtNtB7_7message15OutboundMessageE10poll_flush
FNDA:0,_RNvXs5_NtCs1hbFQVFAImq_10async_nats6clientNtB5_6ClientINtCsk9TkWPiTIMt_12futures_sink4SinkNtNtB7_7message15OutboundMessageE10poll_ready
FNDA:0,_RNvXs5_NtCs1hbFQVFAImq_10async_nats6clientNtB5_6ClientINtCsk9TkWPiTIMt_12futures_sink4SinkNtNtB7_7message15OutboundMessageE10start_send
FNDA:0,_RNvXs8_NtCs1hbFQVFAImq_10async_nats6clientNtB5_14ReconnectErrorINtNtCs2CqrNpCrSUr_4core7convert4FromINtNtNtNtCskNaXoohSNNl_5tokio4sync4mpsc5error9SendErrorNtB7_7CommandEE4from
FNDA:0,_RNvXs9_NtCs1hbFQVFAImq_10async_nats6clientNtB5_14SubscribeErrorINtNtCs2CqrNpCrSUr_4core7convert4FromINtNtNtNtCskNaXoohSNNl_5tokio4sync4mpsc5error9SendErrorNtB7_7CommandEE4from
FNDA:0,_RNvXs_NtCs1hbFQVFAImq_10async_nats6clientINtNtB6_5error5ErrorNtB4_16PublishErrorKindEINtNtCs2CqrNpCrSUr_4core7convert4FromINtNtNtCshOwRwf5n7ZO_10tokio_util4sync4mpsc13PollSendErrorNtB6_7CommandEE4from
FNDA:0,_RNvXsa_NtCs1hbFQVFAImq_10async_nats6clientNtB5_10DrainErrorINtNtCs2CqrNpCrSUr_4core7convert4FromINtNtNtNtCskNaXoohSNNl_5tokio4sync4mpsc5error9SendErrorNtB7_7CommandEE4from
FNDA:0,_RNvXsb_NtCs1hbFQVFAImq_10async_nats6clientNtB5_16RequestErrorKindNtNtCs2CqrNpCrSUr_4core3fmt7Display3fmt
FNDA:0,_RNvXsc_NtCs1hbFQVFAImq_10async_nats6clientINtNtB7_5error5ErrorNtB5_16RequestErrorKindEINtNtCs2CqrNpCrSUr_4core7convert4FromIBF_NtB5_16PublishErrorKindEE4from
FNDA:0,_RNvXsd_NtCs1hbFQVFAImq_10async_nats6clientINtNtB7_5error5ErrorNtB5_16RequestErrorKindEINtNtCs2CqrNpCrSUr_4core7convert4FromNtB5_14SubscribeErrorE4from
FNDA:0,_RNvXse_NtCs1hbFQVFAImq_10async_nats6clientNtB5_14FlushErrorKindNtNtCs2CqrNpCrSUr_4core3fmt7Display3fmt
FNDA:1,_RNvMs6_NtCs1hbFQVFAImq_10async_nats6clientNtB5_6Client3new
FNDA:0,_RNCNvNtCs1hbFQVFAImq_10async_nats6client10VERSION_RE0B5_
FNDA:1,_RINvMs6_NtCs6qhVEmoZJ2z_10async_nats6clientNtB6_6Client12send_requestReECsdpdgC16NPIW_12client_tests
FNDA:3,_RINvMs6_NtCs6qhVEmoZJ2z_10async_nats6clientNtB6_6Client15queue_subscribeReECsdpdgC16NPIW_12client_tests
FNDA:1,_RINvMs6_NtCs6qhVEmoZJ2z_10async_nats6clientNtB6_6Client18publish_with_replyReNtNtCs1AhsD0INetT_5alloc6string6StringECsdpdgC16NPIW_12client_tests
FNDA:2,_RINvMs6_NtCs6qhVEmoZJ2z_10async_nats6clientNtB6_6Client20publish_with_headersReECsdpdgC16NPIW_12client_tests
FNDA:258,_RINvMs6_NtCs6qhVEmoZJ2z_10async_nats6clientNtB6_6Client7publishReECsdpdgC16NPIW_12client_tests
FNDA:5,_RINvMs6_NtCs6qhVEmoZJ2z_10async_nats6clientNtB6_6Client7requestReECsdpdgC16NPIW_12client_tests
FNDA:33,_RINvMs6_NtCs6qhVEmoZJ2z_10async_nats6clientNtB6_6Client9subscribeReECsdpdgC16NPIW_12client_tests
FNDA:1,_RNCINvMs6_NtCs6qhVEmoZJ2z_10async_nats6clientNtB8_6Client12send_requestReE0CsdpdgC16NPIW_12client_tests
FNDA:3,_RNCINvMs6_NtCs6qhVEmoZJ2z_10async_nats6clientNtB8_6Client15queue_subscribeReE0CsdpdgC16NPIW_12client_tests
FNDA:1,_RNCINvMs6_NtCs6qhVEmoZJ2z_10async_nats6clientNtB8_6Client18publish_with_replyReNtNtCs1AhsD0INetT_5alloc6string6StringE0CsdpdgC16NPIW_12client_tests
FNDA:2,_RNCINvMs6_NtCs6qhVEmoZJ2z_10async_nats6clientNtB8_6Client20publish_with_headersReE0CsdpdgC16NPIW_12client_tests
FNDA:258,_RNCINvMs6_NtCs6qhVEmoZJ2z_10async_nats6clientNtB8_6Client7publishReE0CsdpdgC16NPIW_12client_tests
FNDA:5,_RNCINvMs6_NtCs6qhVEmoZJ2z_10async_nats6clientNtB8_6Client7requestReE0CsdpdgC16NPIW_12client_tests
FNDA:33,_RNCINvMs6_NtCs6qhVEmoZJ2z_10async_nats6clientNtB8_6Client9subscribeReE0CsdpdgC16NPIW_12client_tests
FNDA:0,_RNCNCINvMs6_NtCs6qhVEmoZJ2z_10async_nats6clientNtBa_6Client12send_requestReE00CsdpdgC16NPIW_12client_tests
FNDA:0,_RNCNCINvMs6_NtCs6qhVEmoZJ2z_10async_nats6clientNtBa_6Client12send_requestReE0s0_0CsdpdgC16NPIW_12client_tests
FNDA:0,_RNCNCINvMs6_NtCs6qhVEmoZJ2z_10async_nats6clientNtBa_6Client12send_requestReE0s_0CsdpdgC16NPIW_12client_tests
FNDA:0,_RNCNCNvMs6_NtCs6qhVEmoZJ2z_10async_nats6clientNtB9_6Client5flush00CsdpdgC16NPIW_12client_tests
FNDA:0,_RNCNCNvMs6_NtCs6qhVEmoZJ2z_10async_nats6clientNtB9_6Client5flush0s_0CsdpdgC16NPIW_12client_tests
FNDA:2,_RNCNvMs6_NtCs6qhVEmoZJ2z_10async_nats6clientNtB7_6Client15force_reconnect0CsdpdgC16NPIW_12client_tests
FNDA:1,_RNCNvMs6_NtCs6qhVEmoZJ2z_10async_nats6clientNtB7_6Client5drain0CsdpdgC16NPIW_12client_tests
FNDA:207,_RNCNvMs6_NtCs6qhVEmoZJ2z_10async_nats6clientNtB7_6Client5flush0CsdpdgC16NPIW_12client_tests
FNDA:0,_RINvMs6_NtCs6qhVEmoZJ2z_10async_nats6clientNtB6_6Client15queue_subscribepEB8_
FNDA:0,_RINvMs6_NtCs6qhVEmoZJ2z_10async_nats6clientNtB6_6Client20publish_with_headerspEB8_
FNDA:0,_RINvMs6_NtCs6qhVEmoZJ2z_10async_nats6clientNtB6_6Client20request_with_headerspEB8_
FNDA:0,_RINvXs1_NtCs6qhVEmoZJ2z_10async_nats6clientNtB6_6ClientNtNtB6_6traits9Requester12send_requestpEB8_
FNDA:0,_RINvXs3_NtCs6qhVEmoZJ2z_10async_nats6clientNtB6_6ClientNtNtB6_6traits9Publisher18publish_with_replyppEB8_
FNDA:0,_RINvXs4_NtCs6qhVEmoZJ2z_10async_nats6clientNtB6_6ClientNtNtB6_6traits10Subscriber9subscribepEB8_
FNDA:0,_RNCINvMs6_NtCs6qhVEmoZJ2z_10async_nats6clientNtB8_6Client15queue_subscribepE0Ba_
FNDA:0,_RNCINvMs6_NtCs6qhVEmoZJ2z_10async_nats6clientNtB8_6Client20publish_with_headerspE0Ba_
FNDA:0,_RNCINvMs6_NtCs6qhVEmoZJ2z_10async_nats6clientNtB8_6Client20request_with_headerspE0Ba_
FNDA:0,_RNCNCNvMs6_NtCs6qhVEmoZJ2z_10async_nats6clientNtB9_6Client5flush00Bb_
FNDA:0,_RNCNCNvMs6_NtCs6qhVEmoZJ2z_10async_nats6clientNtB9_6Client5flush0s_0Bb_
FNDA:0,_RNCNvMs6_NtCs6qhVEmoZJ2z_10async_nats6clientNtB7_6Client15force_reconnect0B9_
FNDA:0,_RNCNvMs6_NtCs6qhVEmoZJ2z_10async_nats6clientNtB7_6Client5drain0B9_
FNDA:0,_RNCNvMs6_NtCs6qhVEmoZJ2z_10async_nats6clientNtB7_6Client5flush0B9_
FNDA:0,_RNCNvXs3_NtCs6qhVEmoZJ2z_10async_nats6clientNtB7_6ClientNtNtB7_6traits9Publisher15publish_message0B9_
FNDA:1,_RNvXNtCs6qhVEmoZJ2z_10async_nats6clientINtNtB4_5error5ErrorNtB2_16PublishErrorKindEINtNtCs2CqrNpCrSUr_4core7convert4FromINtNtNtNtCskNaXoohSNNl_5tokio4sync4mpsc5error9SendErrorNtB4_7CommandEE4from
FNDA:0,_RNvXs_NtCs6qhVEmoZJ2z_10async_nats6clientINtNtB6_5error5ErrorNtB4_16PublishErrorKindEINtNtCs2CqrNpCrSUr_4core7convert4FromINtNtNtCshOwRwf5n7ZO_10tokio_util4sync4mpsc13PollSendErrorNtB6_7CommandEE4from
FNDA:0,_RNvXsc_NtCs6qhVEmoZJ2z_10async_nats6clientINtNtB7_5error5ErrorNtB5_16RequestErrorKindEINtNtCs2CqrNpCrSUr_4core7convert4FromIBF_NtB5_16PublishErrorKindEE4from
FNDA:0,_RNvXsd_NtCs6qhVEmoZJ2z_10async_nats6clientINtNtB7_5error5ErrorNtB5_16RequestErrorKindEINtNtCs2CqrNpCrSUr_4core7convert4FromNtB5_14SubscribeErrorE4from
FNDA:2517,_RINvMs6_NtCs6qhVEmoZJ2z_10async_nats6clientNtB6_6Client12send_requestNtNtB8_7subject7SubjectEB8_
FNDA:2,_RINvMs6_NtCs6qhVEmoZJ2z_10async_nats6clientNtB6_6Client18publish_with_replyNtNtB8_7subject7SubjectNtNtCs1AhsD0INetT_5alloc6string6StringEB8_
FNDA:256,_RINvMs6_NtCs6qhVEmoZJ2z_10async_nats6clientNtB6_6Client18publish_with_replyNtNtCs1AhsD0INetT_5alloc6string6StringB1b_EB8_
FNDA:0,_RINvMs6_NtCs6qhVEmoZJ2z_10async_nats6clientNtB6_6Client30publish_with_reply_and_headersNtNtB8_7subject7SubjectNtNtCs1AhsD0INetT_5alloc6string6StringEB8_
FNDA:4577,_RINvMs6_NtCs6qhVEmoZJ2z_10async_nats6clientNtB6_6Client7publishNtNtB8_7subject7SubjectEB8_
FNDA:2507,_RINvMs6_NtCs6qhVEmoZJ2z_10async_nats6clientNtB6_6Client7requestNtNtCs1AhsD0INetT_5alloc6string6StringEB8_
FNDA:189,_RINvMs6_NtCs6qhVEmoZJ2z_10async_nats6clientNtB6_6Client9subscribeNtNtCs1AhsD0INetT_5alloc6string6StringEB8_
FNDA:2517,_RNCINvMs6_NtCs6qhVEmoZJ2z_10async_nats6clientNtB8_6Client12send_requestNtNtBa_7subject7SubjectE0Ba_
FNDA:2,_RNCINvMs6_NtCs6qhVEmoZJ2z_10async_nats6clientNtB8_6Client18publish_with_replyNtNtBa_7subject7SubjectNtNtCs1AhsD0INetT_5alloc6string6StringE0Ba_
FNDA:256,_RNCINvMs6_NtCs6qhVEmoZJ2z_10async_nats6clientNtB8_6Client18publish_with_replyNtNtCs1AhsD0INetT_5alloc6string6StringB1d_E0Ba_
FNDA:0,_RNCINvMs6_NtCs6qhVEmoZJ2z_10async_nats6clientNtB8_6Client30publish_with_reply_and_headersNtNtBa_7subject7SubjectNtNtCs1AhsD0INetT_5alloc6string6StringE0Ba_
FNDA:4577,_RNCINvMs6_NtCs6qhVEmoZJ2z_10async_nats6clientNtB8_6Client7publishNtNtBa_7subject7SubjectE0Ba_
FNDA:2507,_RNCINvMs6_NtCs6qhVEmoZJ2z_10async_nats6clientNtB8_6Client7requestNtNtCs1AhsD0INetT_5alloc6string6StringE0Ba_
FNDA:189,_RNCINvMs6_NtCs6qhVEmoZJ2z_10async_nats6clientNtB8_6Client9subscribeNtNtCs1AhsD0INetT_5alloc6string6StringE0Ba_
FNDA:0,_RNCNCINvMs6_NtCs6qhVEmoZJ2z_10async_nats6clientNtBa_6Client12send_requestNtNtBc_7subject7SubjectE00Bc_
FNDA:3,_RNCNCINvMs6_NtCs6qhVEmoZJ2z_10async_nats6clientNtBa_6Client12send_requestNtNtBc_7subject7SubjectE0s0_0Bc_
FNDA:0,_RNCNCINvMs6_NtCs6qhVEmoZJ2z_10async_nats6clientNtBa_6Client12send_requestNtNtBc_7subject7SubjectE0s_0Bc_
FNDA:0,_RNCNvMs6_NtCs6qhVEmoZJ2z_10async_nats6clientNtB7_6Client20is_server_compatible0B9_
FNDA:0,_RNCNvMs6_NtCs6qhVEmoZJ2z_10async_nats6clientNtB7_6Client20is_server_compatibles0_0B9_
FNDA:0,_RNCNvMs6_NtCs6qhVEmoZJ2z_10async_nats6clientNtB7_6Client20is_server_compatibles_0B9_
FNDA:0,_RNCNvNtCs6qhVEmoZJ2z_10async_nats6client10VERSION_RE0B5_
FNDA:1,_RNvMs6_NtCs6qhVEmoZJ2z_10async_nats6clientNtB5_6Client10statistics
FNDA:2,_RNvMs6_NtCs6qhVEmoZJ2z_10async_nats6clientNtB5_6Client11server_info
FNDA:2,_RNvMs6_NtCs6qhVEmoZJ2z_10async_nats6clientNtB5_6Client15force_reconnect
FNDA:7,_RNvMs6_NtCs6qhVEmoZJ2z_10async_nats6clientNtB5_6Client16connection_state
FNDA:0,_RNvMs6_NtCs6qhVEmoZJ2z_10async_nats6clientNtB5_6Client20is_server_compatible
FNDA:204,_RNvMs6_NtCs6qhVEmoZJ2z_10async_nats6clientNtB5_6Client3new
FNDA:1,_RNvMs6_NtCs6qhVEmoZJ2z_10async_nats6clientNtB5_6Client5drain
FNDA:219,_RNvMs6_NtCs6qhVEmoZJ2z_10async_nats6clientNtB5_6Client5flush
FNDA:3,_RNvMs6_NtCs6qhVEmoZJ2z_10async_nats6clientNtB5_6Client7timeout
FNDA:342409,_RNvMs6_NtCs6qhVEmoZJ2z_10async_nats6clientNtB5_6Client9new_inbox
FNDA:2518,_RNvMs7_NtCs6qhVEmoZJ2z_10async_nats6clientNtB5_7Request3new
FNDA:1,_RNvMs7_NtCs6qhVEmoZJ2z_10async_nats6clientNtB5_7Request5inbox
FNDA:0,_RNvMs7_NtCs6qhVEmoZJ2z_10async_nats6clientNtB5_7Request7headers
FNDA:2517,_RNvMs7_NtCs6qhVEmoZJ2z_10async_nats6clientNtB5_7Request7payload
FNDA:0,_RNvMs7_NtCs6qhVEmoZJ2z_10async_nats6clientNtB5_7Request7timeout
FNDA:0,_RNvXs0_NtCs6qhVEmoZJ2z_10async_nats6clientNtB5_16PublishErrorKindNtNtCs2CqrNpCrSUr_4core3fmt7Display3fmt
FNDA:0,_RNvXs2_NtCs6qhVEmoZJ2z_10async_nats6clientNtB5_6ClientNtNtB5_6traits15TimeoutProvider7timeout
FNDA:0,_RNvXs3_NtCs6qhVEmoZJ2z_10async_nats6clientNtB5_6ClientNtNtB5_6traits9Publisher15publish_message
FNDA:0,_RNvXs5_NtCs6qhVEmoZJ2z_10async_nats6clientNtB5_6ClientINtCsk9TkWPiTIMt_12futures_sink4SinkNtNtB7_7message15OutboundMessageE10poll_close
FNDA:0,_RNvXs5_NtCs6qhVEmoZJ2z_10async_nats6clientNtB5_6ClientINtCsk9TkWPiTIMt_12futures_sink4SinkNtNtB7_7message15OutboundMessageE10poll_flush
FNDA:0,_RNvXs5_NtCs6qhVEmoZJ2z_10async_nats6clientNtB5_6ClientINtCsk9TkWPiTIMt_12futures_sink4SinkNtNtB7_7message15OutboundMessageE10poll_ready
FNDA:0,_RNvXs5_NtCs6qhVEmoZJ2z_10async_nats6clientNtB5_6ClientINtCsk9TkWPiTIMt_12futures_sink4SinkNtNtB7_7message15OutboundMessageE10start_send
FNDA:0,_RNvXs8_NtCs6qhVEmoZJ2z_10async_nats6clientNtB5_14ReconnectErrorINtNtCs2CqrNpCrSUr_4core7convert4FromINtNtNtNtCskNaXoohSNNl_5tokio4sync4mpsc5error9SendErrorNtB7_7CommandEE4from
FNDA:1,_RNvXs9_NtCs6qhVEmoZJ2z_10async_nats6clientNtB5_14SubscribeErrorINtNtCs2CqrNpCrSUr_4core7convert4FromINtNtNtNtCskNaXoohSNNl_5tokio4sync4mpsc5error9SendErrorNtB7_7CommandEE4from
FNDA:0,_RNvXsa_NtCs6qhVEmoZJ2z_10async_nats6clientNtB5_10DrainErrorINtNtCs2CqrNpCrSUr_4core7convert4FromINtNtNtNtCskNaXoohSNNl_5tokio4sync4mpsc5error9SendErrorNtB7_7CommandEE4from
FNDA:0,_RNvXsb_NtCs6qhVEmoZJ2z_10async_nats6clientNtB5_16RequestErrorKindNtNtCs2CqrNpCrSUr_4core3fmt7Display3fmt
FNDA:0,_RNvXse_NtCs6qhVEmoZJ2z_10async_nats6clientNtB5_14FlushErrorKindNtNtCs2CqrNpCrSUr_4core3fmt7Display3fmt
FNDA:2,_RINvMs6_NtCs6qhVEmoZJ2z_10async_nats6clientNtB6_6Client15queue_subscribeNtNtCs1AhsD0INetT_5alloc6string6StringECsbhX8fe0itkR_15jetstream_tests
FNDA:109,_RINvMs6_NtCs6qhVEmoZJ2z_10async_nats6clientNtB6_6Client18publish_with_replyNtNtCs1AhsD0INetT_5alloc6string6StringNtNtB8_7subject7SubjectECsbhX8fe0itkR_15jetstream_tests
FNDA:105,_RINvMs6_NtCs6qhVEmoZJ2z_10async_nats6clientNtB6_6Client9subscribeNtNtB8_7subject7SubjectECsbhX8fe0itkR_15jetstream_tests
FNDA:4,_RINvMs6_NtCs6qhVEmoZJ2z_10async_nats6clientNtB6_6Client9subscribeReECsbhX8fe0itkR_15jetstream_tests
FNDA:2,_RNCINvMs6_NtCs6qhVEmoZJ2z_10async_nats6clientNtB8_6Client15queue_subscribeNtNtCs1AhsD0INetT_5alloc6string6StringE0CsbhX8fe0itkR_15jetstream_tests
FNDA:109,_RNCINvMs6_NtCs6qhVEmoZJ2z_10async_nats6clientNtB8_6Client18publish_with_replyNtNtCs1AhsD0INetT_5alloc6string6StringNtNtBa_7subject7SubjectE0CsbhX8fe0itkR_15jetstream_tests
FNDA:105,_RNCINvMs6_NtCs6qhVEmoZJ2z_10async_nats6clientNtB8_6Client9subscribeNtNtBa_7subject7SubjectE0CsbhX8fe0itkR_15jetstream_tests
FNDA:4,_RNCINvMs6_NtCs6qhVEmoZJ2z_10async_nats6clientNtB8_6Client9subscribeReE0CsbhX8fe0itkR_15jetstream_tests
FNDA:0,_RNCNCNvMs6_NtCs6qhVEmoZJ2z_10async_nats6clientNtB9_6Client5flush00CsbhX8fe0itkR_15jetstream_tests
FNDA:0,_RNCNCNvMs6_NtCs6qhVEmoZJ2z_10async_nats6clientNtB9_6Client5flush0s_0CsbhX8fe0itkR_15jetstream_tests
FNDA:3,_RNCNvMs6_NtCs6qhVEmoZJ2z_10async_nats6clientNtB7_6Client5flush0CsbhX8fe0itkR_15jetstream_tests
FNDA:5,_RINvMs6_NtCs6qhVEmoZJ2z_10async_nats6clientNtB6_6Client7publishReECsWLjOOar9jQ_9jwt_tests
FNDA:1,_RINvMs6_NtCs6qhVEmoZJ2z_10async_nats6clientNtB6_6Client9subscribeReECsWLjOOar9jQ_9jwt_tests
FNDA:5,_RNCINvMs6_NtCs6qhVEmoZJ2z_10async_nats6clientNtB8_6Client7publishReE0CsWLjOOar9jQ_9jwt_tests
FNDA:1,_RNCINvMs6_NtCs6qhVEmoZJ2z_10async_nats6clientNtB8_6Client9subscribeReE0CsWLjOOar9jQ_9jwt_tests
FNDA:0,_RNCNCNvMs6_NtCs6qhVEmoZJ2z_10async_nats6clientNtB9_6Client5flush00CsWLjOOar9jQ_9jwt_tests
FNDA:0,_RNCNCNvMs6_NtCs6qhVEmoZJ2z_10async_nats6clientNtB9_6Client5flush0s_0CsWLjOOar9jQ_9jwt_tests
FNDA:3,_RNCNvMs6_NtCs6qhVEmoZJ2z_10async_nats6clientNtB7_6Client5flush0CsWLjOOar9jQ_9jwt_tests
FNDA:1,_RINvMs6_NtCs6qhVEmoZJ2z_10async_nats6clientNtB6_6Client9subscribeReECs98b7hshCa6M_8kv_tests
FNDA:1,_RNCINvMs6_NtCs6qhVEmoZJ2z_10async_nats6clientNtB8_6Client9subscribeReE0Cs98b7hshCa6M_8kv_tests
FNDA:0,_RNCNCNvMs6_NtCs6qhVEmoZJ2z_10async_nats6clientNtB9_6Client5flush00Cs98b7hshCa6M_8kv_tests
FNDA:0,_RNCNCNvMs6_NtCs6qhVEmoZJ2z_10async_nats6clientNtB9_6Client5flush0s_0Cs98b7hshCa6M_8kv_tests
FNDA:1,_RNCNvMs6_NtCs6qhVEmoZJ2z_10async_nats6clientNtB7_6Client5flush0Cs98b7hshCa6M_8kv_tests
FNDA:5,_RINvMs6_NtCs6qhVEmoZJ2z_10async_nats6clientNtB6_6Client7publishReECslYd6v58rjWA_10nkey_tests
FNDA:1,_RINvMs6_NtCs6qhVEmoZJ2z_10async_nats6clientNtB6_6Client9subscribeReECslYd6v58rjWA_10nkey_tests
FNDA:5,_RNCINvMs6_NtCs6qhVEmoZJ2z_10async_nats6clientNtB8_6Client7publishReE0CslYd6v58rjWA_10nkey_tests
FNDA:1,_RNCINvMs6_NtCs6qhVEmoZJ2z_10async_nats6clientNtB8_6Client9subscribeReE0CslYd6v58rjWA_10nkey_tests
FNDA:0,_RNCNCNvMs6_NtCs6qhVEmoZJ2z_10async_nats6clientNtB9_6Client5flush00CslYd6v58rjWA_10nkey_tests
FNDA:0,_RNCNCNvMs6_NtCs6qhVEmoZJ2z_10async_nats6clientNtB9_6Client5flush0s_0CslYd6v58rjWA_10nkey_tests
FNDA:3,_RNCNvMs6_NtCs6qhVEmoZJ2z_10async_nats6clientNtB7_6Client5flush0CslYd6v58rjWA_10nkey_tests
FNDA:17,_RINvMs6_NtCs6qhVEmoZJ2z_10async_nats6clientNtB6_6Client15queue_subscribeNtNtCs1AhsD0INetT_5alloc6string6StringECscGYhHI872CP_13service_tests
FNDA:11,_RINvMs6_NtCs6qhVEmoZJ2z_10async_nats6clientNtB6_6Client18publish_with_replyReNtNtCs1AhsD0INetT_5alloc6string6StringECscGYhHI872CP_13service_tests
FNDA:1,_RINvMs6_NtCs6qhVEmoZJ2z_10async_nats6clientNtB6_6Client20publish_with_headersNtNtB8_7subject7SubjectECscGYhHI872CP_13service_tests
FNDA:1,_RINvMs6_NtCs6qhVEmoZJ2z_10async_nats6clientNtB6_6Client7publishReECscGYhHI872CP_13service_tests
FNDA:5,_RINvMs6_NtCs6qhVEmoZJ2z_10async_nats6clientNtB6_6Client7requestReECscGYhHI872CP_13service_tests
FNDA:17,_RNCINvMs6_NtCs6qhVEmoZJ2z_10async_nats6clientNtB8_6Client15queue_subscribeNtNtCs1AhsD0INetT_5alloc6string6StringE0CscGYhHI872CP_13service_tests
FNDA:11,_RNCINvMs6_NtCs6qhVEmoZJ2z_10async_nats6clientNtB8_6Client18publish_with_replyReNtNtCs1AhsD0INetT_5alloc6string6StringE0CscGYhHI872CP_13service_tests
FNDA:1,_RNCINvMs6_NtCs6qhVEmoZJ2z_10async_nats6clientNtB8_6Client20publish_with_headersNtNtBa_7subject7SubjectE0CscGYhHI872CP_13service_tests
FNDA:1,_RNCINvMs6_NtCs6qhVEmoZJ2z_10async_nats6clientNtB8_6Client7publishReE0CscGYhHI872CP_13service_tests
FNDA:5,_RNCINvMs6_NtCs6qhVEmoZJ2z_10async_nats6clientNtB8_6Client7requestReE0CscGYhHI872CP_13service_tests
FNDA:0,_RNCNCNvMs6_NtCs6qhVEmoZJ2z_10async_nats6clientNtB9_6Client5flush00CscGYhHI872CP_13service_tests
FNDA:0,_RNCNCNvMs6_NtCs6qhVEmoZJ2z_10async_nats6clientNtB9_6Client5flush0s_0CscGYhHI872CP_13service_tests
FNDA:1,_RNCNvMs6_NtCs6qhVEmoZJ2z_10async_nats6clientNtB7_6Client5flush0CscGYhHI872CP_13service_tests
FNDA:2,_RINvMs6_NtCs6qhVEmoZJ2z_10async_nats6clientNtB6_6Client7publishReECs2VP52EYB5HS_9tls_tests
FNDA:2,_RINvMs6_NtCs6qhVEmoZJ2z_10async_nats6clientNtB6_6Client9subscribeReECs2VP52EYB5HS_9tls_tests
FNDA:2,_RNCINvMs6_NtCs6qhVEmoZJ2z_10async_nats6clientNtB8_6Client7publishReE0Cs2VP52EYB5HS_9tls_tests
FNDA:2,_RNCINvMs6_NtCs6qhVEmoZJ2z_10async_nats6clientNtB8_6Client9subscribeReE0Cs2VP52EYB5HS_9tls_tests
FNDA:0,_RNCNCNvMs6_NtCs6qhVEmoZJ2z_10async_nats6clientNtB9_6Client5flush00Cs2VP52EYB5HS_9tls_tests
FNDA:0,_RNCNCNvMs6_NtCs6qhVEmoZJ2z_10async_nats6clientNtB9_6Client5flush0s_0Cs2VP52EYB5HS_9tls_tests
FNDA:1,_RNCNvMs6_NtCs6qhVEmoZJ2z_10async_nats6clientNtB7_6Client5flush0Cs2VP52EYB5HS_9tls_tests
FNF:65
FNH:32
DA:41,0
DA:48,1
DA:49,1
DA:50,1
DA:54,0
DA:55,0
DA:56,0
DA:67,0
DA:68,0
DA:69,0
DA:70,0
DA:71,0
DA:73,0
DA:134,0
DA:135,0
DA:136,0
DA:137,0
DA:138,0
DA:139,0
DA:140,0
DA:144,0
DA:145,0
DA:146,0
DA:150,0
DA:151,0
DA:152,0
DA:153,0
DA:154,0
DA:155,0
DA:156,0
DA:157,0
DA:159,0
DA:160,0
DA:161,0
DA:162,0
DA:163,0
DA:164,0
DA:168,0
DA:169,0
DA:170,0
DA:171,0
DA:172,0
DA:173,0
DA:179,0
DA:180,0
DA:181,0
DA:183,0
DA:184,0
DA:185,0
DA:186,0
DA:187,0
DA:189,0
DA:190,0
DA:191,0
DA:193,0
DA:194,0
DA:195,0
DA:200,205
DA:201,205
DA:202,205
DA:203,205
DA:204,205
DA:205,205
DA:206,205
DA:207,205
DA:208,205
DA:209,205
DA:210,205
DA:211,205
DA:212,205
DA:213,205
DA:214,205
DA:215,205
DA:216,205
DA:217,205
DA:218,205
DA:219,205
DA:220,205
DA:221,205
DA:222,205
DA:223,205
DA:236,3
DA:237,3
DA:238,3
DA:252,2
DA:254,2
DA:255,2
DA:273,0
DA:274,0
DA:276,0
DA:277,0
DA:278,0
DA:281,0
DA:282,0
DA:283,0
DA:284,0
DA:286,0
DA:287,0
DA:288,0
DA:289,0
DA:291,0
DA:292,0
DA:293,0
DA:294,0
DA:296,0
DA:297,0
DA:298,0
DA:300,0
DA:301,0
DA:302,0
DA:303,0
DA:316,4848
DA:317,4848
DA:318,4848
DA:319,4848
DA:320,4848
DA:321,4848
DA:322,4848
DA:323,4848
DA:324,1
DA:325,1
DA:326,1
DA:327,1
DA:328,1
DA:329,1
DA:330,1
DA:331,1
DA:332,4847
DA:334,4847
DA:335,4847
DA:336,4847
DA:337,4847
DA:338,4847
DA:339,4847
DA:340,4847
DA:341,4847
DA:342,4846
DA:343,4848
DA:364,3
DA:365,3
DA:366,3
DA:367,3
DA:368,3
DA:369,3
DA:370,3
DA:372,3
DA:373,3
DA:374,3
DA:375,3
DA:376,3
DA:377,3
DA:378,3
DA:379,3
DA:380,3
DA:381,3
DA:399,379
DA:400,379
DA:401,379
DA:402,379
DA:403,379
DA:404,379
DA:405,379
DA:406,379
DA:408,379
DA:409,379
DA:410,379
DA:411,379
DA:412,379
DA:413,379
DA:414,379
DA:415,379
DA:416,379
DA:417,379
DA:437,0
DA:438,0
DA:439,0
DA:440,0
DA:441,0
DA:442,0
DA:443,0
DA:444,0
DA:445,0
DA:447,0
DA:448,0
DA:449,0
DA:450,0
DA:451,0
DA:452,0
DA:453,0
DA:454,0
DA:455,0
DA:456,0
DA:469,2517
DA:470,2517
DA:471,2517
DA:472,2517
DA:473,2517
DA:474,2517
DA:476,2517
DA:477,0
DA:478,0
DA:479,0
DA:481,2517
DA:482,2517
DA:483,2515
DA:500,0
DA:501,0
DA:502,0
DA:503,0
DA:504,0
DA:505,0
DA:506,0
DA:508,0
DA:509,0
DA:510,0
DA:525,2518
DA:526,2518
DA:527,2518
DA:528,2518
DA:529,2518
DA:530,2518
DA:532,2518
DA:533,1
DA:534,1
DA:535,1
DA:536,1
DA:537,0
DA:538,0
DA:539,0
DA:541,1
DA:543,1
DA:544,1
DA:545,1
DA:546,1
DA:547,1
DA:549,0
DA:551,1
DA:552,1
DA:553,1
DA:554,0
DA:555,0
DA:556,0
DA:557,0
DA:558,1
DA:559,1
DA:561,0
DA:562,0
DA:563,0
DA:564,0
DA:567,2517
DA:569,2517
DA:570,2517
DA:571,2517
DA:573,2517
DA:574,2517
DA:575,2517
DA:576,2517
DA:577,2517
DA:578,2517
DA:579,2517
DA:580,2517
DA:581,2517
DA:582,2517
DA:584,2517
DA:585,2517
DA:586,2517
DA:587,2517
DA:588,2517
DA:589,2517
DA:591,0
DA:594,2512
DA:595,2512
DA:596,2512
DA:597,2
DA:598,2
DA:599,2
DA:600,2
DA:601,2510
DA:602,2510
DA:604,0
DA:607,2516
DA:622,342409
DA:623,342409
DA:624,342409
DA:642,336
DA:643,336
DA:644,336
DA:645,336
DA:647,336
DA:648,336
DA:649,336
DA:650,336
DA:651,336
DA:652,336
DA:653,336
DA:654,336
DA:656,335
DA:657,336
DA:675,22
DA:676,22
DA:677,22
DA:678,22
DA:679,22
DA:680,22
DA:682,22
DA:683,22
DA:685,22
DA:686,22
DA:687,22
DA:688,22
DA:689,22
DA:690,22
DA:691,22
DA:692,22
DA:694,22
DA:695,22
DA:709,219
DA:710,219
DA:711,219
DA:712,219
DA:713,219
DA:714,219
DA:716,219
DA:717,218
DA:718,218
DA:719,218
DA:746,1
DA:748,1
DA:751,1
DA:752,1
DA:765,7
DA:766,7
DA:767,7
DA:785,2
DA:786,2
DA:787,2
DA:788,2
DA:789,2
DA:790,2
DA:808,1
DA:809,1
DA:810,1
DA:823,2518
DA:824,2518
DA:825,2518
DA:839,2517
DA:840,2517
DA:841,2517
DA:842,2517
DA:864,0
DA:865,0
DA:866,0
DA:867,0
DA:885,0
DA:886,0
DA:887,0
DA:888,0
DA:905,1
DA:906,1
DA:907,1
DA:908,1
DA:916,0
DA:917,0
DA:918,0
DA:926,1
DA:927,1
DA:928,1
DA:936,0
DA:937,0
DA:938,0
DA:953,0
DA:954,0
DA:955,0
DA:956,0
DA:957,0
DA:959,0
DA:967,0
DA:968,0
DA:969,0
DA:973,0
DA:974,0
DA:975,0
DA:989,0
DA:990,0
DA:991,0
DA:992,0
DA:994,0
BRF:0
BRH:0
LF:408
LH:228
end_of_record
SF:/Users/tomaszpietrek/coding/nats.rs/async-nats/src/connection.rs
FN:77,_RNvXs_NtCs1hbFQVFAImq_10async_nats10connectionNtB4_5StateNtNtCs2CqrNpCrSUr_4core3fmt7Display3fmt
FN:751,_RNvMs0_NtCs1hbFQVFAImq_10async_nats10connectionNtB5_10Connection10poll_flush
FN:611,_RNvMs0_NtCs1hbFQVFAImq_10async_nats10connectionNtB5_10Connection10poll_write
FN:733,_RNvMs0_NtCs1hbFQVFAImq_10async_nats10connectionNtB5_10Connection11small_write
FN:135,_RNvMs0_NtCs1hbFQVFAImq_10async_nats10connectionNtB5_10Connection11try_read_op
FN:437,_RNvMs0_NtCs1hbFQVFAImq_10async_nats10connectionNtB5_10Connection12poll_read_op
FN:122,_RNvMs0_NtCs1hbFQVFAImq_10async_nats10connectionNtB5_10Connection12should_flush
FN:489,_RNvMs0_NtCs1hbFQVFAImq_10async_nats10connectionNtB5_10Connection16enqueue_write_op
FN:117,_RNvMs0_NtCs1hbFQVFAImq_10async_nats10connectionNtB5_10Connection17is_write_buf_full
FN:660,_RNvMs0_NtCs1hbFQVFAImq_10async_nats10connectionNtB5_10Connection19poll_write_vectored
FN:622,_RNvMs0_NtCs1hbFQVFAImq_10async_nats10connectionNtB5_10Connection21poll_write_sequential
FN:100,_RNvMs0_NtCs1hbFQVFAImq_10async_nats10connectionNtB5_10Connection3new
FN:430,_RNvMs0_NtCs1hbFQVFAImq_10async_nats10connectionNtB5_10Connection7read_op
FN:739,_RNvXNvMs0_NtCs1hbFQVFAImq_10async_nats10connectionNtB8_10Connection11small_writeNtB2_6WriterNtNtCs2CqrNpCrSUr_4core3fmt5Write9write_str
FN:872,_RNCNvNtNtCs1hbFQVFAImq_10async_nats10connection7read_ops_2ok0B7_
FN:902,_RNCNvNtNtCs1hbFQVFAImq_10async_nats10connection7read_ops_4info0B7_
FN:882,_RNCNvNtNtCs1hbFQVFAImq_10async_nats10connection7read_ops_4ping0B7_
FN:892,_RNCNvNtNtCs1hbFQVFAImq_10async_nats10connection7read_ops_4pong0B7_
FN:945,_RNCNvNtNtCs1hbFQVFAImq_10async_nats10connection7read_ops_5error0B7_
FN:967,_RNCNvNtNtCs1hbFQVFAImq_10async_nats10connection7read_ops_7message0B7_
FN:1114,_RNCNvNtNtCs1hbFQVFAImq_10async_nats10connection7read_ops_7unknown0B7_
FN:1281,_RNvNtNtCs1hbFQVFAImq_10async_nats10connection8write_ops_11unsubscribe
FN:1312,_RNvNtNtCs1hbFQVFAImq_10async_nats10connection8write_ops_4ping
FN:1330,_RNvNtNtCs1hbFQVFAImq_10async_nats10connection8write_ops_4pong
FN:1348,_RNvNtNtCs1hbFQVFAImq_10async_nats10connection8write_ops_7connect
FN:1173,_RNvNtNtCs1hbFQVFAImq_10async_nats10connection8write_ops_7publish
FN:1242,_RNvNtNtCs1hbFQVFAImq_10async_nats10connection8write_ops_9subscribe
FN:1281,_RNCNvNtNtCs1hbFQVFAImq_10async_nats10connection8write_ops_11unsubscribe0B7_
FN:1312,_RNCNvNtNtCs1hbFQVFAImq_10async_nats10connection8write_ops_4ping0B7_
FN:1330,_RNCNvNtNtCs1hbFQVFAImq_10async_nats10connection8write_ops_4pong0B7_
FN:1348,_RNCNvNtNtCs1hbFQVFAImq_10async_nats10connection8write_ops_7connect0B7_
FN:1173,_RNCNvNtNtCs1hbFQVFAImq_10async_nats10connection8write_ops_7publish0B7_
FN:1242,_RNCNvNtNtCs1hbFQVFAImq_10async_nats10connection8write_ops_9subscribe0B7_
FN:475,_RINvMs0_NtCs1hbFQVFAImq_10async_nats10connectionNtB6_10Connection20easy_write_and_flushINtNtNtCs2CqrNpCrSUr_4core5slice4iter4IterNtB8_8ClientOpEEB8_
FN:713,_RINvMs0_NtCs1hbFQVFAImq_10async_nats10connectionNtB6_10Connection5writeINtNtCs1AhsD0INetT_5alloc3vec3VechEEB8_
FN:713,_RINvMs0_NtCs1hbFQVFAImq_10async_nats10connectionNtB6_10Connection5writeNtNtCshJFY2uGOsR_5bytes5bytes5BytesEB8_
FN:713,_RINvMs0_NtCs1hbFQVFAImq_10async_nats10connectionNtB6_10Connection5writeReEB8_
FN:478,_RNCINvMs0_NtCs1hbFQVFAImq_10async_nats10connectionNtB8_10Connection20easy_write_and_flushINtNtNtCs2CqrNpCrSUr_4core5slice4iter4IterNtBa_8ClientOpEE0Ba_
FN:483,_RNCNCINvMs0_NtCs1hbFQVFAImq_10async_nats10connectionNtBa_10Connection20easy_write_and_flushINtNtNtCs2CqrNpCrSUr_4core5slice4iter4IterNtBc_8ClientOpEE00Bc_
FN:484,_RNCNCINvMs0_NtCs1hbFQVFAImq_10async_nats10connectionNtBa_10Connection20easy_write_and_flushINtNtNtCs2CqrNpCrSUr_4core5slice4iter4IterNtBc_8ClientOpEE0s_0Bc_
FN:161,_RNCNvMs0_NtCs1hbFQVFAImq_10async_nats10connectionNtB7_10Connection11try_read_op0B9_
FN:181,_RNCNvMs0_NtCs1hbFQVFAImq_10async_nats10connectionNtB7_10Connection11try_read_ops0_0B9_
FN:207,_RNCNvMs0_NtCs1hbFQVFAImq_10async_nats10connectionNtB7_10Connection11try_read_ops1_0B9_
FN:212,_RNCNvMs0_NtCs1hbFQVFAImq_10async_nats10connectionNtB7_10Connection11try_read_ops2_0B9_
FN:221,_RNCNvMs0_NtCs1hbFQVFAImq_10async_nats10connectionNtB7_10Connection11try_read_ops3_0B9_
FN:254,_RNCNvMs0_NtCs1hbFQVFAImq_10async_nats10connectionNtB7_10Connection11try_read_ops4_0B9_
FN:288,_RNCNvMs0_NtCs1hbFQVFAImq_10async_nats10connectionNtB7_10Connection11try_read_ops5_0B9_
FN:299,_RNCNvMs0_NtCs1hbFQVFAImq_10async_nats10connectionNtB7_10Connection11try_read_ops6_0B9_
FN:308,_RNCNvMs0_NtCs1hbFQVFAImq_10async_nats10connectionNtB7_10Connection11try_read_ops7_0B9_
FN:333,_RNCNvMs0_NtCs1hbFQVFAImq_10async_nats10connectionNtB7_10Connection11try_read_ops8_0B9_
FN:338,_RNCNvMs0_NtCs1hbFQVFAImq_10async_nats10connectionNtB7_10Connection11try_read_ops9_0B9_
FN:172,_RNCNvMs0_NtCs1hbFQVFAImq_10async_nats10connectionNtB7_10Connection11try_read_ops_0B9_
FN:345,_RNCNvMs0_NtCs1hbFQVFAImq_10async_nats10connectionNtB7_10Connection11try_read_opsa_0B9_
FN:354,_RNCNvMs0_NtCs1hbFQVFAImq_10async_nats10connectionNtB7_10Connection11try_read_opsb_0B9_
FN:360,_RNCNvMs0_NtCs1hbFQVFAImq_10async_nats10connectionNtB7_10Connection11try_read_opsc_0B9_
FN:377,_RNCNvMs0_NtCs1hbFQVFAImq_10async_nats10connectionNtB7_10Connection11try_read_opsd_0B9_
FN:382,_RNCNvMs0_NtCs1hbFQVFAImq_10async_nats10connectionNtB7_10Connection11try_read_opse_0B9_
FN:387,_RNCNvMs0_NtCs1hbFQVFAImq_10async_nats10connectionNtB7_10Connection11try_read_opsf_0B9_
FN:407,_RNCNvMs0_NtCs1hbFQVFAImq_10async_nats10connectionNtB7_10Connection11try_read_opsg_0B9_
FN:419,_RNCNvMs0_NtCs1hbFQVFAImq_10async_nats10connectionNtB7_10Connection11try_read_opsh_0B9_
FN:669,_RNCNvMs0_NtCs1hbFQVFAImq_10async_nats10connectionNtB7_10Connection19poll_write_vectored0B9_
FN:431,_RNCNvMs0_NtCs1hbFQVFAImq_10async_nats10connectionNtB7_10Connection7read_op0B9_
FN:872,_RNvNtNtCs1hbFQVFAImq_10async_nats10connection7read_ops_2ok
FN:902,_RNvNtNtCs1hbFQVFAImq_10async_nats10connection7read_ops_4info
FN:882,_RNvNtNtCs1hbFQVFAImq_10async_nats10connection7read_ops_4ping
FN:892,_RNvNtNtCs1hbFQVFAImq_10async_nats10connection7read_ops_4pong
FN:945,_RNvNtNtCs1hbFQVFAImq_10async_nats10connection7read_ops_5error
FN:967,_RNvNtNtCs1hbFQVFAImq_10async_nats10connection7read_ops_7message
FN:1114,_RNvNtNtCs1hbFQVFAImq_10async_nats10connection7read_ops_7unknown
FN:475,_RINvMs0_NtCs6qhVEmoZJ2z_10async_nats10connectionNtB6_10Connection20easy_write_and_flushINtNtNtCs2CqrNpCrSUr_4core5slice4iter4IterNtB8_8ClientOpEECsdpdgC16NPIW_12client_tests
FN:478,_RNCINvMs0_NtCs6qhVEmoZJ2z_10async_nats10connectionNtB8_10Connection20easy_write_and_flushINtNtNtCs2CqrNpCrSUr_4core5slice4iter4IterNtBa_8ClientOpEE0CsdpdgC16NPIW_12client_tests
FN:483,_RNCNCINvMs0_NtCs6qhVEmoZJ2z_10async_nats10connectionNtBa_10Connection20easy_write_and_flushINtNtNtCs2CqrNpCrSUr_4core5slice4iter4IterNtBc_8ClientOpEE00CsdpdgC16NPIW_12client_tests
FN:484,_RNCNCINvMs0_NtCs6qhVEmoZJ2z_10async_nats10connectionNtBa_10Connection20easy_write_and_flushINtNtNtCs2CqrNpCrSUr_4core5slice4iter4IterNtBc_8ClientOpEE0s_0CsdpdgC16NPIW_12client_tests
FN:431,_RNCNvMs0_NtCs6qhVEmoZJ2z_10async_nats10connectionNtB7_10Connection7read_op0CsdpdgC16NPIW_12client_tests
FN:475,_RINvMs0_NtCs6qhVEmoZJ2z_10async_nats10connectionNtB6_10Connection20easy_write_and_flushpEB8_
FN:478,_RNCINvMs0_NtCs6qhVEmoZJ2z_10async_nats10connectionNtB8_10Connection20easy_write_and_flushpE0Ba_
FN:483,_RNCNCINvMs0_NtCs6qhVEmoZJ2z_10async_nats10connectionNtBa_10Connection20easy_write_and_flushpE00Bc_
FN:484,_RNCNCINvMs0_NtCs6qhVEmoZJ2z_10async_nats10connectionNtBa_10Connection20easy_write_and_flushpE0s_0Bc_
FN:431,_RNCNvMs0_NtCs6qhVEmoZJ2z_10async_nats10connectionNtB7_10Connection7read_op0B9_
FN:751,_RNvMs0_NtCs6qhVEmoZJ2z_10async_nats10connectionNtB5_10Connection10poll_flush
FN:611,_RNvMs0_NtCs6qhVEmoZJ2z_10async_nats10connectionNtB5_10Connection10poll_write
FN:733,_RNvMs0_NtCs6qhVEmoZJ2z_10async_nats10connectionNtB5_10Connection11small_write
FN:135,_RNvMs0_NtCs6qhVEmoZJ2z_10async_nats10connectionNtB5_10Connection11try_read_op
FN:437,_RNvMs0_NtCs6qhVEmoZJ2z_10async_nats10connectionNtB5_10Connection12poll_read_op
FN:122,_RNvMs0_NtCs6qhVEmoZJ2z_10async_nats10connectionNtB5_10Connection12should_flush
FN:489,_RNvMs0_NtCs6qhVEmoZJ2z_10async_nats10connectionNtB5_10Connection16enqueue_write_op
FN:117,_RNvMs0_NtCs6qhVEmoZJ2z_10async_nats10connectionNtB5_10Connection17is_write_buf_full
FN:660,_RNvMs0_NtCs6qhVEmoZJ2z_10async_nats10connectionNtB5_10Connection19poll_write_vectored
FN:622,_RNvMs0_NtCs6qhVEmoZJ2z_10async_nats10connectionNtB5_10Connection21poll_write_sequential
FN:100,_RNvMs0_NtCs6qhVEmoZJ2z_10async_nats10connectionNtB5_10Connection3new
FN:430,_RNvMs0_NtCs6qhVEmoZJ2z_10async_nats10connectionNtB5_10Connection7read_op
FN:739,_RNvXNvMs0_NtCs6qhVEmoZJ2z_10async_nats10connectionNtB8_10Connection11small_writeNtB2_6WriterNtNtCs2CqrNpCrSUr_4core3fmt5Write9write_str
FN:77,_RNvXs_NtCs6qhVEmoZJ2z_10async_nats10connectionNtB4_5StateNtNtCs2CqrNpCrSUr_4core3fmt7Display3fmt
FN:713,_RINvMs0_NtCs6qhVEmoZJ2z_10async_nats10connectionNtB6_10Connection5writeINtNtCs1AhsD0INetT_5alloc3vec3VechEEB8_
FN:713,_RINvMs0_NtCs6qhVEmoZJ2z_10async_nats10connectionNtB6_10Connection5writeNtNtCshJFY2uGOsR_5bytes5bytes5BytesEB8_
FN:713,_RINvMs0_NtCs6qhVEmoZJ2z_10async_nats10connectionNtB6_10Connection5writeReEB8_
FN:161,_RNCNvMs0_NtCs6qhVEmoZJ2z_10async_nats10connectionNtB7_10Connection11try_read_op0B9_
FN:181,_RNCNvMs0_NtCs6qhVEmoZJ2z_10async_nats10connectionNtB7_10Connection11try_read_ops0_0B9_
FN:207,_RNCNvMs0_NtCs6qhVEmoZJ2z_10async_nats10connectionNtB7_10Connection11try_read_ops1_0B9_
FN:212,_RNCNvMs0_NtCs6qhVEmoZJ2z_10async_nats10connectionNtB7_10Connection11try_read_ops2_0B9_
FN:221,_RNCNvMs0_NtCs6qhVEmoZJ2z_10async_nats10connectionNtB7_10Connection11try_read_ops3_0B9_
FN:254,_RNCNvMs0_NtCs6qhVEmoZJ2z_10async_nats10connectionNtB7_10Connection11try_read_ops4_0B9_
FN:288,_RNCNvMs0_NtCs6qhVEmoZJ2z_10async_nats10connectionNtB7_10Connection11try_read_ops5_0B9_
FN:299,_RNCNvMs0_NtCs6qhVEmoZJ2z_10async_nats10connectionNtB7_10Connection11try_read_ops6_0B9_
FN:308,_RNCNvMs0_NtCs6qhVEmoZJ2z_10async_nats10connectionNtB7_10Connection11try_read_ops7_0B9_
FN:333,_RNCNvMs0_NtCs6qhVEmoZJ2z_10async_nats10connectionNtB7_10Connection11try_read_ops8_0B9_
FN:338,_RNCNvMs0_NtCs6qhVEmoZJ2z_10async_nats10connectionNtB7_10Connection11try_read_ops9_0B9_
FN:172,_RNCNvMs0_NtCs6qhVEmoZJ2z_10async_nats10connectionNtB7_10Connection11try_read_ops_0B9_
FN:345,_RNCNvMs0_NtCs6qhVEmoZJ2z_10async_nats10connectionNtB7_10Connection11try_read_opsa_0B9_
FN:354,_RNCNvMs0_NtCs6qhVEmoZJ2z_10async_nats10connectionNtB7_10Connection11try_read_opsb_0B9_
FN:360,_RNCNvMs0_NtCs6qhVEmoZJ2z_10async_nats10connectionNtB7_10Connection11try_read_opsc_0B9_
FN:377,_RNCNvMs0_NtCs6qhVEmoZJ2z_10async_nats10connectionNtB7_10Connection11try_read_opsd_0B9_
FN:382,_RNCNvMs0_NtCs6qhVEmoZJ2z_10async_nats10connectionNtB7_10Connection11try_read_opse_0B9_
FN:387,_RNCNvMs0_NtCs6qhVEmoZJ2z_10async_nats10connectionNtB7_10Connection11try_read_opsf_0B9_
FN:407,_RNCNvMs0_NtCs6qhVEmoZJ2z_10async_nats10connectionNtB7_10Connection11try_read_opsg_0B9_
FN:419,_RNCNvMs0_NtCs6qhVEmoZJ2z_10async_nats10connectionNtB7_10Connection11try_read_opsh_0B9_
FN:669,_RNCNvMs0_NtCs6qhVEmoZJ2z_10async_nats10connectionNtB7_10Connection19poll_write_vectored0B9_
FN:475,_RINvMs0_NtCs6qhVEmoZJ2z_10async_nats10connectionNtB6_10Connection20easy_write_and_flushINtNtNtCs2CqrNpCrSUr_4core5slice4iter4IterNtB8_8ClientOpEECsbhX8fe0itkR_15jetstream_tests
FN:478,_RNCINvMs0_NtCs6qhVEmoZJ2z_10async_nats10connectionNtB8_10Connection20easy_write_and_flushINtNtNtCs2CqrNpCrSUr_4core5slice4iter4IterNtBa_8ClientOpEE0CsbhX8fe0itkR_15jetstream_tests
FN:483,_RNCNCINvMs0_NtCs6qhVEmoZJ2z_10async_nats10connectionNtBa_10Connection20easy_write_and_flushINtNtNtCs2CqrNpCrSUr_4core5slice4iter4IterNtBc_8ClientOpEE00CsbhX8fe0itkR_15jetstream_tests
FN:484,_RNCNCINvMs0_NtCs6qhVEmoZJ2z_10async_nats10connectionNtBa_10Connection20easy_write_and_flushINtNtNtCs2CqrNpCrSUr_4core5slice4iter4IterNtBc_8ClientOpEE0s_0CsbhX8fe0itkR_15jetstream_tests
FN:431,_RNCNvMs0_NtCs6qhVEmoZJ2z_10async_nats10connectionNtB7_10Connection7read_op0CsbhX8fe0itkR_15jetstream_tests
FN:475,_RINvMs0_NtCs6qhVEmoZJ2z_10async_nats10connectionNtB6_10Connection20easy_write_and_flushINtNtNtCs2CqrNpCrSUr_4core5slice4iter4IterNtB8_8ClientOpEECsWLjOOar9jQ_9jwt_tests
FN:478,_RNCINvMs0_NtCs6qhVEmoZJ2z_10async_nats10connectionNtB8_10Connection20easy_write_and_flushINtNtNtCs2CqrNpCrSUr_4core5slice4iter4IterNtBa_8ClientOpEE0CsWLjOOar9jQ_9jwt_tests
FN:483,_RNCNCINvMs0_NtCs6qhVEmoZJ2z_10async_nats10connectionNtBa_10Connection20easy_write_and_flushINtNtNtCs2CqrNpCrSUr_4core5slice4iter4IterNtBc_8ClientOpEE00CsWLjOOar9jQ_9jwt_tests
FN:484,_RNCNCINvMs0_NtCs6qhVEmoZJ2z_10async_nats10connectionNtBa_10Connection20easy_write_and_flushINtNtNtCs2CqrNpCrSUr_4core5slice4iter4IterNtBc_8ClientOpEE0s_0CsWLjOOar9jQ_9jwt_tests
FN:431,_RNCNvMs0_NtCs6qhVEmoZJ2z_10async_nats10connectionNtB7_10Connection7read_op0CsWLjOOar9jQ_9jwt_tests
FN:475,_RINvMs0_NtCs6qhVEmoZJ2z_10async_nats10connectionNtB6_10Connection20easy_write_and_flushINtNtNtCs2CqrNpCrSUr_4core5slice4iter4IterNtB8_8ClientOpEECs98b7hshCa6M_8kv_tests
FN:478,_RNCINvMs0_NtCs6qhVEmoZJ2z_10async_nats10connectionNtB8_10Connection20easy_write_and_flushINtNtNtCs2CqrNpCrSUr_4core5slice4iter4IterNtBa_8ClientOpEE0Cs98b7hshCa6M_8kv_tests
FN:483,_RNCNCINvMs0_NtCs6qhVEmoZJ2z_10async_nats10connectionNtBa_10Connection20easy_write_and_flushINtNtNtCs2CqrNpCrSUr_4core5slice4iter4IterNtBc_8ClientOpEE00Cs98b7hshCa6M_8kv_tests
FN:484,_RNCNCINvMs0_NtCs6qhVEmoZJ2z_10async_nats10connectionNtBa_10Connection20easy_write_and_flushINtNtNtCs2CqrNpCrSUr_4core5slice4iter4IterNtBc_8ClientOpEE0s_0Cs98b7hshCa6M_8kv_tests
FN:431,_RNCNvMs0_NtCs6qhVEmoZJ2z_10async_nats10connectionNtB7_10Connection7read_op0Cs98b7hshCa6M_8kv_tests
FN:475,_RINvMs0_NtCs6qhVEmoZJ2z_10async_nats10connectionNtB6_10Connection20easy_write_and_flushINtNtNtCs2CqrNpCrSUr_4core5slice4iter4IterNtB8_8ClientOpEECslYd6v58rjWA_10nkey_tests
FN:478,_RNCINvMs0_NtCs6qhVEmoZJ2z_10async_nats10connectionNtB8_10Connection20easy_write_and_flushINtNtNtCs2CqrNpCrSUr_4core5slice4iter4IterNtBa_8ClientOpEE0CslYd6v58rjWA_10nkey_tests
FN:483,_RNCNCINvMs0_NtCs6qhVEmoZJ2z_10async_nats10connectionNtBa_10Connection20easy_write_and_flushINtNtNtCs2CqrNpCrSUr_4core5slice4iter4IterNtBc_8ClientOpEE00CslYd6v58rjWA_10nkey_tests
FN:484,_RNCNCINvMs0_NtCs6qhVEmoZJ2z_10async_nats10connectionNtBa_10Connection20easy_write_and_flushINtNtNtCs2CqrNpCrSUr_4core5slice4iter4IterNtBc_8ClientOpEE0s_0CslYd6v58rjWA_10nkey_tests
FN:431,_RNCNvMs0_NtCs6qhVEmoZJ2z_10async_nats10connectionNtB7_10Connection7read_op0CslYd6v58rjWA_10nkey_tests
FN:475,_RINvMs0_NtCs6qhVEmoZJ2z_10async_nats10connectionNtB6_10Connection20easy_write_and_flushINtNtNtCs2CqrNpCrSUr_4core5slice4iter4IterNtB8_8ClientOpEECsesyn6ELQ2kp_12object_store
FN:478,_RNCINvMs0_NtCs6qhVEmoZJ2z_10async_nats10connectionNtB8_10Connection20easy_write_and_flushINtNtNtCs2CqrNpCrSUr_4core5slice4iter4IterNtBa_8ClientOpEE0Csesyn6ELQ2kp_12object_store
FN:483,_RNCNCINvMs0_NtCs6qhVEmoZJ2z_10async_nats10connectionNtBa_10Connection20easy_write_and_flushINtNtNtCs2CqrNpCrSUr_4core5slice4iter4IterNtBc_8ClientOpEE00Csesyn6ELQ2kp_12object_store
FN:484,_RNCNCINvMs0_NtCs6qhVEmoZJ2z_10async_nats10connectionNtBa_10Connection20easy_write_and_flushINtNtNtCs2CqrNpCrSUr_4core5slice4iter4IterNtBc_8ClientOpEE0s_0Csesyn6ELQ2kp_12object_store
FN:431,_RNCNvMs0_NtCs6qhVEmoZJ2z_10async_nats10connectionNtB7_10Connection7read_op0Csesyn6ELQ2kp_12object_store
FN:475,_RINvMs0_NtCs6qhVEmoZJ2z_10async_nats10connectionNtB6_10Connection20easy_write_and_flushINtNtNtCs2CqrNpCrSUr_4core5slice4iter4IterNtB8_8ClientOpEECscGYhHI872CP_13service_tests
FN:478,_RNCINvMs0_NtCs6qhVEmoZJ2z_10async_nats10connectionNtB8_10Connection20easy_write_and_flushINtNtNtCs2CqrNpCrSUr_4core5slice4iter4IterNtBa_8ClientOpEE0CscGYhHI872CP_13service_tests
FN:483,_RNCNCINvMs0_NtCs6qhVEmoZJ2z_10async_nats10connectionNtBa_10Connection20easy_write_and_flushINtNtNtCs2CqrNpCrSUr_4core5slice4iter4IterNtBc_8ClientOpEE00CscGYhHI872CP_13service_tests
FN:484,_RNCNCINvMs0_NtCs6qhVEmoZJ2z_10async_nats10connectionNtBa_10Connection20easy_write_and_flushINtNtNtCs2CqrNpCrSUr_4core5slice4iter4IterNtBc_8ClientOpEE0s_0CscGYhHI872CP_13service_tests
FN:431,_RNCNvMs0_NtCs6qhVEmoZJ2z_10async_nats10connectionNtB7_10Connection7read_op0CscGYhHI872CP_13service_tests
FN:475,_RINvMs0_NtCs6qhVEmoZJ2z_10async_nats10connectionNtB6_10Connection20easy_write_and_flushINtNtNtCs2CqrNpCrSUr_4core5slice4iter4IterNtB8_8ClientOpEECs2VP52EYB5HS_9tls_tests
FN:478,_RNCINvMs0_NtCs6qhVEmoZJ2z_10async_nats10connectionNtB8_10Connection20easy_write_and_flushINtNtNtCs2CqrNpCrSUr_4core5slice4iter4IterNtBa_8ClientOpEE0Cs2VP52EYB5HS_9tls_tests
FN:483,_RNCNCINvMs0_NtCs6qhVEmoZJ2z_10async_nats10connectionNtBa_10Connection20easy_write_and_flushINtNtNtCs2CqrNpCrSUr_4core5slice4iter4IterNtBc_8ClientOpEE00Cs2VP52EYB5HS_9tls_tests
FN:484,_RNCNCINvMs0_NtCs6qhVEmoZJ2z_10async_nats10connectionNtBa_10Connection20easy_write_and_flushINtNtNtCs2CqrNpCrSUr_4core5slice4iter4IterNtBc_8ClientOpEE0s_0Cs2VP52EYB5HS_9tls_tests
FN:431,_RNCNvMs0_NtCs6qhVEmoZJ2z_10async_nats10connectionNtB7_10Connection7read_op0Cs2VP52EYB5HS_9tls_tests
FNDA:0,_RNvXs_NtCs1hbFQVFAImq_10async_nats10connectionNtB4_5StateNtNtCs2CqrNpCrSUr_4core3fmt7Display3fmt
FNDA:11,_RNvMs0_NtCs1hbFQVFAImq_10async_nats10connectionNtB5_10Connection10poll_flush
FNDA:11,_RNvMs0_NtCs1hbFQVFAImq_10async_nats10connectionNtB5_10Connection10poll_write
FNDA:12,_RNvMs0_NtCs1hbFQVFAImq_10async_nats10connectionNtB5_10Connection11small_write
FNDA:54,_RNvMs0_NtCs1hbFQVFAImq_10async_nats10connectionNtB5_10Connection11try_read_op
FNDA:25,_RNvMs0_NtCs1hbFQVFAImq_10async_nats10connectionNtB5_10Connection12poll_read_op
FNDA:0,_RNvMs0_NtCs1hbFQVFAImq_10async_nats10connectionNtB5_10Connection12should_flush
FNDA:12,_RNvMs0_NtCs1hbFQVFAImq_10async_nats10connectionNtB5_10Connection16enqueue_write_op
FNDA:0,_RNvMs0_NtCs1hbFQVFAImq_10async_nats10connectionNtB5_10Connection17is_write_buf_full
FNDA:11,_RNvMs0_NtCs1hbFQVFAImq_10async_nats10connectionNtB5_10Connection19poll_write_vectored
FNDA:0,_RNvMs0_NtCs1hbFQVFAImq_10async_nats10connectionNtB5_10Connection21poll_write_sequential
FNDA:14,_RNvMs0_NtCs1hbFQVFAImq_10async_nats10connectionNtB5_10Connection3new
FNDA:23,_RNvMs0_NtCs1hbFQVFAImq_10async_nats10connectionNtB5_10Connection7read_op
FNDA:44,_RNvXNvMs0_NtCs1hbFQVFAImq_10async_nats10connectionNtB8_10Connection11small_writeNtB2_6WriterNtNtCs2CqrNpCrSUr_4core3fmt5Write9write_str
FNDA:1,_RNCNvNtNtCs1hbFQVFAImq_10async_nats10connection7read_ops_2ok0B7_
FNDA:1,_RNCNvNtNtCs1hbFQVFAImq_10async_nats10connection7read_ops_4info0B7_
FNDA:1,_RNCNvNtNtCs1hbFQVFAImq_10async_nats10connection7read_ops_4ping0B7_
FNDA:1,_RNCNvNtNtCs1hbFQVFAImq_10async_nats10connection7read_ops_4pong0B7_
FNDA:1,_RNCNvNtNtCs1hbFQVFAImq_10async_nats10connection7read_ops_5error0B7_
FNDA:1,_RNCNvNtNtCs1hbFQVFAImq_10async_nats10connection7read_ops_7message0B7_
FNDA:1,_RNCNvNtNtCs1hbFQVFAImq_10async_nats10connection7read_ops_7unknown0B7_
FNDA:1,_RNvNtNtCs1hbFQVFAImq_10async_nats10connection8write_ops_11unsubscribe
FNDA:1,_RNvNtNtCs1hbFQVFAImq_10async_nats10connection8write_ops_4ping
FNDA:1,_RNvNtNtCs1hbFQVFAImq_10async_nats10connection8write_ops_4pong
FNDA:1,_RNvNtNtCs1hbFQVFAImq_10async_nats10connection8write_ops_7connect
FNDA:1,_RNvNtNtCs1hbFQVFAImq_10async_nats10connection8write_ops_7publish
FNDA:1,_RNvNtNtCs1hbFQVFAImq_10async_nats10connection8write_ops_9subscribe
FNDA:1,_RNCNvNtNtCs1hbFQVFAImq_10async_nats10connection8write_ops_11unsubscribe0B7_
FNDA:1,_RNCNvNtNtCs1hbFQVFAImq_10async_nats10connection8write_ops_4ping0B7_
FNDA:1,_RNCNvNtNtCs1hbFQVFAImq_10async_nats10connection8write_ops_4pong0B7_
FNDA:1,_RNCNvNtNtCs1hbFQVFAImq_10async_nats10connection8write_ops_7connect0B7_
FNDA:1,_RNCNvNtNtCs1hbFQVFAImq_10async_nats10connection8write_ops_7publish0B7_
FNDA:1,_RNCNvNtNtCs1hbFQVFAImq_10async_nats10connection8write_ops_9subscribe0B7_
FNDA:11,_RINvMs0_NtCs1hbFQVFAImq_10async_nats10connectionNtB6_10Connection20easy_write_and_flushINtNtNtCs2CqrNpCrSUr_4core5slice4iter4IterNtB8_8ClientOpEEB8_
FNDA:3,_RINvMs0_NtCs1hbFQVFAImq_10async_nats10connectionNtB6_10Connection5writeINtNtCs1AhsD0INetT_5alloc3vec3VechEEB8_
FNDA:3,_RINvMs0_NtCs1hbFQVFAImq_10async_nats10connectionNtB6_10Connection5writeNtNtCshJFY2uGOsR_5bytes5bytes5BytesEB8_
FNDA:10,_RINvMs0_NtCs1hbFQVFAImq_10async_nats10connectionNtB6_10Connection5writeReEB8_
FNDA:11,_RNCINvMs0_NtCs1hbFQVFAImq_10async_nats10connectionNtB8_10Connection20easy_write_and_flushINtNtNtCs2CqrNpCrSUr_4core5slice4iter4IterNtBa_8ClientOpEE0Ba_
FNDA:11,_RNCNCINvMs0_NtCs1hbFQVFAImq_10async_nats10connectionNtBa_10Connection20easy_write_and_flushINtNtNtCs2CqrNpCrSUr_4core5slice4iter4IterNtBc_8ClientOpEE00Bc_
FNDA:11,_RNCNCINvMs0_NtCs1hbFQVFAImq_10async_nats10connectionNtBa_10Connection20easy_write_and_flushINtNtNtCs2CqrNpCrSUr_4core5slice4iter4IterNtBc_8ClientOpEE0s_0Bc_
FNDA:0,_RNCNvMs0_NtCs1hbFQVFAImq_10async_nats10connectionNtB7_10Connection11try_read_op0B9_
FNDA:14,_RNCNvMs0_NtCs1hbFQVFAImq_10async_nats10connectionNtB7_10Connection11try_read_ops0_0B9_
FNDA:0,_RNCNvMs0_NtCs1hbFQVFAImq_10async_nats10connectionNtB7_10Connection11try_read_ops1_0B9_
FNDA:0,_RNCNvMs0_NtCs1hbFQVFAImq_10async_nats10connectionNtB7_10Connection11try_read_ops2_0B9_
FNDA:1,_RNCNvMs0_NtCs1hbFQVFAImq_10async_nats10connectionNtB7_10Connection11try_read_ops3_0B9_
FNDA:40,_RNCNvMs0_NtCs1hbFQVFAImq_10async_nats10connectionNtB7_10Connection11try_read_ops4_0B9_
FNDA:0,_RNCNvMs0_NtCs1hbFQVFAImq_10async_nats10connectionNtB7_10Connection11try_read_ops5_0B9_
FNDA:0,_RNCNvMs0_NtCs1hbFQVFAImq_10async_nats10connectionNtB7_10Connection11try_read_ops6_0B9_
FNDA:0,_RNCNvMs0_NtCs1hbFQVFAImq_10async_nats10connectionNtB7_10Connection11try_read_ops7_0B9_
FNDA:0,_RNCNvMs0_NtCs1hbFQVFAImq_10async_nats10connectionNtB7_10Connection11try_read_ops8_0B9_
FNDA:0,_RNCNvMs0_NtCs1hbFQVFAImq_10async_nats10connectionNtB7_10Connection11try_read_ops9_0B9_
FNDA:0,_RNCNvMs0_NtCs1hbFQVFAImq_10async_nats10connectionNtB7_10Connection11try_read_ops_0B9_
FNDA:0,_RNCNvMs0_NtCs1hbFQVFAImq_10async_nats10connectionNtB7_10Connection11try_read_opsa_0B9_
FNDA:2,_RNCNvMs0_NtCs1hbFQVFAImq_10async_nats10connectionNtB7_10Connection11try_read_opsb_0B9_
FNDA:0,_RNCNvMs0_NtCs1hbFQVFAImq_10async_nats10connectionNtB7_10Connection11try_read_opsc_0B9_
FNDA:0,_RNCNvMs0_NtCs1hbFQVFAImq_10async_nats10connectionNtB7_10Connection11try_read_opsd_0B9_
FNDA:0,_RNCNvMs0_NtCs1hbFQVFAImq_10async_nats10connectionNtB7_10Connection11try_read_opse_0B9_
FNDA:2,_RNCNvMs0_NtCs1hbFQVFAImq_10async_nats10connectionNtB7_10Connection11try_read_opsf_0B9_
FNDA:4,_RNCNvMs0_NtCs1hbFQVFAImq_10async_nats10connectionNtB7_10Connection11try_read_opsg_0B9_
FNDA:0,_RNCNvMs0_NtCs1hbFQVFAImq_10async_nats10connectionNtB7_10Connection11try_read_opsh_0B9_
FNDA:0,_RNCNvMs0_NtCs1hbFQVFAImq_10async_nats10connectionNtB7_10Connection19poll_write_vectored0B9_
FNDA:25,_RNCNvMs0_NtCs1hbFQVFAImq_10async_nats10connectionNtB7_10Connection7read_op0B9_
FNDA:1,_RNvNtNtCs1hbFQVFAImq_10async_nats10connection7read_ops_2ok
FNDA:1,_RNvNtNtCs1hbFQVFAImq_10async_nats10connection7read_ops_4info
FNDA:1,_RNvNtNtCs1hbFQVFAImq_10async_nats10connection7read_ops_4ping
FNDA:1,_RNvNtNtCs1hbFQVFAImq_10async_nats10connection7read_ops_4pong
FNDA:1,_RNvNtNtCs1hbFQVFAImq_10async_nats10connection7read_ops_5error
FNDA:1,_RNvNtNtCs1hbFQVFAImq_10async_nats10connection7read_ops_7message
FNDA:1,_RNvNtNtCs1hbFQVFAImq_10async_nats10connection7read_ops_7unknown
FNDA:47,_RINvMs0_NtCs6qhVEmoZJ2z_10async_nats10connectionNtB6_10Connection20easy_write_and_flushINtNtNtCs2CqrNpCrSUr_4core5slice4iter4IterNtB8_8ClientOpEECsdpdgC16NPIW_12client_tests
FNDA:47,_RNCINvMs0_NtCs6qhVEmoZJ2z_10async_nats10connectionNtB8_10Connection20easy_write_and_flushINtNtNtCs2CqrNpCrSUr_4core5slice4iter4IterNtBa_8ClientOpEE0CsdpdgC16NPIW_12client_tests
FNDA:47,_RNCNCINvMs0_NtCs6qhVEmoZJ2z_10async_nats10connectionNtBa_10Connection20easy_write_and_flushINtNtNtCs2CqrNpCrSUr_4core5slice4iter4IterNtBc_8ClientOpEE00CsdpdgC16NPIW_12client_tests
FNDA:47,_RNCNCINvMs0_NtCs6qhVEmoZJ2z_10async_nats10connectionNtBa_10Connection20easy_write_and_flushINtNtNtCs2CqrNpCrSUr_4core5slice4iter4IterNtBc_8ClientOpEE0s_0CsdpdgC16NPIW_12client_tests
FNDA:192,_RNCNvMs0_NtCs6qhVEmoZJ2z_10async_nats10connectionNtB7_10Connection7read_op0CsdpdgC16NPIW_12client_tests
FNDA:0,_RINvMs0_NtCs6qhVEmoZJ2z_10async_nats10connectionNtB6_10Connection20easy_write_and_flushpEB8_
FNDA:0,_RNCINvMs0_NtCs6qhVEmoZJ2z_10async_nats10connectionNtB8_10Connection20easy_write_and_flushpE0Ba_
FNDA:0,_RNCNCINvMs0_NtCs6qhVEmoZJ2z_10async_nats10connectionNtBa_10Connection20easy_write_and_flushpE00Bc_
FNDA:0,_RNCNCINvMs0_NtCs6qhVEmoZJ2z_10async_nats10connectionNtBa_10Connection20easy_write_and_flushpE0s_0Bc_
FNDA:0,_RNCNvMs0_NtCs6qhVEmoZJ2z_10async_nats10connectionNtB7_10Connection7read_op0B9_
FNDA:23733,_RNvMs0_NtCs6qhVEmoZJ2z_10async_nats10connectionNtB5_10Connection10poll_flush
FNDA:39890,_RNvMs0_NtCs6qhVEmoZJ2z_10async_nats10connectionNtB5_10Connection10poll_write
FNDA:1038003,_RNvMs0_NtCs6qhVEmoZJ2z_10async_nats10connectionNtB5_10Connection11small_write
FNDA:486914,_RNvMs0_NtCs6qhVEmoZJ2z_10async_nats10connectionNtB5_10Connection11try_read_op
FNDA:451146,_RNvMs0_NtCs6qhVEmoZJ2z_10async_nats10connectionNtB5_10Connection12poll_read_op
FNDA:39679,_RNvMs0_NtCs6qhVEmoZJ2z_10async_nats10connectionNtB5_10Connection12should_flush
FNDA:348480,_RNvMs0_NtCs6qhVEmoZJ2z_10async_nats10connectionNtB5_10Connection16enqueue_write_op
FNDA:116268,_RNvMs0_NtCs6qhVEmoZJ2z_10async_nats10connectionNtB5_10Connection17is_write_buf_full
FNDA:39890,_RNvMs0_NtCs6qhVEmoZJ2z_10async_nats10connectionNtB5_10Connection19poll_write_vectored
FNDA:0,_RNvMs0_NtCs6qhVEmoZJ2z_10async_nats10connectionNtB5_10Connection21poll_write_sequential
FNDA:226,_RNvMs0_NtCs6qhVEmoZJ2z_10async_nats10connectionNtB5_10Connection3new
FNDA:429,_RNvMs0_NtCs6qhVEmoZJ2z_10async_nats10connectionNtB5_10Connection7read_op
FNDA:2772620,_RNvXNvMs0_NtCs6qhVEmoZJ2z_10async_nats10connectionNtB8_10Connection11small_writeNtB2_6WriterNtNtCs2CqrNpCrSUr_4core3fmt5Write9write_str
FNDA:0,_RNvXs_NtCs6qhVEmoZJ2z_10async_nats10connectionNtB4_5StateNtNtCs2CqrNpCrSUr_4core3fmt7Display3fmt
FNDA:294,_RINvMs0_NtCs6qhVEmoZJ2z_10async_nats10connectionNtB6_10Connection5writeINtNtCs1AhsD0INetT_5alloc3vec3VechEEB8_
FNDA:347373,_RINvMs0_NtCs6qhVEmoZJ2z_10async_nats10connectionNtB6_10Connection5writeNtNtCshJFY2uGOsR_5bytes5bytes5BytesEB8_
FNDA:348035,_RINvMs0_NtCs6qhVEmoZJ2z_10async_nats10connectionNtB6_10Connection5writeReEB8_
FNDA:0,_RNCNvMs0_NtCs6qhVEmoZJ2z_10async_nats10connectionNtB7_10Connection11try_read_op0B9_
FNDA:1310992,_RNCNvMs0_NtCs6qhVEmoZJ2z_10async_nats10connectionNtB7_10Connection11try_read_ops0_0B9_
FNDA:0,_RNCNvMs0_NtCs6qhVEmoZJ2z_10async_nats10connectionNtB7_10Connection11try_read_ops1_0B9_
FNDA:0,_RNCNvMs0_NtCs6qhVEmoZJ2z_10async_nats10connectionNtB7_10Connection11try_read_ops2_0B9_
FNDA:67503,_RNCNvMs0_NtCs6qhVEmoZJ2z_10async_nats10connectionNtB7_10Connection11try_read_ops3_0B9_
FNDA:2388,_RNCNvMs0_NtCs6qhVEmoZJ2z_10async_nats10connectionNtB7_10Connection11try_read_ops4_0B9_
FNDA:0,_RNCNvMs0_NtCs6qhVEmoZJ2z_10async_nats10connectionNtB7_10Connection11try_read_ops5_0B9_
FNDA:0,_RNCNvMs0_NtCs6qhVEmoZJ2z_10async_nats10connectionNtB7_10Connection11try_read_ops6_0B9_
FNDA:0,_RNCNvMs0_NtCs6qhVEmoZJ2z_10async_nats10connectionNtB7_10Connection11try_read_ops7_0B9_
FNDA:0,_RNCNvMs0_NtCs6qhVEmoZJ2z_10async_nats10connectionNtB7_10Connection11try_read_ops8_0B9_
FNDA:0,_RNCNvMs0_NtCs6qhVEmoZJ2z_10async_nats10connectionNtB7_10Connection11try_read_ops9_0B9_
FNDA:0,_RNCNvMs0_NtCs6qhVEmoZJ2z_10async_nats10connectionNtB7_10Connection11try_read_ops_0B9_
FNDA:0,_RNCNvMs0_NtCs6qhVEmoZJ2z_10async_nats10connectionNtB7_10Connection11try_read_opsa_0B9_
FNDA:380,_RNCNvMs0_NtCs6qhVEmoZJ2z_10async_nats10connectionNtB7_10Connection11try_read_opsb_0B9_
FNDA:0,_RNCNvMs0_NtCs6qhVEmoZJ2z_10async_nats10connectionNtB7_10Connection11try_read_opsc_0B9_
FNDA:0,_RNCNvMs0_NtCs6qhVEmoZJ2z_10async_nats10connectionNtB7_10Connection11try_read_opsd_0B9_
FNDA:0,_RNCNvMs0_NtCs6qhVEmoZJ2z_10async_nats10connectionNtB7_10Connection11try_read_opse_0B9_
FNDA:1419,_RNCNvMs0_NtCs6qhVEmoZJ2z_10async_nats10connectionNtB7_10Connection11try_read_opsf_0B9_
FNDA:148,_RNCNvMs0_NtCs6qhVEmoZJ2z_10async_nats10connectionNtB7_10Connection11try_read_opsg_0B9_
FNDA:0,_RNCNvMs0_NtCs6qhVEmoZJ2z_10async_nats10connectionNtB7_10Connection11try_read_opsh_0B9_
FNDA:84,_RNCNvMs0_NtCs6qhVEmoZJ2z_10async_nats10connectionNtB7_10Connection19poll_write_vectored0B9_
FNDA:95,_RINvMs0_NtCs6qhVEmoZJ2z_10async_nats10connectionNtB6_10Connection20easy_write_and_flushINtNtNtCs2CqrNpCrSUr_4core5slice4iter4IterNtB8_8ClientOpEECsbhX8fe0itkR_15jetstream_tests
FNDA:95,_RNCINvMs0_NtCs6qhVEmoZJ2z_10async_nats10connectionNtB8_10Connection20easy_write_and_flushINtNtNtCs2CqrNpCrSUr_4core5slice4iter4IterNtBa_8ClientOpEE0CsbhX8fe0itkR_15jetstream_tests
FNDA:95,_RNCNCINvMs0_NtCs6qhVEmoZJ2z_10async_nats10connectionNtBa_10Connection20easy_write_and_flushINtNtNtCs2CqrNpCrSUr_4core5slice4iter4IterNtBc_8ClientOpEE00CsbhX8fe0itkR_15jetstream_tests
FNDA:95,_RNCNCINvMs0_NtCs6qhVEmoZJ2z_10async_nats10connectionNtBa_10Connection20easy_write_and_flushINtNtNtCs2CqrNpCrSUr_4core5slice4iter4IterNtBc_8ClientOpEE0s_0CsbhX8fe0itkR_15jetstream_tests
FNDA:380,_RNCNvMs0_NtCs6qhVEmoZJ2z_10async_nats10connectionNtB7_10Connection7read_op0CsbhX8fe0itkR_15jetstream_tests
FNDA:3,_RINvMs0_NtCs6qhVEmoZJ2z_10async_nats10connectionNtB6_10Connection20easy_write_and_flushINtNtNtCs2CqrNpCrSUr_4core5slice4iter4IterNtB8_8ClientOpEECsWLjOOar9jQ_9jwt_tests
FNDA:3,_RNCINvMs0_NtCs6qhVEmoZJ2z_10async_nats10connectionNtB8_10Connection20easy_write_and_flushINtNtNtCs2CqrNpCrSUr_4core5slice4iter4IterNtBa_8ClientOpEE0CsWLjOOar9jQ_9jwt_tests
FNDA:3,_RNCNCINvMs0_NtCs6qhVEmoZJ2z_10async_nats10connectionNtBa_10Connection20easy_write_and_flushINtNtNtCs2CqrNpCrSUr_4core5slice4iter4IterNtBc_8ClientOpEE00CsWLjOOar9jQ_9jwt_tests
FNDA:3,_RNCNCINvMs0_NtCs6qhVEmoZJ2z_10async_nats10connectionNtBa_10Connection20easy_write_and_flushINtNtNtCs2CqrNpCrSUr_4core5slice4iter4IterNtBc_8ClientOpEE0s_0CsWLjOOar9jQ_9jwt_tests
FNDA:12,_RNCNvMs0_NtCs6qhVEmoZJ2z_10async_nats10connectionNtB7_10Connection7read_op0CsWLjOOar9jQ_9jwt_tests
FNDA:29,_RINvMs0_NtCs6qhVEmoZJ2z_10async_nats10connectionNtB6_10Connection20easy_write_and_flushINtNtNtCs2CqrNpCrSUr_4core5slice4iter4IterNtB8_8ClientOpEECs98b7hshCa6M_8kv_tests
FNDA:29,_RNCINvMs0_NtCs6qhVEmoZJ2z_10async_nats10connectionNtB8_10Connection20easy_write_and_flushINtNtNtCs2CqrNpCrSUr_4core5slice4iter4IterNtBa_8ClientOpEE0Cs98b7hshCa6M_8kv_tests
FNDA:29,_RNCNCINvMs0_NtCs6qhVEmoZJ2z_10async_nats10connectionNtBa_10Connection20easy_write_and_flushINtNtNtCs2CqrNpCrSUr_4core5slice4iter4IterNtBc_8ClientOpEE00Cs98b7hshCa6M_8kv_tests
FNDA:29,_RNCNCINvMs0_NtCs6qhVEmoZJ2z_10async_nats10connectionNtBa_10Connection20easy_write_and_flushINtNtNtCs2CqrNpCrSUr_4core5slice4iter4IterNtBc_8ClientOpEE0s_0Cs98b7hshCa6M_8kv_tests
FNDA:116,_RNCNvMs0_NtCs6qhVEmoZJ2z_10async_nats10connectionNtB7_10Connection7read_op0Cs98b7hshCa6M_8kv_tests
FNDA:4,_RINvMs0_NtCs6qhVEmoZJ2z_10async_nats10connectionNtB6_10Connection20easy_write_and_flushINtNtNtCs2CqrNpCrSUr_4core5slice4iter4IterNtB8_8ClientOpEECslYd6v58rjWA_10nkey_tests
FNDA:4,_RNCINvMs0_NtCs6qhVEmoZJ2z_10async_nats10connectionNtB8_10Connection20easy_write_and_flushINtNtNtCs2CqrNpCrSUr_4core5slice4iter4IterNtBa_8ClientOpEE0CslYd6v58rjWA_10nkey_tests
FNDA:4,_RNCNCINvMs0_NtCs6qhVEmoZJ2z_10async_nats10connectionNtBa_10Connection20easy_write_and_flushINtNtNtCs2CqrNpCrSUr_4core5slice4iter4IterNtBc_8ClientOpEE00CslYd6v58rjWA_10nkey_tests
FNDA:4,_RNCNCINvMs0_NtCs6qhVEmoZJ2z_10async_nats10connectionNtBa_10Connection20easy_write_and_flushINtNtNtCs2CqrNpCrSUr_4core5slice4iter4IterNtBc_8ClientOpEE0s_0CslYd6v58rjWA_10nkey_tests
FNDA:16,_RNCNvMs0_NtCs6qhVEmoZJ2z_10async_nats10connectionNtB7_10Connection7read_op0CslYd6v58rjWA_10nkey_tests
FNDA:14,_RINvMs0_NtCs6qhVEmoZJ2z_10async_nats10connectionNtB6_10Connection20easy_write_and_flushINtNtNtCs2CqrNpCrSUr_4core5slice4iter4IterNtB8_8ClientOpEECsesyn6ELQ2kp_12object_store
FNDA:14,_RNCINvMs0_NtCs6qhVEmoZJ2z_10async_nats10connectionNtB8_10Connection20easy_write_and_flushINtNtNtCs2CqrNpCrSUr_4core5slice4iter4IterNtBa_8ClientOpEE0Csesyn6ELQ2kp_12object_store
FNDA:14,_RNCNCINvMs0_NtCs6qhVEmoZJ2z_10async_nats10connectionNtBa_10Connection20easy_write_and_flushINtNtNtCs2CqrNpCrSUr_4core5slice4iter4IterNtBc_8ClientOpEE00Csesyn6ELQ2kp_12object_store
FNDA:14,_RNCNCINvMs0_NtCs6qhVEmoZJ2z_10async_nats10connectionNtBa_10Connection20easy_write_and_flushINtNtNtCs2CqrNpCrSUr_4core5slice4iter4IterNtBc_8ClientOpEE0s_0Csesyn6ELQ2kp_12object_store
FNDA:56,_RNCNvMs0_NtCs6qhVEmoZJ2z_10async_nats10connectionNtB7_10Connection7read_op0Csesyn6ELQ2kp_12object_store
FNDA:11,_RINvMs0_NtCs6qhVEmoZJ2z_10async_nats10connectionNtB6_10Connection20easy_write_and_flushINtNtNtCs2CqrNpCrSUr_4core5slice4iter4IterNtB8_8ClientOpEECscGYhHI872CP_13service_tests
FNDA:11,_RNCINvMs0_NtCs6qhVEmoZJ2z_10async_nats10connectionNtB8_10Connection20easy_write_and_flushINtNtNtCs2CqrNpCrSUr_4core5slice4iter4IterNtBa_8ClientOpEE0CscGYhHI872CP_13service_tests
FNDA:11,_RNCNCINvMs0_NtCs6qhVEmoZJ2z_10async_nats10connectionNtBa_10Connection20easy_write_and_flushINtNtNtCs2CqrNpCrSUr_4core5slice4iter4IterNtBc_8ClientOpEE00CscGYhHI872CP_13service_tests
FNDA:11,_RNCNCINvMs0_NtCs6qhVEmoZJ2z_10async_nats10connectionNtBa_10Connection20easy_write_and_flushINtNtNtCs2CqrNpCrSUr_4core5slice4iter4IterNtBc_8ClientOpEE0s_0CscGYhHI872CP_13service_tests
FNDA:44,_RNCNvMs0_NtCs6qhVEmoZJ2z_10async_nats10connectionNtB7_10Connection7read_op0CscGYhHI872CP_13service_tests
FNDA:8,_RINvMs0_NtCs6qhVEmoZJ2z_10async_nats10connectionNtB6_10Connection20easy_write_and_flushINtNtNtCs2CqrNpCrSUr_4core5slice4iter4IterNtB8_8ClientOpEECs2VP52EYB5HS_9tls_tests
FNDA:8,_RNCINvMs0_NtCs6qhVEmoZJ2z_10async_nats10connectionNtB8_10Connection20easy_write_and_flushINtNtNtCs2CqrNpCrSUr_4core5slice4iter4IterNtBa_8ClientOpEE0Cs2VP52EYB5HS_9tls_tests
FNDA:8,_RNCNCINvMs0_NtCs6qhVEmoZJ2z_10async_nats10connectionNtBa_10Connection20easy_write_and_flushINtNtNtCs2CqrNpCrSUr_4core5slice4iter4IterNtBc_8ClientOpEE00Cs2VP52EYB5HS_9tls_tests
FNDA:8,_RNCNCINvMs0_NtCs6qhVEmoZJ2z_10async_nats10connectionNtBa_10Connection20easy_write_and_flushINtNtNtCs2CqrNpCrSUr_4core5slice4iter4IterNtBc_8ClientOpEE0s_0Cs2VP52EYB5HS_9tls_tests
FNDA:46,_RNCNvMs0_NtCs6qhVEmoZJ2z_10async_nats10connectionNtB7_10Connection7read_op0Cs2VP52EYB5HS_9tls_tests
FNF:67
FNH:51
DA:77,0
DA:78,0
DA:79,0
DA:80,0
DA:81,0
DA:83,0
DA:100,240
DA:101,240
DA:102,240
DA:103,240
DA:104,240
DA:105,240
DA:106,240
DA:107,240
DA:108,240
DA:109,240
DA:110,240
DA:111,240
DA:112,240
DA:113,240
DA:114,240
DA:117,116268
DA:118,116268
DA:119,116268
DA:122,39679
DA:124,39679
DA:125,39679
DA:127,23521
DA:128,0
DA:129,16158
DA:131,39679
DA:135,486968
DA:136,486968
DA:137,415445
DA:138,71523
DA:141,415445
DA:142,1
DA:143,1
DA:144,1
DA:145,415444
DA:147,415444
DA:148,31
DA:149,31
DA:150,31
DA:151,415413
DA:153,415413
DA:154,212
DA:155,212
DA:156,212
DA:157,415201
DA:159,415201
DA:160,3
DA:161,3
DA:162,3
DA:163,3
DA:165,3
DA:166,3
DA:167,3
DA:168,415198
DA:170,415198
DA:171,415
DA:172,415
DA:174,415
DA:175,415
DA:176,415
DA:177,414783
DA:179,414783
DA:180,414211
DA:181,1311006
DA:184,414211
DA:185,414211
DA:186,414211
DA:187,414211
DA:188,414211
DA:189,414211
DA:191,68373
DA:192,68373
DA:194,345838
DA:195,345838
DA:198,0
DA:199,0
DA:200,0
DA:201,0
DA:205,414211
DA:206,414211
DA:207,414211
DA:210,414211
DA:211,414211
DA:212,414211
DA:216,414211
DA:217,4402
DA:218,409809
DA:220,409809
DA:221,409809
DA:222,409809
DA:224,409809
DA:225,409809
DA:227,409809
DA:228,409809
DA:229,409809
DA:231,409809
DA:236,0
DA:239,409809
DA:240,409809
DA:241,409809
DA:242,409809
DA:243,409809
DA:244,409809
DA:245,409809
DA:246,409809
DA:247,409809
DA:248,409809
DA:249,572
DA:251,572
DA:253,568
DA:254,2428
DA:257,568
DA:258,568
DA:259,568
DA:260,568
DA:261,568
DA:262,568
DA:263,568
DA:266,156
DA:267,156
DA:268,156
DA:269,156
DA:270,156
DA:272,156
DA:273,412
DA:274,412
DA:277,0
DA:278,0
DA:279,0
DA:280,0
DA:285,568
DA:288,568
DA:289,0
DA:290,0
DA:293,0
DA:296,568
DA:299,568
DA:300,0
DA:301,0
DA:305,0
DA:308,568
DA:309,0
DA:310,0
DA:313,0
DA:315,568
DA:316,0
DA:317,0
DA:318,0
DA:319,0
DA:320,0
DA:321,568
DA:323,568
DA:324,4
DA:325,564
DA:327,564
DA:328,564
DA:329,564
DA:330,564
DA:332,564
DA:333,564
DA:334,0
DA:335,0
DA:336,564
DA:337,564
DA:338,564
DA:339,0
DA:340,0
DA:342,564
DA:343,564
DA:344,564
DA:345,564
DA:346,0
DA:347,0
DA:350,0
DA:352,564
DA:353,564
DA:354,564
DA:355,564
DA:356,564
DA:358,388
DA:359,388
DA:360,388
DA:363,176
DA:365,564
DA:366,382
DA:368,182
DA:371,564
DA:372,2549
DA:373,1985
DA:374,564
DA:375,1421
DA:377,1421
DA:378,0
DA:379,0
DA:381,1421
DA:382,1421
DA:386,1421
DA:387,1421
DA:388,0
DA:389,0
DA:390,1421
DA:392,1421
DA:395,564
DA:403,0
DA:407,564
DA:408,564
DA:409,564
DA:410,564
DA:411,564
DA:412,564
DA:413,564
DA:414,564
DA:416,4
DA:418,4
DA:419,4
DA:420,0
DA:421,0
DA:423,4
DA:424,4
DA:425,4
DA:426,4
DA:427,4
DA:428,486968
DA:430,452
DA:431,887
DA:432,452
DA:437,451171
DA:438,451171
DA:439,451171
DA:440,451171
DA:442,486968
DA:443,411035
DA:444,411035
DA:445,75929
DA:447,75929
DA:448,75929
DA:449,75929
DA:451,40117
DA:452,40117
DA:454,13
DA:455,13
DA:456,13
DA:459,0
DA:460,0
DA:462,35797
DA:463,35797
DA:464,35797
DA:465,35797
DA:467,2
DA:468,2
DA:469,2
DA:473,451171
DA:475,222
DA:476,222
DA:477,222
DA:478,222
DA:479,656
DA:480,434
DA:481,434
DA:483,222
DA:484,222
DA:485,222
DA:486,222
DA:489,348492
DA:496,348492
DA:497,213
DA:498,213
DA:500,213
DA:501,213
DA:502,213
DA:503,213
DA:506,347376
DA:507,347376
DA:508,347376
DA:509,347376
DA:511,347376
DA:512,85
DA:513,347292
DA:516,347376
DA:518,347376
DA:519,342603
DA:520,342603
DA:522,85
DA:523,85
DA:524,84
DA:525,84
DA:526,84
DA:527,84
DA:528,84
DA:529,84
DA:530,84
DA:531,347292
DA:532,347292
DA:533,347292
DA:534,347292
DA:537,347376
DA:538,347376
DA:540,347376
DA:545,0
DA:546,0
DA:551,501
DA:552,501
DA:553,501
DA:555,501
DA:556,22
DA:557,22
DA:558,22
DA:559,479
DA:560,479
DA:561,479
DA:564,501
DA:568,0
DA:572,159
DA:573,159
DA:574,4
DA:575,4
DA:576,4
DA:577,155
DA:578,155
DA:579,155
DA:582,159
DA:585,0
DA:589,213
DA:590,213
DA:593,30
DA:594,30
DA:597,348492
DA:611,39901
DA:612,39901
DA:613,0
DA:615,39901
DA:617,39901
DA:622,0
DA:624,0
DA:625,0
DA:626,0
DA:627,0
DA:630,0
DA:632,0
DA:633,0
DA:634,0
DA:635,0
DA:636,0
DA:637,0
DA:639,0
DA:640,0
DA:641,0
DA:642,0
DA:643,0
DA:644,0
DA:645,0
DA:646,0
DA:647,0
DA:648,0
DA:650,0
DA:652,0
DA:655,0
DA:660,39901
DA:662,63644
DA:663,63644
DA:665,63644
DA:666,63644
DA:667,63644
DA:668,63644
DA:669,63644
DA:670,84
DA:671,84
DA:672,84
DA:674,63644
DA:675,23744
DA:676,23744
DA:677,39900
DA:679,63644
DA:680,39900
DA:681,23744
DA:683,23744
DA:684,1
DA:685,23743
DA:686,23743
DA:687,23743
DA:688,23743
DA:690,23827
DA:691,84
DA:692,0
DA:693,0
DA:694,84
DA:696,84
DA:697,84
DA:700,23743
DA:702,0
DA:705,39901
DA:713,695718
DA:714,695718
DA:715,695718
DA:716,4540
DA:717,691178
DA:719,691178
DA:720,691178
DA:721,691136
DA:722,691136
DA:723,42
DA:724,42
DA:725,42
DA:726,42
DA:728,42
DA:730,695718
DA:733,1038015
DA:739,2772664
DA:740,2772664
DA:741,2772664
DA:742,2772664
DA:745,1038015
DA:746,1038015
DA:751,23744
DA:752,23744
DA:753,0
DA:755,23744
DA:756,23744
DA:758,0
DA:760,23744
DA:872,1
DA:873,1
DA:874,1
DA:876,1
DA:877,1
DA:878,1
DA:879,1
DA:882,1
DA:883,1
DA:884,1
DA:886,1
DA:887,1
DA:888,1
DA:889,1
DA:892,1
DA:893,1
DA:894,1
DA:896,1
DA:897,1
DA:898,1
DA:899,1
DA:902,1
DA:903,1
DA:904,1
DA:906,1
DA:907,1
DA:909,1
DA:910,1
DA:912,1
DA:913,1
DA:914,1
DA:915,1
DA:916,1
DA:918,1
DA:919,1
DA:921,1
DA:922,1
DA:923,1
DA:924,1
DA:927,1
DA:928,1
DA:929,1
DA:930,1
DA:931,1
DA:933,1
DA:934,1
DA:935,1
DA:936,1
DA:937,1
DA:938,1
DA:939,1
DA:940,1
DA:941,1
DA:942,1
DA:945,1
DA:946,1
DA:947,1
DA:949,1
DA:950,1
DA:951,1
DA:953,1
DA:954,1
DA:955,1
DA:956,1
DA:957,1
DA:958,1
DA:959,1
DA:960,1
DA:961,1
DA:962,1
DA:963,1
DA:964,1
DA:967,1
DA:968,1
DA:969,1
DA:971,1
DA:972,1
DA:973,1
DA:974,1
DA:976,1
DA:977,1
DA:979,1
DA:980,1
DA:981,1
DA:982,1
DA:983,1
DA:984,1
DA:985,1
DA:986,1
DA:987,1
DA:988,1
DA:991,1
DA:992,1
DA:993,1
DA:994,1
DA:996,1
DA:997,1
DA:999,1
DA:1000,1
DA:1001,1
DA:1002,1
DA:1003,1
DA:1004,1
DA:1005,1
DA:1006,1
DA:1007,1
DA:1008,1
DA:1011,1
DA:1012,1
DA:1013,1
DA:1014,1
DA:1015,1
DA:1016,1
DA:1017,1
DA:1018,1
DA:1020,1
DA:1022,1
DA:1024,1
DA:1025,1
DA:1026,1
DA:1027,1
DA:1028,1
DA:1029,1
DA:1030,1
DA:1031,1
DA:1032,1
DA:1033,1
DA:1034,1
DA:1035,1
DA:1036,1
DA:1039,1
DA:1040,1
DA:1041,1
DA:1042,1
DA:1043,1
DA:1044,1
DA:1045,1
DA:1046,1
DA:1048,1
DA:1049,1
DA:1051,1
DA:1052,1
DA:1053,1
DA:1054,1
DA:1055,1
DA:1056,1
DA:1057,1
DA:1058,1
DA:1059,1
DA:1060,1
DA:1061,1
DA:1062,1
DA:1063,1
DA:1066,1
DA:1067,1
DA:1068,1
DA:1069,1
DA:1070,1
DA:1071,1
DA:1072,1
DA:1073,1
DA:1074,1
DA:1075,1
DA:1077,1
DA:1078,1
DA:1080,1
DA:1081,1
DA:1082,1
DA:1083,1
DA:1084,1
DA:1085,1
DA:1086,1
DA:1087,1
DA:1088,1
DA:1089,1
DA:1092,1
DA:1093,1
DA:1094,1
DA:1095,1
DA:1097,1
DA:1098,1
DA:1099,1
DA:1100,1
DA:1101,1
DA:1102,1
DA:1103,1
DA:1104,1
DA:1105,1
DA:1106,1
DA:1107,1
DA:1108,1
DA:1109,1
DA:1110,1
DA:1111,1
DA:1114,1
DA:1115,1
DA:1116,1
DA:1118,1
DA:1119,1
DA:1121,1
DA:1122,1
DA:1124,1
DA:1125,1
DA:1127,1
DA:1128,1
DA:1130,1
DA:1131,1
DA:1132,1
DA:1133,1
DA:1134,1
DA:1135,1
DA:1136,1
DA:1137,1
DA:1138,1
DA:1139,1
DA:1141,1
DA:1142,1
DA:1144,1
DA:1145,1
DA:1146,1
DA:1147,1
DA:1148,1
DA:1149,1
DA:1150,1
DA:1151,1
DA:1152,1
DA:1153,1
DA:1156,1
DA:1157,1
DA:1159,1
DA:1160,1
DA:1161,1
DA:1173,1
DA:1174,1
DA:1175,1
DA:1177,1
DA:1178,1
DA:1179,1
DA:1180,1
DA:1181,1
DA:1182,1
DA:1183,1
DA:1184,1
DA:1185,1
DA:1186,1
DA:1187,1
DA:1188,1
DA:1190,1
DA:1191,1
DA:1192,1
DA:1193,1
DA:1194,1
DA:1196,1
DA:1197,1
DA:1198,1
DA:1199,1
DA:1200,1
DA:1201,1
DA:1202,1
DA:1203,1
DA:1204,1
DA:1205,1
DA:1206,1
DA:1207,1
DA:1209,1
DA:1210,1
DA:1211,1
DA:1212,1
DA:1214,1
DA:1215,1
DA:1216,1
DA:1217,1
DA:1218,1
DA:1219,1
DA:1220,1
DA:1221,1
DA:1222,1
DA:1223,1
DA:1224,1
DA:1225,1
DA:1226,1
DA:1227,1
DA:1228,1
DA:1230,1
DA:1231,1
DA:1232,1
DA:1233,1
DA:1234,1
DA:1235,1
DA:1236,1
DA:1237,1
DA:1238,1
DA:1239,1
DA:1242,1
DA:1243,1
DA:1244,1
DA:1246,1
DA:1247,1
DA:1248,1
DA:1249,1
DA:1250,1
DA:1251,1
DA:1252,1
DA:1253,1
DA:1254,1
DA:1255,1
DA:1256,1
DA:1258,1
DA:1259,1
DA:1260,1
DA:1261,1
DA:1263,1
DA:1264,1
DA:1265,1
DA:1266,1
DA:1267,1
DA:1268,1
DA:1269,1
DA:1270,1
DA:1271,1
DA:1272,1
DA:1273,1
DA:1275,1
DA:1276,1
DA:1277,1
DA:1278,1
DA:1281,1
DA:1282,1
DA:1283,1
DA:1285,1
DA:1286,1
DA:1287,1
DA:1288,1
DA:1290,1
DA:1291,1
DA:1292,1
DA:1293,1
DA:1295,1
DA:1296,1
DA:1297,1
DA:1298,1
DA:1299,1
DA:1300,1
DA:1301,1
DA:1302,1
DA:1303,1
DA:1304,1
DA:1306,1
DA:1307,1
DA:1308,1
DA:1309,1
DA:1312,1
DA:1313,1
DA:1314,1
DA:1316,1
DA:1317,1
DA:1319,1
DA:1320,1
DA:1321,1
DA:1322,1
DA:1324,1
DA:1326,1
DA:1327,1
DA:1330,1
DA:1331,1
DA:1332,1
DA:1334,1
DA:1335,1
DA:1337,1
DA:1338,1
DA:1339,1
DA:1340,1
DA:1342,1
DA:1344,1
DA:1345,1
DA:1348,1
DA:1349,1
DA:1350,1
DA:1352,1
DA:1353,1
DA:1355,1
DA:1356,1
DA:1357,1
DA:1358,1
DA:1359,1
DA:1360,1
DA:1361,1
DA:1362,1
DA:1363,1
DA:1364,1
DA:1365,1
DA:1366,1
DA:1367,1
DA:1368,1
DA:1369,1
DA:1370,1
DA:1371,1
DA:1372,1
DA:1373,1
DA:1374,1
DA:1375,1
DA:1376,1
DA:1377,1
DA:1378,1
DA:1380,1
DA:1381,1
DA:1382,1
DA:1383,1
DA:1384,1
DA:1385,1
BRF:0
BRH:0
LF:912
LH:807
end_of_record
SF:/Users/tomaszpietrek/coding/nats.rs/async-nats/src/connector.rs
FN:95,_RINvMNtCs1hbFQVFAImq_10async_nats9connectorNtB3_9Connector3newNtNtCs1AhsD0INetT_5alloc6string6StringEB5_
FN:103,_RNCINvMNtCs1hbFQVFAImq_10async_nats9connectorNtB5_9Connector3newNtNtCs1AhsD0INetT_5alloc6string6StringE0B7_
FN:432,_RNCNCNCNCNvMNtCs1hbFQVFAImq_10async_nats9connectorNtBa_9Connector14try_connect_to0s_000Bc_
FN:437,_RNCNCNCNCNvMNtCs1hbFQVFAImq_10async_nats9connectorNtBa_9Connector14try_connect_to0s_00s_0Bc_
FN:427,_RNCNCNCNvMNtCs1hbFQVFAImq_10async_nats9connectorNtB8_9Connector14try_connect_to0s_00Ba_
FN:147,_RNCNCNvMNtCs1hbFQVFAImq_10async_nats9connectorNtB6_9Connector11try_connect00B8_
FN:192,_RNCNCNvMNtCs1hbFQVFAImq_10async_nats9connectorNtB6_9Connector11try_connect0s0_0B8_
FN:198,_RNCNCNvMNtCs1hbFQVFAImq_10async_nats9connectorNtB6_9Connector11try_connect0s1_0B8_
FN:276,_RNCNCNvMNtCs1hbFQVFAImq_10async_nats9connectorNtB6_9Connector11try_connect0s2_0B8_
FN:288,_RNCNCNvMNtCs1hbFQVFAImq_10async_nats9connectorNtB6_9Connector11try_connect0s3_0B8_
FN:179,_RNCNCNvMNtCs1hbFQVFAImq_10async_nats9connectorNtB6_9Connector11try_connect0s_0B8_
FN:416,_RNCNCNvMNtCs1hbFQVFAImq_10async_nats9connectorNtB6_9Connector14try_connect_to00B8_
FN:448,_RNCNCNvMNtCs1hbFQVFAImq_10async_nats9connectorNtB6_9Connector14try_connect_to0s_0B8_
FN:139,_RNCNvMNtCs1hbFQVFAImq_10async_nats9connectorNtB4_9Connector11try_connect0B6_
FN:362,_RNCNvMNtCs1hbFQVFAImq_10async_nats9connectorNtB4_9Connector14try_connect_to0B6_
FN:116,_RNCNvMNtCs1hbFQVFAImq_10async_nats9connectorNtB4_9Connector7connect0B6_
FN:500,_RNvNtNtCs1hbFQVFAImq_10async_nats9connector5testss_33reconnect_delay_callback_duration
FN:139,_RNvMNtCs1hbFQVFAImq_10async_nats9connectorNtB2_9Connector11try_connect
FN:357,_RNvMNtCs1hbFQVFAImq_10async_nats9connectorNtB2_9Connector14try_connect_to
FN:116,_RNvMNtCs1hbFQVFAImq_10async_nats9connectorNtB2_9Connector7connect
FN:84,_RNvNtCs1hbFQVFAImq_10async_nats9connector32reconnect_delay_callback_default
FN:95,_RINvMNtCs6qhVEmoZJ2z_10async_nats9connectorNtB3_9Connector3newINtNtCs1AhsD0INetT_5alloc3vec3VecNtB5_10ServerAddrEECsdpdgC16NPIW_12client_tests
FN:95,_RINvMNtCs6qhVEmoZJ2z_10async_nats9connectorNtB3_9Connector3newNtNtCs1AhsD0INetT_5alloc6string6StringECsdpdgC16NPIW_12client_tests
FN:95,_RINvMNtCs6qhVEmoZJ2z_10async_nats9connectorNtB3_9Connector3newRSNtB5_10ServerAddrECsdpdgC16NPIW_12client_tests
FN:95,_RINvMNtCs6qhVEmoZJ2z_10async_nats9connectorNtB3_9Connector3newReECsdpdgC16NPIW_12client_tests
FN:103,_RNCINvMNtCs6qhVEmoZJ2z_10async_nats9connectorNtB5_9Connector3newINtNtCs1AhsD0INetT_5alloc3vec3VecNtB7_10ServerAddrEE0CsdpdgC16NPIW_12client_tests
FN:103,_RNCINvMNtCs6qhVEmoZJ2z_10async_nats9connectorNtB5_9Connector3newNtNtCs1AhsD0INetT_5alloc6string6StringE0CsdpdgC16NPIW_12client_tests
FN:103,_RNCINvMNtCs6qhVEmoZJ2z_10async_nats9connectorNtB5_9Connector3newRSNtB7_10ServerAddrE0CsdpdgC16NPIW_12client_tests
FN:103,_RNCINvMNtCs6qhVEmoZJ2z_10async_nats9connectorNtB5_9Connector3newReE0CsdpdgC16NPIW_12client_tests
FN:432,_RNCNCNCNCNvMNtCs6qhVEmoZJ2z_10async_nats9connectorNtBa_9Connector14try_connect_to0s_000CsdpdgC16NPIW_12client_tests
FN:437,_RNCNCNCNCNvMNtCs6qhVEmoZJ2z_10async_nats9connectorNtBa_9Connector14try_connect_to0s_00s_0CsdpdgC16NPIW_12client_tests
FN:427,_RNCNCNCNvMNtCs6qhVEmoZJ2z_10async_nats9connectorNtB8_9Connector14try_connect_to0s_00CsdpdgC16NPIW_12client_tests
FN:147,_RNCNCNvMNtCs6qhVEmoZJ2z_10async_nats9connectorNtB6_9Connector11try_connect00CsdpdgC16NPIW_12client_tests
FN:192,_RNCNCNvMNtCs6qhVEmoZJ2z_10async_nats9connectorNtB6_9Connector11try_connect0s0_0CsdpdgC16NPIW_12client_tests
FN:198,_RNCNCNvMNtCs6qhVEmoZJ2z_10async_nats9connectorNtB6_9Connector11try_connect0s1_0CsdpdgC16NPIW_12client_tests
FN:276,_RNCNCNvMNtCs6qhVEmoZJ2z_10async_nats9connectorNtB6_9Connector11try_connect0s2_0CsdpdgC16NPIW_12client_tests
FN:288,_RNCNCNvMNtCs6qhVEmoZJ2z_10async_nats9connectorNtB6_9Connector11try_connect0s3_0CsdpdgC16NPIW_12client_tests
FN:179,_RNCNCNvMNtCs6qhVEmoZJ2z_10async_nats9connectorNtB6_9Connector11try_connect0s_0CsdpdgC16NPIW_12client_tests
FN:416,_RNCNCNvMNtCs6qhVEmoZJ2z_10async_nats9connectorNtB6_9Connector14try_connect_to00CsdpdgC16NPIW_12client_tests
FN:448,_RNCNCNvMNtCs6qhVEmoZJ2z_10async_nats9connectorNtB6_9Connector14try_connect_to0s_0CsdpdgC16NPIW_12client_tests
FN:139,_RNCNvMNtCs6qhVEmoZJ2z_10async_nats9connectorNtB4_9Connector11try_connect0CsdpdgC16NPIW_12client_tests
FN:362,_RNCNvMNtCs6qhVEmoZJ2z_10async_nats9connectorNtB4_9Connector14try_connect_to0CsdpdgC16NPIW_12client_tests
FN:116,_RNCNvMNtCs6qhVEmoZJ2z_10async_nats9connectorNtB4_9Connector7connect0CsdpdgC16NPIW_12client_tests
FN:95,_RINvMNtCs6qhVEmoZJ2z_10async_nats9connectorNtB3_9Connector3newpEB5_
FN:103,_RNCINvMNtCs6qhVEmoZJ2z_10async_nats9connectorNtB5_9Connector3newpE0B7_
FN:432,_RNCNCNCNCNvMNtCs6qhVEmoZJ2z_10async_nats9connectorNtBa_9Connector14try_connect_to0s_000Bc_
FN:437,_RNCNCNCNCNvMNtCs6qhVEmoZJ2z_10async_nats9connectorNtBa_9Connector14try_connect_to0s_00s_0Bc_
FN:427,_RNCNCNCNvMNtCs6qhVEmoZJ2z_10async_nats9connectorNtB8_9Connector14try_connect_to0s_00Ba_
FN:147,_RNCNCNvMNtCs6qhVEmoZJ2z_10async_nats9connectorNtB6_9Connector11try_connect00B8_
FN:192,_RNCNCNvMNtCs6qhVEmoZJ2z_10async_nats9connectorNtB6_9Connector11try_connect0s0_0B8_
FN:198,_RNCNCNvMNtCs6qhVEmoZJ2z_10async_nats9connectorNtB6_9Connector11try_connect0s1_0B8_
FN:276,_RNCNCNvMNtCs6qhVEmoZJ2z_10async_nats9connectorNtB6_9Connector11try_connect0s2_0B8_
FN:288,_RNCNCNvMNtCs6qhVEmoZJ2z_10async_nats9connectorNtB6_9Connector11try_connect0s3_0B8_
FN:179,_RNCNCNvMNtCs6qhVEmoZJ2z_10async_nats9connectorNtB6_9Connector11try_connect0s_0B8_
FN:416,_RNCNCNvMNtCs6qhVEmoZJ2z_10async_nats9connectorNtB6_9Connector14try_connect_to00B8_
FN:448,_RNCNCNvMNtCs6qhVEmoZJ2z_10async_nats9connectorNtB6_9Connector14try_connect_to0s_0B8_
FN:139,_RNCNvMNtCs6qhVEmoZJ2z_10async_nats9connectorNtB4_9Connector11try_connect0B6_
FN:362,_RNCNvMNtCs6qhVEmoZJ2z_10async_nats9connectorNtB4_9Connector14try_connect_to0B6_
FN:116,_RNCNvMNtCs6qhVEmoZJ2z_10async_nats9connectorNtB4_9Connector7connect0B6_
FN:139,_RNvMNtCs6qhVEmoZJ2z_10async_nats9connectorNtB2_9Connector11try_connect
FN:357,_RNvMNtCs6qhVEmoZJ2z_10async_nats9connectorNtB2_9Connector14try_connect_to
FN:116,_RNvMNtCs6qhVEmoZJ2z_10async_nats9connectorNtB2_9Connector7connect
FN:84,_RNvNtCs6qhVEmoZJ2z_10async_nats9connector32reconnect_delay_callback_default
FN:95,_RINvMNtCs6qhVEmoZJ2z_10async_nats9connectorNtB3_9Connector3newNtNtCs1AhsD0INetT_5alloc6string6StringECsbhX8fe0itkR_15jetstream_tests
FN:95,_RINvMNtCs6qhVEmoZJ2z_10async_nats9connectorNtB3_9Connector3newRNtNtCs1AhsD0INetT_5alloc6string6StringECsbhX8fe0itkR_15jetstream_tests
FN:95,_RINvMNtCs6qhVEmoZJ2z_10async_nats9connectorNtB3_9Connector3newReECsbhX8fe0itkR_15jetstream_tests
FN:103,_RNCINvMNtCs6qhVEmoZJ2z_10async_nats9connectorNtB5_9Connector3newNtNtCs1AhsD0INetT_5alloc6string6StringE0CsbhX8fe0itkR_15jetstream_tests
FN:103,_RNCINvMNtCs6qhVEmoZJ2z_10async_nats9connectorNtB5_9Connector3newRNtNtCs1AhsD0INetT_5alloc6string6StringE0CsbhX8fe0itkR_15jetstream_tests
FN:103,_RNCINvMNtCs6qhVEmoZJ2z_10async_nats9connectorNtB5_9Connector3newReE0CsbhX8fe0itkR_15jetstream_tests
FN:432,_RNCNCNCNCNvMNtCs6qhVEmoZJ2z_10async_nats9connectorNtBa_9Connector14try_connect_to0s_000CsbhX8fe0itkR_15jetstream_tests
FN:437,_RNCNCNCNCNvMNtCs6qhVEmoZJ2z_10async_nats9connectorNtBa_9Connector14try_connect_to0s_00s_0CsbhX8fe0itkR_15jetstream_tests
FN:427,_RNCNCNCNvMNtCs6qhVEmoZJ2z_10async_nats9connectorNtB8_9Connector14try_connect_to0s_00CsbhX8fe0itkR_15jetstream_tests
FN:147,_RNCNCNvMNtCs6qhVEmoZJ2z_10async_nats9connectorNtB6_9Connector11try_connect00CsbhX8fe0itkR_15jetstream_tests
FN:192,_RNCNCNvMNtCs6qhVEmoZJ2z_10async_nats9connectorNtB6_9Connector11try_connect0s0_0CsbhX8fe0itkR_15jetstream_tests
FN:198,_RNCNCNvMNtCs6qhVEmoZJ2z_10async_nats9connectorNtB6_9Connector11try_connect0s1_0CsbhX8fe0itkR_15jetstream_tests
FN:276,_RNCNCNvMNtCs6qhVEmoZJ2z_10async_nats9connectorNtB6_9Connector11try_connect0s2_0CsbhX8fe0itkR_15jetstream_tests
FN:288,_RNCNCNvMNtCs6qhVEmoZJ2z_10async_nats9connectorNtB6_9Connector11try_connect0s3_0CsbhX8fe0itkR_15jetstream_tests
FN:179,_RNCNCNvMNtCs6qhVEmoZJ2z_10async_nats9connectorNtB6_9Connector11try_connect0s_0CsbhX8fe0itkR_15jetstream_tests
FN:416,_RNCNCNvMNtCs6qhVEmoZJ2z_10async_nats9connectorNtB6_9Connector14try_connect_to00CsbhX8fe0itkR_15jetstream_tests
FN:448,_RNCNCNvMNtCs6qhVEmoZJ2z_10async_nats9connectorNtB6_9Connector14try_connect_to0s_0CsbhX8fe0itkR_15jetstream_tests
FN:139,_RNCNvMNtCs6qhVEmoZJ2z_10async_nats9connectorNtB4_9Connector11try_connect0CsbhX8fe0itkR_15jetstream_tests
FN:362,_RNCNvMNtCs6qhVEmoZJ2z_10async_nats9connectorNtB4_9Connector14try_connect_to0CsbhX8fe0itkR_15jetstream_tests
FN:116,_RNCNvMNtCs6qhVEmoZJ2z_10async_nats9connectorNtB4_9Connector7connect0CsbhX8fe0itkR_15jetstream_tests
FN:95,_RINvMNtCs6qhVEmoZJ2z_10async_nats9connectorNtB3_9Connector3newNtNtCs1AhsD0INetT_5alloc6string6StringECsWLjOOar9jQ_9jwt_tests
FN:95,_RINvMNtCs6qhVEmoZJ2z_10async_nats9connectorNtB3_9Connector3newRSNtB5_10ServerAddrECsWLjOOar9jQ_9jwt_tests
FN:103,_RNCINvMNtCs6qhVEmoZJ2z_10async_nats9connectorNtB5_9Connector3newNtNtCs1AhsD0INetT_5alloc6string6StringE0CsWLjOOar9jQ_9jwt_tests
FN:103,_RNCINvMNtCs6qhVEmoZJ2z_10async_nats9connectorNtB5_9Connector3newRSNtB7_10ServerAddrE0CsWLjOOar9jQ_9jwt_tests
FN:432,_RNCNCNCNCNvMNtCs6qhVEmoZJ2z_10async_nats9connectorNtBa_9Connector14try_connect_to0s_000CsWLjOOar9jQ_9jwt_tests
FN:437,_RNCNCNCNCNvMNtCs6qhVEmoZJ2z_10async_nats9connectorNtBa_9Connector14try_connect_to0s_00s_0CsWLjOOar9jQ_9jwt_tests
FN:427,_RNCNCNCNvMNtCs6qhVEmoZJ2z_10async_nats9connectorNtB8_9Connector14try_connect_to0s_00CsWLjOOar9jQ_9jwt_tests
FN:147,_RNCNCNvMNtCs6qhVEmoZJ2z_10async_nats9connectorNtB6_9Connector11try_connect00CsWLjOOar9jQ_9jwt_tests
FN:192,_RNCNCNvMNtCs6qhVEmoZJ2z_10async_nats9connectorNtB6_9Connector11try_connect0s0_0CsWLjOOar9jQ_9jwt_tests
FN:198,_RNCNCNvMNtCs6qhVEmoZJ2z_10async_nats9connectorNtB6_9Connector11try_connect0s1_0CsWLjOOar9jQ_9jwt_tests
FN:276,_RNCNCNvMNtCs6qhVEmoZJ2z_10async_nats9connectorNtB6_9Connector11try_connect0s2_0CsWLjOOar9jQ_9jwt_tests
FN:288,_RNCNCNvMNtCs6qhVEmoZJ2z_10async_nats9connectorNtB6_9Connector11try_connect0s3_0CsWLjOOar9jQ_9jwt_tests
FN:179,_RNCNCNvMNtCs6qhVEmoZJ2z_10async_nats9connectorNtB6_9Connector11try_connect0s_0CsWLjOOar9jQ_9jwt_tests
FN:416,_RNCNCNvMNtCs6qhVEmoZJ2z_10async_nats9connectorNtB6_9Connector14try_connect_to00CsWLjOOar9jQ_9jwt_tests
FN:448,_RNCNCNvMNtCs6qhVEmoZJ2z_10async_nats9connectorNtB6_9Connector14try_connect_to0s_0CsWLjOOar9jQ_9jwt_tests
FN:139,_RNCNvMNtCs6qhVEmoZJ2z_10async_nats9connectorNtB4_9Connector11try_connect0CsWLjOOar9jQ_9jwt_tests
FN:362,_RNCNvMNtCs6qhVEmoZJ2z_10async_nats9connectorNtB4_9Connector14try_connect_to0CsWLjOOar9jQ_9jwt_tests
FN:116,_RNCNvMNtCs6qhVEmoZJ2z_10async_nats9connectorNtB4_9Connector7connect0CsWLjOOar9jQ_9jwt_tests
FN:95,_RINvMNtCs6qhVEmoZJ2z_10async_nats9connectorNtB3_9Connector3newNtNtCs1AhsD0INetT_5alloc6string6StringECs98b7hshCa6M_8kv_tests
FN:103,_RNCINvMNtCs6qhVEmoZJ2z_10async_nats9connectorNtB5_9Connector3newNtNtCs1AhsD0INetT_5alloc6string6StringE0Cs98b7hshCa6M_8kv_tests
FN:432,_RNCNCNCNCNvMNtCs6qhVEmoZJ2z_10async_nats9connectorNtBa_9Connector14try_connect_to0s_000Cs98b7hshCa6M_8kv_tests
FN:437,_RNCNCNCNCNvMNtCs6qhVEmoZJ2z_10async_nats9connectorNtBa_9Connector14try_connect_to0s_00s_0Cs98b7hshCa6M_8kv_tests
FN:427,_RNCNCNCNvMNtCs6qhVEmoZJ2z_10async_nats9connectorNtB8_9Connector14try_connect_to0s_00Cs98b7hshCa6M_8kv_tests
FN:147,_RNCNCNvMNtCs6qhVEmoZJ2z_10async_nats9connectorNtB6_9Connector11try_connect00Cs98b7hshCa6M_8kv_tests
FN:192,_RNCNCNvMNtCs6qhVEmoZJ2z_10async_nats9connectorNtB6_9Connector11try_connect0s0_0Cs98b7hshCa6M_8kv_tests
FN:198,_RNCNCNvMNtCs6qhVEmoZJ2z_10async_nats9connectorNtB6_9Connector11try_connect0s1_0Cs98b7hshCa6M_8kv_tests
FN:276,_RNCNCNvMNtCs6qhVEmoZJ2z_10async_nats9connectorNtB6_9Connector11try_connect0s2_0Cs98b7hshCa6M_8kv_tests
FN:288,_RNCNCNvMNtCs6qhVEmoZJ2z_10async_nats9connectorNtB6_9Connector11try_connect0s3_0Cs98b7hshCa6M_8kv_tests
FN:179,_RNCNCNvMNtCs6qhVEmoZJ2z_10async_nats9connectorNtB6_9Connector11try_connect0s_0Cs98b7hshCa6M_8kv_tests
FN:416,_RNCNCNvMNtCs6qhVEmoZJ2z_10async_nats9connectorNtB6_9Connector14try_connect_to00Cs98b7hshCa6M_8kv_tests
FN:448,_RNCNCNvMNtCs6qhVEmoZJ2z_10async_nats9connectorNtB6_9Connector14try_connect_to0s_0Cs98b7hshCa6M_8kv_tests
FN:139,_RNCNvMNtCs6qhVEmoZJ2z_10async_nats9connectorNtB4_9Connector11try_connect0Cs98b7hshCa6M_8kv_tests
FN:362,_RNCNvMNtCs6qhVEmoZJ2z_10async_nats9connectorNtB4_9Connector14try_connect_to0Cs98b7hshCa6M_8kv_tests
FN:116,_RNCNvMNtCs6qhVEmoZJ2z_10async_nats9connectorNtB4_9Connector7connect0Cs98b7hshCa6M_8kv_tests
FN:95,_RINvMNtCs6qhVEmoZJ2z_10async_nats9connectorNtB3_9Connector3newNtNtCs1AhsD0INetT_5alloc6string6StringECslYd6v58rjWA_10nkey_tests
FN:95,_RINvMNtCs6qhVEmoZJ2z_10async_nats9connectorNtB3_9Connector3newRSNtB5_10ServerAddrECslYd6v58rjWA_10nkey_tests
FN:103,_RNCINvMNtCs6qhVEmoZJ2z_10async_nats9connectorNtB5_9Connector3newNtNtCs1AhsD0INetT_5alloc6string6StringE0CslYd6v58rjWA_10nkey_tests
FN:103,_RNCINvMNtCs6qhVEmoZJ2z_10async_nats9connectorNtB5_9Connector3newRSNtB7_10ServerAddrE0CslYd6v58rjWA_10nkey_tests
FN:432,_RNCNCNCNCNvMNtCs6qhVEmoZJ2z_10async_nats9connectorNtBa_9Connector14try_connect_to0s_000CslYd6v58rjWA_10nkey_tests
FN:437,_RNCNCNCNCNvMNtCs6qhVEmoZJ2z_10async_nats9connectorNtBa_9Connector14try_connect_to0s_00s_0CslYd6v58rjWA_10nkey_tests
FN:427,_RNCNCNCNvMNtCs6qhVEmoZJ2z_10async_nats9connectorNtB8_9Connector14try_connect_to0s_00CslYd6v58rjWA_10nkey_tests
FN:147,_RNCNCNvMNtCs6qhVEmoZJ2z_10async_nats9connectorNtB6_9Connector11try_connect00CslYd6v58rjWA_10nkey_tests
FN:192,_RNCNCNvMNtCs6qhVEmoZJ2z_10async_nats9connectorNtB6_9Connector11try_connect0s0_0CslYd6v58rjWA_10nkey_tests
FN:198,_RNCNCNvMNtCs6qhVEmoZJ2z_10async_nats9connectorNtB6_9Connector11try_connect0s1_0CslYd6v58rjWA_10nkey_tests
FN:276,_RNCNCNvMNtCs6qhVEmoZJ2z_10async_nats9connectorNtB6_9Connector11try_connect0s2_0CslYd6v58rjWA_10nkey_tests
FN:288,_RNCNCNvMNtCs6qhVEmoZJ2z_10async_nats9connectorNtB6_9Connector11try_connect0s3_0CslYd6v58rjWA_10nkey_tests
FN:179,_RNCNCNvMNtCs6qhVEmoZJ2z_10async_nats9connectorNtB6_9Connector11try_connect0s_0CslYd6v58rjWA_10nkey_tests
FN:416,_RNCNCNvMNtCs6qhVEmoZJ2z_10async_nats9connectorNtB6_9Connector14try_connect_to00CslYd6v58rjWA_10nkey_tests
FN:448,_RNCNCNvMNtCs6qhVEmoZJ2z_10async_nats9connectorNtB6_9Connector14try_connect_to0s_0CslYd6v58rjWA_10nkey_tests
FN:139,_RNCNvMNtCs6qhVEmoZJ2z_10async_nats9connectorNtB4_9Connector11try_connect0CslYd6v58rjWA_10nkey_tests
FN:362,_RNCNvMNtCs6qhVEmoZJ2z_10async_nats9connectorNtB4_9Connector14try_connect_to0CslYd6v58rjWA_10nkey_tests
FN:116,_RNCNvMNtCs6qhVEmoZJ2z_10async_nats9connectorNtB4_9Connector7connect0CslYd6v58rjWA_10nkey_tests
FN:95,_RINvMNtCs6qhVEmoZJ2z_10async_nats9connectorNtB3_9Connector3newNtNtCs1AhsD0INetT_5alloc6string6StringECsesyn6ELQ2kp_12object_store
FN:103,_RNCINvMNtCs6qhVEmoZJ2z_10async_nats9connectorNtB5_9Connector3newNtNtCs1AhsD0INetT_5alloc6string6StringE0Csesyn6ELQ2kp_12object_store
FN:432,_RNCNCNCNCNvMNtCs6qhVEmoZJ2z_10async_nats9connectorNtBa_9Connector14try_connect_to0s_000Csesyn6ELQ2kp_12object_store
FN:437,_RNCNCNCNCNvMNtCs6qhVEmoZJ2z_10async_nats9connectorNtBa_9Connector14try_connect_to0s_00s_0Csesyn6ELQ2kp_12object_store
FN:427,_RNCNCNCNvMNtCs6qhVEmoZJ2z_10async_nats9connectorNtB8_9Connector14try_connect_to0s_00Csesyn6ELQ2kp_12object_store
FN:147,_RNCNCNvMNtCs6qhVEmoZJ2z_10async_nats9connectorNtB6_9Connector11try_connect00Csesyn6ELQ2kp_12object_store
FN:192,_RNCNCNvMNtCs6qhVEmoZJ2z_10async_nats9connectorNtB6_9Connector11try_connect0s0_0Csesyn6ELQ2kp_12object_store
FN:198,_RNCNCNvMNtCs6qhVEmoZJ2z_10async_nats9connectorNtB6_9Connector11try_connect0s1_0Csesyn6ELQ2kp_12object_store
FN:276,_RNCNCNvMNtCs6qhVEmoZJ2z_10async_nats9connectorNtB6_9Connector11try_connect0s2_0Csesyn6ELQ2kp_12object_store
FN:288,_RNCNCNvMNtCs6qhVEmoZJ2z_10async_nats9connectorNtB6_9Connector11try_connect0s3_0Csesyn6ELQ2kp_12object_store
FN:179,_RNCNCNvMNtCs6qhVEmoZJ2z_10async_nats9connectorNtB6_9Connector11try_connect0s_0Csesyn6ELQ2kp_12object_store
FN:416,_RNCNCNvMNtCs6qhVEmoZJ2z_10async_nats9connectorNtB6_9Connector14try_connect_to00Csesyn6ELQ2kp_12object_store
FN:448,_RNCNCNvMNtCs6qhVEmoZJ2z_10async_nats9connectorNtB6_9Connector14try_connect_to0s_0Csesyn6ELQ2kp_12object_store
FN:139,_RNCNvMNtCs6qhVEmoZJ2z_10async_nats9connectorNtB4_9Connector11try_connect0Csesyn6ELQ2kp_12object_store
FN:362,_RNCNvMNtCs6qhVEmoZJ2z_10async_nats9connectorNtB4_9Connector14try_connect_to0Csesyn6ELQ2kp_12object_store
FN:116,_RNCNvMNtCs6qhVEmoZJ2z_10async_nats9connectorNtB4_9Connector7connect0Csesyn6ELQ2kp_12object_store
FN:95,_RINvMNtCs6qhVEmoZJ2z_10async_nats9connectorNtB3_9Connector3newNtNtCs1AhsD0INetT_5alloc6string6StringECscGYhHI872CP_13service_tests
FN:103,_RNCINvMNtCs6qhVEmoZJ2z_10async_nats9connectorNtB5_9Connector3newNtNtCs1AhsD0INetT_5alloc6string6StringE0CscGYhHI872CP_13service_tests
FN:432,_RNCNCNCNCNvMNtCs6qhVEmoZJ2z_10async_nats9connectorNtBa_9Connector14try_connect_to0s_000CscGYhHI872CP_13service_tests
FN:437,_RNCNCNCNCNvMNtCs6qhVEmoZJ2z_10async_nats9connectorNtBa_9Connector14try_connect_to0s_00s_0CscGYhHI872CP_13service_tests
FN:427,_RNCNCNCNvMNtCs6qhVEmoZJ2z_10async_nats9connectorNtB8_9Connector14try_connect_to0s_00CscGYhHI872CP_13service_tests
FN:147,_RNCNCNvMNtCs6qhVEmoZJ2z_10async_nats9connectorNtB6_9Connector11try_connect00CscGYhHI872CP_13service_tests
FN:192,_RNCNCNvMNtCs6qhVEmoZJ2z_10async_nats9connectorNtB6_9Connector11try_connect0s0_0CscGYhHI872CP_13service_tests
FN:198,_RNCNCNvMNtCs6qhVEmoZJ2z_10async_nats9connectorNtB6_9Connector11try_connect0s1_0CscGYhHI872CP_13service_tests
FN:276,_RNCNCNvMNtCs6qhVEmoZJ2z_10async_nats9connectorNtB6_9Connector11try_connect0s2_0CscGYhHI872CP_13service_tests
FN:288,_RNCNCNvMNtCs6qhVEmoZJ2z_10async_nats9connectorNtB6_9Connector11try_connect0s3_0CscGYhHI872CP_13service_tests
FN:179,_RNCNCNvMNtCs6qhVEmoZJ2z_10async_nats9connectorNtB6_9Connector11try_connect0s_0CscGYhHI872CP_13service_tests
FN:416,_RNCNCNvMNtCs6qhVEmoZJ2z_10async_nats9connectorNtB6_9Connector14try_connect_to00CscGYhHI872CP_13service_tests
FN:448,_RNCNCNvMNtCs6qhVEmoZJ2z_10async_nats9connectorNtB6_9Connector14try_connect_to0s_0CscGYhHI872CP_13service_tests
FN:139,_RNCNvMNtCs6qhVEmoZJ2z_10async_nats9connectorNtB4_9Connector11try_connect0CscGYhHI872CP_13service_tests
FN:362,_RNCNvMNtCs6qhVEmoZJ2z_10async_nats9connectorNtB4_9Connector14try_connect_to0CscGYhHI872CP_13service_tests
FN:116,_RNCNvMNtCs6qhVEmoZJ2z_10async_nats9connectorNtB4_9Connector7connect0CscGYhHI872CP_13service_tests
FN:95,_RINvMNtCs6qhVEmoZJ2z_10async_nats9connectorNtB3_9Connector3newNtNtCs1AhsD0INetT_5alloc6string6StringECs2VP52EYB5HS_9tls_tests
FN:95,_RINvMNtCs6qhVEmoZJ2z_10async_nats9connectorNtB3_9Connector3newRNtNtCs1AhsD0INetT_5alloc6string6StringECs2VP52EYB5HS_9tls_tests
FN:95,_RINvMNtCs6qhVEmoZJ2z_10async_nats9connectorNtB3_9Connector3newReECs2VP52EYB5HS_9tls_tests
FN:103,_RNCINvMNtCs6qhVEmoZJ2z_10async_nats9connectorNtB5_9Connector3newNtNtCs1AhsD0INetT_5alloc6string6StringE0Cs2VP52EYB5HS_9tls_tests
FN:103,_RNCINvMNtCs6qhVEmoZJ2z_10async_nats9connectorNtB5_9Connector3newRNtNtCs1AhsD0INetT_5alloc6string6StringE0Cs2VP52EYB5HS_9tls_tests
FN:103,_RNCINvMNtCs6qhVEmoZJ2z_10async_nats9connectorNtB5_9Connector3newReE0Cs2VP52EYB5HS_9tls_tests
FN:432,_RNCNCNCNCNvMNtCs6qhVEmoZJ2z_10async_nats9connectorNtBa_9Connector14try_connect_to0s_000Cs2VP52EYB5HS_9tls_tests
FN:437,_RNCNCNCNCNvMNtCs6qhVEmoZJ2z_10async_nats9connectorNtBa_9Connector14try_connect_to0s_00s_0Cs2VP52EYB5HS_9tls_tests
FN:427,_RNCNCNCNvMNtCs6qhVEmoZJ2z_10async_nats9connectorNtB8_9Connector14try_connect_to0s_00Cs2VP52EYB5HS_9tls_tests
FN:147,_RNCNCNvMNtCs6qhVEmoZJ2z_10async_nats9connectorNtB6_9Connector11try_connect00Cs2VP52EYB5HS_9tls_tests
FN:192,_RNCNCNvMNtCs6qhVEmoZJ2z_10async_nats9connectorNtB6_9Connector11try_connect0s0_0Cs2VP52EYB5HS_9tls_tests
FN:198,_RNCNCNvMNtCs6qhVEmoZJ2z_10async_nats9connectorNtB6_9Connector11try_connect0s1_0Cs2VP52EYB5HS_9tls_tests
FN:276,_RNCNCNvMNtCs6qhVEmoZJ2z_10async_nats9connectorNtB6_9Connector11try_connect0s2_0Cs2VP52EYB5HS_9tls_tests
FN:288,_RNCNCNvMNtCs6qhVEmoZJ2z_10async_nats9connectorNtB6_9Connector11try_connect0s3_0Cs2VP52EYB5HS_9tls_tests
FN:179,_RNCNCNvMNtCs6qhVEmoZJ2z_10async_nats9connectorNtB6_9Connector11try_connect0s_0Cs2VP52EYB5HS_9tls_tests
FN:416,_RNCNCNvMNtCs6qhVEmoZJ2z_10async_nats9connectorNtB6_9Connector14try_connect_to00Cs2VP52EYB5HS_9tls_tests
FN:448,_RNCNCNvMNtCs6qhVEmoZJ2z_10async_nats9connectorNtB6_9Connector14try_connect_to0s_0Cs2VP52EYB5HS_9tls_tests
FN:139,_RNCNvMNtCs6qhVEmoZJ2z_10async_nats9connectorNtB4_9Connector11try_connect0Cs2VP52EYB5HS_9tls_tests
FN:362,_RNCNvMNtCs6qhVEmoZJ2z_10async_nats9connectorNtB4_9Connector14try_connect_to0Cs2VP52EYB5HS_9tls_tests
FN:116,_RNCNvMNtCs6qhVEmoZJ2z_10async_nats9connectorNtB4_9Connector7connect0Cs2VP52EYB5HS_9tls_tests
FNDA:1,_RINvMNtCs1hbFQVFAImq_10async_nats9connectorNtB3_9Connector3newNtNtCs1AhsD0INetT_5alloc6string6StringEB5_
FNDA:1,_RNCINvMNtCs1hbFQVFAImq_10async_nats9connectorNtB5_9Connector3newNtNtCs1AhsD0INetT_5alloc6string6StringE0B7_
FNDA:0,_RNCNCNCNCNvMNtCs1hbFQVFAImq_10async_nats9connectorNtBa_9Connector14try_connect_to0s_000Bc_
FNDA:0,_RNCNCNCNCNvMNtCs1hbFQVFAImq_10async_nats9connectorNtBa_9Connector14try_connect_to0s_00s_0Bc_
FNDA:0,_RNCNCNCNvMNtCs1hbFQVFAImq_10async_nats9connectorNtB8_9Connector14try_connect_to0s_00Ba_
FNDA:0,_RNCNCNvMNtCs1hbFQVFAImq_10async_nats9connectorNtB6_9Connector11try_connect00B8_
FNDA:0,_RNCNCNvMNtCs1hbFQVFAImq_10async_nats9connectorNtB6_9Connector11try_connect0s0_0B8_
FNDA:0,_RNCNCNvMNtCs1hbFQVFAImq_10async_nats9connectorNtB6_9Connector11try_connect0s1_0B8_
FNDA:0,_RNCNCNvMNtCs1hbFQVFAImq_10async_nats9connectorNtB6_9Connector11try_connect0s2_0B8_
FNDA:0,_RNCNCNvMNtCs1hbFQVFAImq_10async_nats9connectorNtB6_9Connector11try_connect0s3_0B8_
FNDA:0,_RNCNCNvMNtCs1hbFQVFAImq_10async_nats9connectorNtB6_9Connector11try_connect0s_0B8_
FNDA:0,_RNCNCNvMNtCs1hbFQVFAImq_10async_nats9connectorNtB6_9Connector14try_connect_to00B8_
FNDA:0,_RNCNCNvMNtCs1hbFQVFAImq_10async_nats9connectorNtB6_9Connector14try_connect_to0s_0B8_
FNDA:1,_RNCNvMNtCs1hbFQVFAImq_10async_nats9connectorNtB4_9Connector11try_connect0B6_
FNDA:1,_RNCNvMNtCs1hbFQVFAImq_10async_nats9connectorNtB4_9Connector14try_connect_to0B6_
FNDA:0,_RNCNvMNtCs1hbFQVFAImq_10async_nats9connectorNtB4_9Connector7connect0B6_
FNDA:1,_RNvNtNtCs1hbFQVFAImq_10async_nats9connector5testss_33reconnect_delay_callback_duration
FNDA:1,_RNvMNtCs1hbFQVFAImq_10async_nats9connectorNtB2_9Connector11try_connect
FNDA:1,_RNvMNtCs1hbFQVFAImq_10async_nats9connectorNtB2_9Connector14try_connect_to
FNDA:0,_RNvMNtCs1hbFQVFAImq_10async_nats9connectorNtB2_9Connector7connect
FNDA:7,_RNvNtCs1hbFQVFAImq_10async_nats9connector32reconnect_delay_callback_default
FNDA:1,_RINvMNtCs6qhVEmoZJ2z_10async_nats9connectorNtB3_9Connector3newINtNtCs1AhsD0INetT_5alloc3vec3VecNtB5_10ServerAddrEECsdpdgC16NPIW_12client_tests
FNDA:40,_RINvMNtCs6qhVEmoZJ2z_10async_nats9connectorNtB3_9Connector3newNtNtCs1AhsD0INetT_5alloc6string6StringECsdpdgC16NPIW_12client_tests
FNDA:2,_RINvMNtCs6qhVEmoZJ2z_10async_nats9connectorNtB3_9Connector3newRSNtB5_10ServerAddrECsdpdgC16NPIW_12client_tests
FNDA:6,_RINvMNtCs6qhVEmoZJ2z_10async_nats9connectorNtB3_9Connector3newReECsdpdgC16NPIW_12client_tests
FNDA:2,_RNCINvMNtCs6qhVEmoZJ2z_10async_nats9connectorNtB5_9Connector3newINtNtCs1AhsD0INetT_5alloc3vec3VecNtB7_10ServerAddrEE0CsdpdgC16NPIW_12client_tests
FNDA:40,_RNCINvMNtCs6qhVEmoZJ2z_10async_nats9connectorNtB5_9Connector3newNtNtCs1AhsD0INetT_5alloc6string6StringE0CsdpdgC16NPIW_12client_tests
FNDA:6,_RNCINvMNtCs6qhVEmoZJ2z_10async_nats9connectorNtB5_9Connector3newRSNtB7_10ServerAddrE0CsdpdgC16NPIW_12client_tests
FNDA:6,_RNCINvMNtCs6qhVEmoZJ2z_10async_nats9connectorNtB5_9Connector3newReE0CsdpdgC16NPIW_12client_tests
FNDA:0,_RNCNCNCNCNvMNtCs6qhVEmoZJ2z_10async_nats9connectorNtBa_9Connector14try_connect_to0s_000CsdpdgC16NPIW_12client_tests
FNDA:0,_RNCNCNCNCNvMNtCs6qhVEmoZJ2z_10async_nats9connectorNtBa_9Connector14try_connect_to0s_00s_0CsdpdgC16NPIW_12client_tests
FNDA:2,_RNCNCNCNvMNtCs6qhVEmoZJ2z_10async_nats9connectorNtB8_9Connector14try_connect_to0s_00CsdpdgC16NPIW_12client_tests
FNDA:26,_RNCNCNvMNtCs6qhVEmoZJ2z_10async_nats9connectorNtB6_9Connector11try_connect00CsdpdgC16NPIW_12client_tests
FNDA:0,_RNCNCNvMNtCs6qhVEmoZJ2z_10async_nats9connectorNtB6_9Connector11try_connect0s0_0CsdpdgC16NPIW_12client_tests
FNDA:0,_RNCNCNvMNtCs6qhVEmoZJ2z_10async_nats9connectorNtB6_9Connector11try_connect0s1_0CsdpdgC16NPIW_12client_tests
FNDA:0,_RNCNCNvMNtCs6qhVEmoZJ2z_10async_nats9connectorNtB6_9Connector11try_connect0s2_0CsdpdgC16NPIW_12client_tests
FNDA:1,_RNCNCNvMNtCs6qhVEmoZJ2z_10async_nats9connectorNtB6_9Connector11try_connect0s3_0CsdpdgC16NPIW_12client_tests
FNDA:0,_RNCNCNvMNtCs6qhVEmoZJ2z_10async_nats9connectorNtB6_9Connector11try_connect0s_0CsdpdgC16NPIW_12client_tests
FNDA:1,_RNCNCNvMNtCs6qhVEmoZJ2z_10async_nats9connectorNtB6_9Connector14try_connect_to00CsdpdgC16NPIW_12client_tests
FNDA:2,_RNCNCNvMNtCs6qhVEmoZJ2z_10async_nats9connectorNtB6_9Connector14try_connect_to0s_0CsdpdgC16NPIW_12client_tests
FNDA:106,_RNCNvMNtCs6qhVEmoZJ2z_10async_nats9connectorNtB4_9Connector11try_connect0CsdpdgC16NPIW_12client_tests
FNDA:184,_RNCNvMNtCs6qhVEmoZJ2z_10async_nats9connectorNtB4_9Connector14try_connect_to0CsdpdgC16NPIW_12client_tests
FNDA:12,_RNCNvMNtCs6qhVEmoZJ2z_10async_nats9connectorNtB4_9Connector7connect0CsdpdgC16NPIW_12client_tests
FNDA:0,_RINvMNtCs6qhVEmoZJ2z_10async_nats9connectorNtB3_9Connector3newpEB5_
FNDA:0,_RNCINvMNtCs6qhVEmoZJ2z_10async_nats9connectorNtB5_9Connector3newpE0B7_
FNDA:0,_RNCNCNCNCNvMNtCs6qhVEmoZJ2z_10async_nats9connectorNtBa_9Connector14try_connect_to0s_000Bc_
FNDA:0,_RNCNCNCNCNvMNtCs6qhVEmoZJ2z_10async_nats9connectorNtBa_9Connector14try_connect_to0s_00s_0Bc_
FNDA:0,_RNCNCNCNvMNtCs6qhVEmoZJ2z_10async_nats9connectorNtB8_9Connector14try_connect_to0s_00Ba_
FNDA:0,_RNCNCNvMNtCs6qhVEmoZJ2z_10async_nats9connectorNtB6_9Connector11try_connect00B8_
FNDA:0,_RNCNCNvMNtCs6qhVEmoZJ2z_10async_nats9connectorNtB6_9Connector11try_connect0s0_0B8_
FNDA:0,_RNCNCNvMNtCs6qhVEmoZJ2z_10async_nats9connectorNtB6_9Connector11try_connect0s1_0B8_
FNDA:0,_RNCNCNvMNtCs6qhVEmoZJ2z_10async_nats9connectorNtB6_9Connector11try_connect0s2_0B8_
FNDA:0,_RNCNCNvMNtCs6qhVEmoZJ2z_10async_nats9connectorNtB6_9Connector11try_connect0s3_0B8_
FNDA:0,_RNCNCNvMNtCs6qhVEmoZJ2z_10async_nats9connectorNtB6_9Connector11try_connect0s_0B8_
FNDA:0,_RNCNCNvMNtCs6qhVEmoZJ2z_10async_nats9connectorNtB6_9Connector14try_connect_to00B8_
FNDA:0,_RNCNCNvMNtCs6qhVEmoZJ2z_10async_nats9connectorNtB6_9Connector14try_connect_to0s_0B8_
FNDA:0,_RNCNvMNtCs6qhVEmoZJ2z_10async_nats9connectorNtB4_9Connector11try_connect0B6_
FNDA:0,_RNCNvMNtCs6qhVEmoZJ2z_10async_nats9connectorNtB4_9Connector14try_connect_to0B6_
FNDA:0,_RNCNvMNtCs6qhVEmoZJ2z_10async_nats9connectorNtB4_9Connector7connect0B6_
FNDA:314,_RNvMNtCs6qhVEmoZJ2z_10async_nats9connectorNtB2_9Connector11try_connect
FNDA:466,_RNvMNtCs6qhVEmoZJ2z_10async_nats9connectorNtB2_9Connector14try_connect_to
FNDA:20,_RNvMNtCs6qhVEmoZJ2z_10async_nats9connectorNtB2_9Connector7connect
FNDA:342,_RNvNtCs6qhVEmoZJ2z_10async_nats9connector32reconnect_delay_callback_default
FNDA:91,_RINvMNtCs6qhVEmoZJ2z_10async_nats9connectorNtB3_9Connector3newNtNtCs1AhsD0INetT_5alloc6string6StringECsbhX8fe0itkR_15jetstream_tests
FNDA:1,_RINvMNtCs6qhVEmoZJ2z_10async_nats9connectorNtB3_9Connector3newRNtNtCs1AhsD0INetT_5alloc6string6StringECsbhX8fe0itkR_15jetstream_tests
FNDA:1,_RINvMNtCs6qhVEmoZJ2z_10async_nats9connectorNtB3_9Connector3newReECsbhX8fe0itkR_15jetstream_tests
FNDA:91,_RNCINvMNtCs6qhVEmoZJ2z_10async_nats9connectorNtB5_9Connector3newNtNtCs1AhsD0INetT_5alloc6string6StringE0CsbhX8fe0itkR_15jetstream_tests
FNDA:1,_RNCINvMNtCs6qhVEmoZJ2z_10async_nats9connectorNtB5_9Connector3newRNtNtCs1AhsD0INetT_5alloc6string6StringE0CsbhX8fe0itkR_15jetstream_tests
FNDA:1,_RNCINvMNtCs6qhVEmoZJ2z_10async_nats9connectorNtB5_9Connector3newReE0CsbhX8fe0itkR_15jetstream_tests
FNDA:0,_RNCNCNCNCNvMNtCs6qhVEmoZJ2z_10async_nats9connectorNtBa_9Connector14try_connect_to0s_000CsbhX8fe0itkR_15jetstream_tests
FNDA:0,_RNCNCNCNCNvMNtCs6qhVEmoZJ2z_10async_nats9connectorNtBa_9Connector14try_connect_to0s_00s_0CsbhX8fe0itkR_15jetstream_tests
FNDA:0,_RNCNCNCNvMNtCs6qhVEmoZJ2z_10async_nats9connectorNtB8_9Connector14try_connect_to0s_00CsbhX8fe0itkR_15jetstream_tests
FNDA:0,_RNCNCNvMNtCs6qhVEmoZJ2z_10async_nats9connectorNtB6_9Connector11try_connect00CsbhX8fe0itkR_15jetstream_tests
FNDA:0,_RNCNCNvMNtCs6qhVEmoZJ2z_10async_nats9connectorNtB6_9Connector11try_connect0s0_0CsbhX8fe0itkR_15jetstream_tests
FNDA:171,_RNCNCNvMNtCs6qhVEmoZJ2z_10async_nats9connectorNtB6_9Connector11try_connect0s1_0CsbhX8fe0itkR_15jetstream_tests
FNDA:0,_RNCNCNvMNtCs6qhVEmoZJ2z_10async_nats9connectorNtB6_9Connector11try_connect0s2_0CsbhX8fe0itkR_15jetstream_tests
FNDA:0,_RNCNCNvMNtCs6qhVEmoZJ2z_10async_nats9connectorNtB6_9Connector11try_connect0s3_0CsbhX8fe0itkR_15jetstream_tests
FNDA:0,_RNCNCNvMNtCs6qhVEmoZJ2z_10async_nats9connectorNtB6_9Connector11try_connect0s_0CsbhX8fe0itkR_15jetstream_tests
FNDA:0,_RNCNCNvMNtCs6qhVEmoZJ2z_10async_nats9connectorNtB6_9Connector14try_connect_to00CsbhX8fe0itkR_15jetstream_tests
FNDA:0,_RNCNCNvMNtCs6qhVEmoZJ2z_10async_nats9connectorNtB6_9Connector14try_connect_to0s_0CsbhX8fe0itkR_15jetstream_tests
FNDA:126,_RNCNvMNtCs6qhVEmoZJ2z_10async_nats9connectorNtB4_9Connector11try_connect0CsbhX8fe0itkR_15jetstream_tests
FNDA:153,_RNCNvMNtCs6qhVEmoZJ2z_10async_nats9connectorNtB4_9Connector14try_connect_to0CsbhX8fe0itkR_15jetstream_tests
FNDA:5,_RNCNvMNtCs6qhVEmoZJ2z_10async_nats9connectorNtB4_9Connector7connect0CsbhX8fe0itkR_15jetstream_tests
FNDA:2,_RINvMNtCs6qhVEmoZJ2z_10async_nats9connectorNtB3_9Connector3newNtNtCs1AhsD0INetT_5alloc6string6StringECsWLjOOar9jQ_9jwt_tests
FNDA:1,_RINvMNtCs6qhVEmoZJ2z_10async_nats9connectorNtB3_9Connector3newRSNtB5_10ServerAddrECsWLjOOar9jQ_9jwt_tests
FNDA:2,_RNCINvMNtCs6qhVEmoZJ2z_10async_nats9connectorNtB5_9Connector3newNtNtCs1AhsD0INetT_5alloc6string6StringE0CsWLjOOar9jQ_9jwt_tests
FNDA:3,_RNCINvMNtCs6qhVEmoZJ2z_10async_nats9connectorNtB5_9Connector3newRSNtB7_10ServerAddrE0CsWLjOOar9jQ_9jwt_tests
FNDA:0,_RNCNCNCNCNvMNtCs6qhVEmoZJ2z_10async_nats9connectorNtBa_9Connector14try_connect_to0s_000CsWLjOOar9jQ_9jwt_tests
FNDA:0,_RNCNCNCNCNvMNtCs6qhVEmoZJ2z_10async_nats9connectorNtBa_9Connector14try_connect_to0s_00s_0CsWLjOOar9jQ_9jwt_tests
FNDA:0,_RNCNCNCNvMNtCs6qhVEmoZJ2z_10async_nats9connectorNtB8_9Connector14try_connect_to0s_00CsWLjOOar9jQ_9jwt_tests
FNDA:10,_RNCNCNvMNtCs6qhVEmoZJ2z_10async_nats9connectorNtB6_9Connector11try_connect00CsWLjOOar9jQ_9jwt_tests
FNDA:0,_RNCNCNvMNtCs6qhVEmoZJ2z_10async_nats9connectorNtB6_9Connector11try_connect0s0_0CsWLjOOar9jQ_9jwt_tests
FNDA:0,_RNCNCNvMNtCs6qhVEmoZJ2z_10async_nats9connectorNtB6_9Connector11try_connect0s1_0CsWLjOOar9jQ_9jwt_tests
FNDA:0,_RNCNCNvMNtCs6qhVEmoZJ2z_10async_nats9connectorNtB6_9Connector11try_connect0s2_0CsWLjOOar9jQ_9jwt_tests
FNDA:0,_RNCNCNvMNtCs6qhVEmoZJ2z_10async_nats9connectorNtB6_9Connector11try_connect0s3_0CsWLjOOar9jQ_9jwt_tests
FNDA:0,_RNCNCNvMNtCs6qhVEmoZJ2z_10async_nats9connectorNtB6_9Connector11try_connect0s_0CsWLjOOar9jQ_9jwt_tests
FNDA:0,_RNCNCNvMNtCs6qhVEmoZJ2z_10async_nats9connectorNtB6_9Connector14try_connect_to00CsWLjOOar9jQ_9jwt_tests
FNDA:0,_RNCNCNvMNtCs6qhVEmoZJ2z_10async_nats9connectorNtB6_9Connector14try_connect_to0s_0CsWLjOOar9jQ_9jwt_tests
FNDA:7,_RNCNvMNtCs6qhVEmoZJ2z_10async_nats9connectorNtB4_9Connector11try_connect0CsWLjOOar9jQ_9jwt_tests
FNDA:25,_RNCNvMNtCs6qhVEmoZJ2z_10async_nats9connectorNtB4_9Connector14try_connect_to0CsWLjOOar9jQ_9jwt_tests
FNDA:1,_RNCNvMNtCs6qhVEmoZJ2z_10async_nats9connectorNtB4_9Connector7connect0CsWLjOOar9jQ_9jwt_tests
FNDA:29,_RINvMNtCs6qhVEmoZJ2z_10async_nats9connectorNtB3_9Connector3newNtNtCs1AhsD0INetT_5alloc6string6StringECs98b7hshCa6M_8kv_tests
FNDA:29,_RNCINvMNtCs6qhVEmoZJ2z_10async_nats9connectorNtB5_9Connector3newNtNtCs1AhsD0INetT_5alloc6string6StringE0Cs98b7hshCa6M_8kv_tests
FNDA:0,_RNCNCNCNCNvMNtCs6qhVEmoZJ2z_10async_nats9connectorNtBa_9Connector14try_connect_to0s_000Cs98b7hshCa6M_8kv_tests
FNDA:0,_RNCNCNCNCNvMNtCs6qhVEmoZJ2z_10async_nats9connectorNtBa_9Connector14try_connect_to0s_00s_0Cs98b7hshCa6M_8kv_tests
FNDA:0,_RNCNCNCNvMNtCs6qhVEmoZJ2z_10async_nats9connectorNtB8_9Connector14try_connect_to0s_00Cs98b7hshCa6M_8kv_tests
FNDA:0,_RNCNCNvMNtCs6qhVEmoZJ2z_10async_nats9connectorNtB6_9Connector11try_connect00Cs98b7hshCa6M_8kv_tests
FNDA:0,_RNCNCNvMNtCs6qhVEmoZJ2z_10async_nats9connectorNtB6_9Connector11try_connect0s0_0Cs98b7hshCa6M_8kv_tests
FNDA:0,_RNCNCNvMNtCs6qhVEmoZJ2z_10async_nats9connectorNtB6_9Connector11try_connect0s1_0Cs98b7hshCa6M_8kv_tests
FNDA:0,_RNCNCNvMNtCs6qhVEmoZJ2z_10async_nats9connectorNtB6_9Connector11try_connect0s2_0Cs98b7hshCa6M_8kv_tests
FNDA:0,_RNCNCNvMNtCs6qhVEmoZJ2z_10async_nats9connectorNtB6_9Connector11try_connect0s3_0Cs98b7hshCa6M_8kv_tests
FNDA:0,_RNCNCNvMNtCs6qhVEmoZJ2z_10async_nats9connectorNtB6_9Connector11try_connect0s_0Cs98b7hshCa6M_8kv_tests
FNDA:0,_RNCNCNvMNtCs6qhVEmoZJ2z_10async_nats9connectorNtB6_9Connector14try_connect_to00Cs98b7hshCa6M_8kv_tests
FNDA:0,_RNCNCNvMNtCs6qhVEmoZJ2z_10async_nats9connectorNtB6_9Connector14try_connect_to0s_0Cs98b7hshCa6M_8kv_tests
FNDA:29,_RNCNvMNtCs6qhVEmoZJ2z_10async_nats9connectorNtB4_9Connector11try_connect0Cs98b7hshCa6M_8kv_tests
FNDA:29,_RNCNvMNtCs6qhVEmoZJ2z_10async_nats9connectorNtB4_9Connector14try_connect_to0Cs98b7hshCa6M_8kv_tests
FNDA:0,_RNCNvMNtCs6qhVEmoZJ2z_10async_nats9connectorNtB4_9Connector7connect0Cs98b7hshCa6M_8kv_tests
FNDA:2,_RINvMNtCs6qhVEmoZJ2z_10async_nats9connectorNtB3_9Connector3newNtNtCs1AhsD0INetT_5alloc6string6StringECslYd6v58rjWA_10nkey_tests
FNDA:1,_RINvMNtCs6qhVEmoZJ2z_10async_nats9connectorNtB3_9Connector3newRSNtB5_10ServerAddrECslYd6v58rjWA_10nkey_tests
FNDA:2,_RNCINvMNtCs6qhVEmoZJ2z_10async_nats9connectorNtB5_9Connector3newNtNtCs1AhsD0INetT_5alloc6string6StringE0CslYd6v58rjWA_10nkey_tests
FNDA:3,_RNCINvMNtCs6qhVEmoZJ2z_10async_nats9connectorNtB5_9Connector3newRSNtB7_10ServerAddrE0CslYd6v58rjWA_10nkey_tests
FNDA:0,_RNCNCNCNCNvMNtCs6qhVEmoZJ2z_10async_nats9connectorNtBa_9Connector14try_connect_to0s_000CslYd6v58rjWA_10nkey_tests
FNDA:0,_RNCNCNCNCNvMNtCs6qhVEmoZJ2z_10async_nats9connectorNtBa_9Connector14try_connect_to0s_00s_0CslYd6v58rjWA_10nkey_tests
FNDA:0,_RNCNCNCNvMNtCs6qhVEmoZJ2z_10async_nats9connectorNtB8_9Connector14try_connect_to0s_00CslYd6v58rjWA_10nkey_tests
FNDA:12,_RNCNCNvMNtCs6qhVEmoZJ2z_10async_nats9connectorNtB6_9Connector11try_connect00CslYd6v58rjWA_10nkey_tests
FNDA:0,_RNCNCNvMNtCs6qhVEmoZJ2z_10async_nats9connectorNtB6_9Connector11try_connect0s0_0CslYd6v58rjWA_10nkey_tests
FNDA:0,_RNCNCNvMNtCs6qhVEmoZJ2z_10async_nats9connectorNtB6_9Connector11try_connect0s1_0CslYd6v58rjWA_10nkey_tests
FNDA:0,_RNCNCNvMNtCs6qhVEmoZJ2z_10async_nats9connectorNtB6_9Connector11try_connect0s2_0CslYd6v58rjWA_10nkey_tests
FNDA:0,_RNCNCNvMNtCs6qhVEmoZJ2z_10async_nats9connectorNtB6_9Connector11try_connect0s3_0CslYd6v58rjWA_10nkey_tests
FNDA:0,_RNCNCNvMNtCs6qhVEmoZJ2z_10async_nats9connectorNtB6_9Connector11try_connect0s_0CslYd6v58rjWA_10nkey_tests
FNDA:0,_RNCNCNvMNtCs6qhVEmoZJ2z_10async_nats9connectorNtB6_9Connector14try_connect_to00CslYd6v58rjWA_10nkey_tests
FNDA:0,_RNCNCNvMNtCs6qhVEmoZJ2z_10async_nats9connectorNtB6_9Connector14try_connect_to0s_0CslYd6v58rjWA_10nkey_tests
FNDA:8,_RNCNvMNtCs6qhVEmoZJ2z_10async_nats9connectorNtB4_9Connector11try_connect0CslYd6v58rjWA_10nkey_tests
FNDA:28,_RNCNvMNtCs6qhVEmoZJ2z_10async_nats9connectorNtB4_9Connector14try_connect_to0CslYd6v58rjWA_10nkey_tests
FNDA:2,_RNCNvMNtCs6qhVEmoZJ2z_10async_nats9connectorNtB4_9Connector7connect0CslYd6v58rjWA_10nkey_tests
FNDA:14,_RINvMNtCs6qhVEmoZJ2z_10async_nats9connectorNtB3_9Connector3newNtNtCs1AhsD0INetT_5alloc6string6StringECsesyn6ELQ2kp_12object_store
FNDA:14,_RNCINvMNtCs6qhVEmoZJ2z_10async_nats9connectorNtB5_9Connector3newNtNtCs1AhsD0INetT_5alloc6string6StringE0Csesyn6ELQ2kp_12object_store
FNDA:0,_RNCNCNCNCNvMNtCs6qhVEmoZJ2z_10async_nats9connectorNtBa_9Connector14try_connect_to0s_000Csesyn6ELQ2kp_12object_store
FNDA:0,_RNCNCNCNCNvMNtCs6qhVEmoZJ2z_10async_nats9connectorNtBa_9Connector14try_connect_to0s_00s_0Csesyn6ELQ2kp_12object_store
FNDA:0,_RNCNCNCNvMNtCs6qhVEmoZJ2z_10async_nats9connectorNtB8_9Connector14try_connect_to0s_00Csesyn6ELQ2kp_12object_store
FNDA:0,_RNCNCNvMNtCs6qhVEmoZJ2z_10async_nats9connectorNtB6_9Connector11try_connect00Csesyn6ELQ2kp_12object_store
FNDA:0,_RNCNCNvMNtCs6qhVEmoZJ2z_10async_nats9connectorNtB6_9Connector11try_connect0s0_0Csesyn6ELQ2kp_12object_store
FNDA:0,_RNCNCNvMNtCs6qhVEmoZJ2z_10async_nats9connectorNtB6_9Connector11try_connect0s1_0Csesyn6ELQ2kp_12object_store
FNDA:0,_RNCNCNvMNtCs6qhVEmoZJ2z_10async_nats9connectorNtB6_9Connector11try_connect0s2_0Csesyn6ELQ2kp_12object_store
FNDA:0,_RNCNCNvMNtCs6qhVEmoZJ2z_10async_nats9connectorNtB6_9Connector11try_connect0s3_0Csesyn6ELQ2kp_12object_store
FNDA:0,_RNCNCNvMNtCs6qhVEmoZJ2z_10async_nats9connectorNtB6_9Connector11try_connect0s_0Csesyn6ELQ2kp_12object_store
FNDA:0,_RNCNCNvMNtCs6qhVEmoZJ2z_10async_nats9connectorNtB6_9Connector14try_connect_to00Csesyn6ELQ2kp_12object_store
FNDA:0,_RNCNCNvMNtCs6qhVEmoZJ2z_10async_nats9connectorNtB6_9Connector14try_connect_to0s_0Csesyn6ELQ2kp_12object_store
FNDA:14,_RNCNvMNtCs6qhVEmoZJ2z_10async_nats9connectorNtB4_9Connector11try_connect0Csesyn6ELQ2kp_12object_store
FNDA:14,_RNCNvMNtCs6qhVEmoZJ2z_10async_nats9connectorNtB4_9Connector14try_connect_to0Csesyn6ELQ2kp_12object_store
FNDA:0,_RNCNvMNtCs6qhVEmoZJ2z_10async_nats9connectorNtB4_9Connector7connect0Csesyn6ELQ2kp_12object_store
FNDA:11,_RINvMNtCs6qhVEmoZJ2z_10async_nats9connectorNtB3_9Connector3newNtNtCs1AhsD0INetT_5alloc6string6StringECscGYhHI872CP_13service_tests
FNDA:11,_RNCINvMNtCs6qhVEmoZJ2z_10async_nats9connectorNtB5_9Connector3newNtNtCs1AhsD0INetT_5alloc6string6StringE0CscGYhHI872CP_13service_tests
FNDA:0,_RNCNCNCNCNvMNtCs6qhVEmoZJ2z_10async_nats9connectorNtBa_9Connector14try_connect_to0s_000CscGYhHI872CP_13service_tests
FNDA:0,_RNCNCNCNCNvMNtCs6qhVEmoZJ2z_10async_nats9connectorNtBa_9Connector14try_connect_to0s_00s_0CscGYhHI872CP_13service_tests
FNDA:0,_RNCNCNCNvMNtCs6qhVEmoZJ2z_10async_nats9connectorNtB8_9Connector14try_connect_to0s_00CscGYhHI872CP_13service_tests
FNDA:0,_RNCNCNvMNtCs6qhVEmoZJ2z_10async_nats9connectorNtB6_9Connector11try_connect00CscGYhHI872CP_13service_tests
FNDA:0,_RNCNCNvMNtCs6qhVEmoZJ2z_10async_nats9connectorNtB6_9Connector11try_connect0s0_0CscGYhHI872CP_13service_tests
FNDA:0,_RNCNCNvMNtCs6qhVEmoZJ2z_10async_nats9connectorNtB6_9Connector11try_connect0s1_0CscGYhHI872CP_13service_tests
FNDA:0,_RNCNCNvMNtCs6qhVEmoZJ2z_10async_nats9connectorNtB6_9Connector11try_connect0s2_0CscGYhHI872CP_13service_tests
FNDA:0,_RNCNCNvMNtCs6qhVEmoZJ2z_10async_nats9connectorNtB6_9Connector11try_connect0s3_0CscGYhHI872CP_13service_tests
FNDA:0,_RNCNCNvMNtCs6qhVEmoZJ2z_10async_nats9connectorNtB6_9Connector11try_connect0s_0CscGYhHI872CP_13service_tests
FNDA:0,_RNCNCNvMNtCs6qhVEmoZJ2z_10async_nats9connectorNtB6_9Connector14try_connect_to00CscGYhHI872CP_13service_tests
FNDA:0,_RNCNCNvMNtCs6qhVEmoZJ2z_10async_nats9connectorNtB6_9Connector14try_connect_to0s_0CscGYhHI872CP_13service_tests
FNDA:11,_RNCNvMNtCs6qhVEmoZJ2z_10async_nats9connectorNtB4_9Connector11try_connect0CscGYhHI872CP_13service_tests
FNDA:11,_RNCNvMNtCs6qhVEmoZJ2z_10async_nats9connectorNtB4_9Connector14try_connect_to0CscGYhHI872CP_13service_tests
FNDA:0,_RNCNvMNtCs6qhVEmoZJ2z_10async_nats9connectorNtB4_9Connector7connect0CscGYhHI872CP_13service_tests
FNDA:6,_RINvMNtCs6qhVEmoZJ2z_10async_nats9connectorNtB3_9Connector3newNtNtCs1AhsD0INetT_5alloc6string6StringECs2VP52EYB5HS_9tls_tests
FNDA:3,_RINvMNtCs6qhVEmoZJ2z_10async_nats9connectorNtB3_9Connector3newRNtNtCs1AhsD0INetT_5alloc6string6StringECs2VP52EYB5HS_9tls_tests
FNDA:4,_RINvMNtCs6qhVEmoZJ2z_10async_nats9connectorNtB3_9Connector3newReECs2VP52EYB5HS_9tls_tests
FNDA:6,_RNCINvMNtCs6qhVEmoZJ2z_10async_nats9connectorNtB5_9Connector3newNtNtCs1AhsD0INetT_5alloc6string6StringE0Cs2VP52EYB5HS_9tls_tests
FNDA:3,_RNCINvMNtCs6qhVEmoZJ2z_10async_nats9connectorNtB5_9Connector3newRNtNtCs1AhsD0INetT_5alloc6string6StringE0Cs2VP52EYB5HS_9tls_tests
FNDA:4,_RNCINvMNtCs6qhVEmoZJ2z_10async_nats9connectorNtB5_9Connector3newReE0Cs2VP52EYB5HS_9tls_tests
FNDA:0,_RNCNCNCNCNvMNtCs6qhVEmoZJ2z_10async_nats9connectorNtBa_9Connector14try_connect_to0s_000Cs2VP52EYB5HS_9tls_tests
FNDA:0,_RNCNCNCNCNvMNtCs6qhVEmoZJ2z_10async_nats9connectorNtBa_9Connector14try_connect_to0s_00s_0Cs2VP52EYB5HS_9tls_tests
FNDA:12,_RNCNCNCNvMNtCs6qhVEmoZJ2z_10async_nats9connectorNtB8_9Connector14try_connect_to0s_00Cs2VP52EYB5HS_9tls_tests
FNDA:0,_RNCNCNvMNtCs6qhVEmoZJ2z_10async_nats9connectorNtB6_9Connector11try_connect00Cs2VP52EYB5HS_9tls_tests
FNDA:0,_RNCNCNvMNtCs6qhVEmoZJ2z_10async_nats9connectorNtB6_9Connector11try_connect0s0_0Cs2VP52EYB5HS_9tls_tests
FNDA:0,_RNCNCNvMNtCs6qhVEmoZJ2z_10async_nats9connectorNtB6_9Connector11try_connect0s1_0Cs2VP52EYB5HS_9tls_tests
FNDA:0,_RNCNCNvMNtCs6qhVEmoZJ2z_10async_nats9connectorNtB6_9Connector11try_connect0s2_0Cs2VP52EYB5HS_9tls_tests
FNDA:0,_RNCNCNvMNtCs6qhVEmoZJ2z_10async_nats9connectorNtB6_9Connector11try_connect0s3_0Cs2VP52EYB5HS_9tls_tests
FNDA:0,_RNCNCNvMNtCs6qhVEmoZJ2z_10async_nats9connectorNtB6_9Connector11try_connect0s_0Cs2VP52EYB5HS_9tls_tests
FNDA:0,_RNCNCNvMNtCs6qhVEmoZJ2z_10async_nats9connectorNtB6_9Connector14try_connect_to00Cs2VP52EYB5HS_9tls_tests
FNDA:12,_RNCNCNvMNtCs6qhVEmoZJ2z_10async_nats9connectorNtB6_9Connector14try_connect_to0s_0Cs2VP52EYB5HS_9tls_tests
FNDA:13,_RNCNvMNtCs6qhVEmoZJ2z_10async_nats9connectorNtB4_9Connector11try_connect0Cs2VP52EYB5HS_9tls_tests
FNDA:22,_RNCNvMNtCs6qhVEmoZJ2z_10async_nats9connectorNtB4_9Connector14try_connect_to0Cs2VP52EYB5HS_9tls_tests
FNDA:0,_RNCNvMNtCs6qhVEmoZJ2z_10async_nats9connectorNtB4_9Connector7connect0Cs2VP52EYB5HS_9tls_tests
FNF:21
FNH:16
DA:84,349
DA:85,349
DA:86,233
DA:88,116
DA:89,116
DA:90,116
DA:92,349
DA:95,216
DA:96,216
DA:97,216
DA:98,216
DA:99,216
DA:100,216
DA:101,216
DA:102,216
DA:103,225
DA:105,216
DA:106,216
DA:107,216
DA:108,216
DA:109,216
DA:110,216
DA:111,216
DA:112,216
DA:113,216
DA:114,216
DA:116,20
DA:118,103
DA:119,9
DA:120,9
DA:122,84
DA:124,1
DA:125,1
DA:126,1
DA:127,1
DA:129,83
DA:130,83
DA:131,83
DA:132,83
DA:133,83
DA:137,10
DA:139,315
DA:140,315
DA:141,315
DA:143,315
DA:144,315
DA:145,314
DA:147,314
DA:148,1
DA:150,441
DA:151,349
DA:152,349
DA:153,6
DA:154,1
DA:157,0
DA:159,1
DA:160,1
DA:161,1
DA:162,1
DA:163,5
DA:164,343
DA:166,348
DA:167,348
DA:170,0
DA:171,0
DA:174,348
DA:176,338
DA:177,338
DA:178,338
DA:179,338
DA:180,593
DA:181,467
DA:182,467
DA:183,467
DA:184,467
DA:185,467
DA:187,467
DA:189,212
DA:190,212
DA:191,230
DA:192,18
DA:193,0
DA:194,0
DA:195,0
DA:197,0
DA:198,171
DA:199,18
DA:201,0
DA:203,18
DA:204,0
DA:206,0
DA:208,212
DA:209,212
DA:210,212
DA:211,212
DA:212,212
DA:213,212
DA:214,212
DA:215,212
DA:216,212
DA:217,212
DA:218,212
DA:219,212
DA:220,212
DA:221,212
DA:222,212
DA:223,212
DA:224,212
DA:225,212
DA:226,212
DA:228,212
DA:229,4
DA:230,4
DA:231,4
DA:232,4
DA:233,4
DA:234,4
DA:235,4
DA:236,4
DA:237,4
DA:239,0
DA:240,0
DA:241,0
DA:242,0
DA:247,0
DA:248,0
DA:249,0
DA:250,0
DA:253,208
DA:255,212
DA:256,5
DA:257,5
DA:258,5
DA:259,5
DA:260,5
DA:261,5
DA:263,0
DA:264,0
DA:265,0
DA:266,0
DA:269,0
DA:270,207
DA:272,212
DA:273,2
DA:274,2
DA:275,2
DA:276,2
DA:277,0
DA:278,0
DA:279,0
DA:280,0
DA:282,0
DA:283,2
DA:284,2
DA:285,2
DA:286,2
DA:287,2
DA:288,2
DA:289,2
DA:290,2
DA:291,210
DA:293,212
DA:294,212
DA:295,212
DA:296,212
DA:297,212
DA:299,212
DA:300,2
DA:302,2
DA:303,2
DA:304,2
DA:305,2
DA:306,2
DA:308,0
DA:309,0
DA:310,0
DA:311,0
DA:312,0
DA:313,0
DA:317,210
DA:320,0
DA:322,210
DA:323,210
DA:324,210
DA:325,210
DA:326,210
DA:327,210
DA:328,210
DA:329,210
DA:330,210
DA:333,0
DA:334,0
DA:335,0
DA:336,0
DA:337,0
DA:342,255
DA:343,255
DA:346,0
DA:348,255
DA:354,92
DA:355,305
DA:357,467
DA:358,467
DA:359,467
DA:360,467
DA:361,467
DA:362,467
DA:363,467
DA:366,0
DA:368,467
DA:411,467
DA:412,467
DA:413,467
DA:414,467
DA:415,467
DA:416,467
DA:417,219
DA:419,219
DA:420,219
DA:421,219
DA:422,219
DA:427,219
DA:428,14
DA:429,14
DA:430,14
DA:431,14
DA:432,14
DA:434,14
DA:436,14
DA:437,14
DA:439,14
DA:440,14
DA:441,14
DA:443,8
DA:444,8
DA:445,8
DA:446,8
DA:447,8
DA:448,28
DA:453,219
DA:454,2
DA:455,217
DA:457,219
DA:458,218
DA:459,218
DA:460,218
DA:463,0
DA:465,218
DA:467,0
DA:468,0
DA:469,0
DA:470,0
DA:471,0
DA:472,0
DA:475,1
DA:476,1
DA:477,1
DA:478,1
DA:479,1
DA:484,218
DA:485,216
DA:486,216
DA:488,12
DA:489,206
DA:491,212
DA:492,467
DA:500,1
DA:501,1
DA:502,1
DA:504,1
DA:505,1
DA:507,1
DA:508,1
DA:510,1
DA:511,1
DA:513,1
DA:514,1
DA:517,1
DA:518,1
DA:519,1
BRF:0
BRH:0
LF:297
LH:228
end_of_record
SF:/Users/tomaszpietrek/coding/nats.rs/async-nats/src/crypto.rs
FN:14,_RNvMNtCs1hbFQVFAImq_10async_nats6cryptoNtB2_6Sha2563new
FN:22,_RNvMNtCs1hbFQVFAImq_10async_nats6cryptoNtB2_6Sha2566finish
FN:18,_RNvMNtCs1hbFQVFAImq_10async_nats6cryptoNtB2_6Sha2566update
FN:14,_RNvMNtCs6qhVEmoZJ2z_10async_nats6cryptoNtB2_6Sha2563new
FN:22,_RNvMNtCs6qhVEmoZJ2z_10async_nats6cryptoNtB2_6Sha2566finish
FN:18,_RNvMNtCs6qhVEmoZJ2z_10async_nats6cryptoNtB2_6Sha2566update
FNDA:0,_RNvMNtCs1hbFQVFAImq_10async_nats6cryptoNtB2_6Sha2563new
FNDA:0,_RNvMNtCs1hbFQVFAImq_10async_nats6cryptoNtB2_6Sha2566finish
FNDA:0,_RNvMNtCs1hbFQVFAImq_10async_nats6cryptoNtB2_6Sha2566update
FNDA:47,_RNvMNtCs6qhVEmoZJ2z_10async_nats6cryptoNtB2_6Sha2563new
FNDA:45,_RNvMNtCs6qhVEmoZJ2z_10async_nats6cryptoNtB2_6Sha2566finish
FNDA:100,_RNvMNtCs6qhVEmoZJ2z_10async_nats6cryptoNtB2_6Sha2566update
FNF:3
FNH:3
DA:14,47
DA:15,47
DA:16,47
DA:18,100
DA:19,100
DA:20,100
DA:22,45
DA:23,45
DA:24,45
DA:25,45
BRF:0
BRH:0
LF:10
LH:10
end_of_record
SF:/Users/tomaszpietrek/coding/nats.rs/async-nats/src/error.rs
FN:117,_RNvNtNtCs1hbFQVFAImq_10async_nats5error4tests_11with_source
FN:134,_RNvNtNtCs1hbFQVFAImq_10async_nats5error4tests_22display_without_source
FN:110,_RNvNtNtCs1hbFQVFAImq_10async_nats5error4tests_3new
FN:140,_RNvNtNtCs1hbFQVFAImq_10async_nats5error4tests_4from
FN:125,_RNvNtNtCs1hbFQVFAImq_10async_nats5error4tests_4kind
FN:98,_RNvXNtNtCs1hbFQVFAImq_10async_nats5error4testNtB2_12FooErrorKindNtNtCs2CqrNpCrSUr_4core3fmt7Display3fmt
FN:34,_RINvMNtCs1hbFQVFAImq_10async_nats5errorINtB3_5ErrorNtB5_16ConnectErrorKindE11with_sourceBB_EB5_
FN:34,_RINvMNtCs1hbFQVFAImq_10async_nats5errorINtB3_5ErrorNtB5_16ConnectErrorKindE11with_sourceNtB5_11ServerErrorEB5_
FN:34,_RINvMNtCs1hbFQVFAImq_10async_nats5errorINtB3_5ErrorNtB5_16ConnectErrorKindE11with_sourceNtNtB5_7options9AuthErrorEB5_
FN:34,_RINvMNtCs1hbFQVFAImq_10async_nats5errorINtB3_5ErrorNtB5_16ConnectErrorKindE11with_sourceNtNtCs1AhsD0INetT_5alloc6string6StringEB5_
FN:34,_RINvMNtCs1hbFQVFAImq_10async_nats5errorINtB3_5ErrorNtB5_16ConnectErrorKindE11with_sourceNtNtCs8ONXqJnTXiZ_16rustls_pki_types11server_name19InvalidDnsNameErrorEB5_
FN:34,_RINvMNtCs1hbFQVFAImq_10async_nats5errorINtB3_5ErrorNtB5_16ConnectErrorKindE11with_sourceNtNtNtCs4N3M0UGf3SB_3std2io5error5ErrorEB5_
FN:34,_RINvMNtCs1hbFQVFAImq_10async_nats5errorINtB3_5ErrorNtB5_16ConnectErrorKindE11with_sourceReEB5_
FN:34,_RINvMNtCs1hbFQVFAImq_10async_nats5errorINtB3_5ErrorNtNtB3_4test12FooErrorKindE11with_sourceNtNtNtCs4N3M0UGf3SB_3std2io5error5ErrorEB5_
FN:70,_RNCNvXs0_NtCs1hbFQVFAImq_10async_nats5errorINtB7_5ErrorNtB9_16ConnectErrorKindENtNtCs2CqrNpCrSUr_4core5error5Error6source0B9_
FN:30,_RNvMNtCs1hbFQVFAImq_10async_nats5errorINtB2_5ErrorNtB4_16ConnectErrorKindE3newB4_
FN:45,_RNvMNtCs1hbFQVFAImq_10async_nats5errorINtB2_5ErrorNtB4_16ConnectErrorKindE4kindB4_
FN:30,_RNvMNtCs1hbFQVFAImq_10async_nats5errorINtB2_5ErrorNtNtB2_4test12FooErrorKindE3newB4_
FN:45,_RNvMNtCs1hbFQVFAImq_10async_nats5errorINtB2_5ErrorNtNtB2_4test12FooErrorKindE4kindB4_
FN:67,_RNvXs0_NtCs1hbFQVFAImq_10async_nats5errorINtB5_5ErrorNtB7_16ConnectErrorKindENtNtCs2CqrNpCrSUr_4core5error5Error6sourceB7_
FN:78,_RNvXs1_NtCs1hbFQVFAImq_10async_nats5errorINtB5_5ErrorNtNtB5_4test12FooErrorKindEINtNtCs2CqrNpCrSUr_4core7convert4FromBP_E4fromB7_
FN:54,_RNvXs_NtCs1hbFQVFAImq_10async_nats5errorINtB4_5ErrorNtB6_16ConnectErrorKindENtNtCs2CqrNpCrSUr_4core3fmt7Display3fmtB6_
FN:54,_RNvXs_NtCs1hbFQVFAImq_10async_nats5errorINtB4_5ErrorNtNtB4_4test12FooErrorKindENtNtCs2CqrNpCrSUr_4core3fmt7Display3fmtB6_
FN:34,_RINvMNtCs6qhVEmoZJ2z_10async_nats5errorINtB3_5ErrorNtB5_16ConnectErrorKindE11with_sourceBB_ECsdpdgC16NPIW_12client_tests
FN:34,_RINvMNtCs6qhVEmoZJ2z_10async_nats5errorINtB3_5ErrorNtB5_16ConnectErrorKindE11with_sourceNtB5_11ServerErrorECsdpdgC16NPIW_12client_tests
FN:34,_RINvMNtCs6qhVEmoZJ2z_10async_nats5errorINtB3_5ErrorNtB5_16ConnectErrorKindE11with_sourceNtNtB5_7options9AuthErrorECsdpdgC16NPIW_12client_tests
FN:34,_RINvMNtCs6qhVEmoZJ2z_10async_nats5errorINtB3_5ErrorNtB5_16ConnectErrorKindE11with_sourceNtNtCs1AhsD0INetT_5alloc6string6StringECsdpdgC16NPIW_12client_tests
FN:34,_RINvMNtCs6qhVEmoZJ2z_10async_nats5errorINtB3_5ErrorNtB5_16ConnectErrorKindE11with_sourceNtNtCs8ONXqJnTXiZ_16rustls_pki_types11server_name19InvalidDnsNameErrorECsdpdgC16NPIW_12client_tests
FN:34,_RINvMNtCs6qhVEmoZJ2z_10async_nats5errorINtB3_5ErrorNtB5_16ConnectErrorKindE11with_sourceReECsdpdgC16NPIW_12client_tests
FN:34,_RINvMNtCs6qhVEmoZJ2z_10async_nats5errorINtB3_5ErrorNtNtB5_6client14FlushErrorKindE11with_sourceINtNtNtNtCskNaXoohSNNl_5tokio4sync4mpsc5error9SendErrorNtB5_7CommandEECsdpdgC16NPIW_12client_tests
FN:34,_RINvMNtCs6qhVEmoZJ2z_10async_nats5errorINtB3_5ErrorNtNtB5_6client14FlushErrorKindE11with_sourceNtNtNtNtCskNaXoohSNNl_5tokio4sync7oneshot5error9RecvErrorECsdpdgC16NPIW_12client_tests
FN:70,_RNCNvXs0_NtCs6qhVEmoZJ2z_10async_nats5errorINtB7_5ErrorNtB9_16ConnectErrorKindENtNtCs2CqrNpCrSUr_4core5error5Error6source0CsdpdgC16NPIW_12client_tests
FN:30,_RNvMNtCs6qhVEmoZJ2z_10async_nats5errorINtB2_5ErrorNtB4_16ConnectErrorKindE3newCsdpdgC16NPIW_12client_tests
FN:45,_RNvMNtCs6qhVEmoZJ2z_10async_nats5errorINtB2_5ErrorNtB4_16ConnectErrorKindE4kindCsdpdgC16NPIW_12client_tests
FN:67,_RNvXs0_NtCs6qhVEmoZJ2z_10async_nats5errorINtB5_5ErrorNtB7_16ConnectErrorKindENtNtCs2CqrNpCrSUr_4core5error5Error6sourceCsdpdgC16NPIW_12client_tests
FN:54,_RNvXs_NtCs6qhVEmoZJ2z_10async_nats5errorINtB4_5ErrorNtB6_16ConnectErrorKindENtNtCs2CqrNpCrSUr_4core3fmt7Display3fmtCsdpdgC16NPIW_12client_tests
FN:34,_RINvMNtCs6qhVEmoZJ2z_10async_nats5errorINtB3_5ErrorNtB5_16ConnectErrorKindE11with_sourceNtNtNtCs4N3M0UGf3SB_3std2io5error5ErrorEB5_
FN:34,_RINvMNtCs6qhVEmoZJ2z_10async_nats5errorINtB3_5ErrorNtNtB5_6client16PublishErrorKindE11with_sourceINtNtNtCshOwRwf5n7ZO_10tokio_util4sync4mpsc13PollSendErrorNtB5_7CommandEEB5_
FN:34,_RINvMNtCs6qhVEmoZJ2z_10async_nats5errorINtB3_5ErrorNtNtB5_6client16PublishErrorKindE11with_sourceINtNtNtNtCskNaXoohSNNl_5tokio4sync4mpsc5error9SendErrorNtB5_7CommandEEB5_
FN:34,_RINvMNtCs6qhVEmoZJ2z_10async_nats5errorINtB3_5ErrorNtNtB5_6client16PublishErrorKindE11with_sourceNtNtCs1AhsD0INetT_5alloc6string6StringEB5_
FN:34,_RINvMNtCs6qhVEmoZJ2z_10async_nats5errorINtB3_5ErrorNtNtB5_6client16RequestErrorKindE11with_sourceIBC_NtBP_16PublishErrorKindEEB5_
FN:34,_RINvMNtCs6qhVEmoZJ2z_10async_nats5errorINtB3_5ErrorNtNtB5_6client16RequestErrorKindE11with_sourceIBC_NtNtNtB5_9jetstream7context21ConsumerInfoErrorKindEEB5_
FN:34,_RINvMNtCs6qhVEmoZJ2z_10async_nats5errorINtB3_5ErrorNtNtB5_6client16RequestErrorKindE11with_sourceINtNtNtNtCskNaXoohSNNl_5tokio4sync4mpsc5error9SendErrorNtB5_7CommandEEB5_
FN:34,_RINvMNtCs6qhVEmoZJ2z_10async_nats5errorINtB3_5ErrorNtNtB5_6client16RequestErrorKindE11with_sourceNtBP_14SubscribeErrorEB5_
FN:34,_RINvMNtCs6qhVEmoZJ2z_10async_nats5errorINtB3_5ErrorNtNtB5_6client16RequestErrorKindE11with_sourceNtNtNtCskNaXoohSNNl_5tokio4time5error7ElapsedEB5_
FN:34,_RINvMNtCs6qhVEmoZJ2z_10async_nats5errorINtB3_5ErrorNtNtB5_6client16RequestErrorKindE11with_sourceNtNtNtNtCskNaXoohSNNl_5tokio4sync7oneshot5error9RecvErrorEB5_
FN:34,_RINvMNtCs6qhVEmoZJ2z_10async_nats5errorINtB3_5ErrorNtNtB5_6client16RequestErrorKindE11with_sourceReEB5_
FN:34,_RINvMNtCs6qhVEmoZJ2z_10async_nats5errorINtB3_5ErrorNtNtNtB5_9jetstream12object_store12GetErrorKindE11with_sourceIBC_NtBP_13InfoErrorKindEEB5_
FN:34,_RINvMNtCs6qhVEmoZJ2z_10async_nats5errorINtB3_5ErrorNtNtNtB5_9jetstream12object_store12GetErrorKindE11with_sourceIBC_NtNtBR_6stream17ConsumerErrorKindEEB5_
FN:34,_RINvMNtCs6qhVEmoZJ2z_10async_nats5errorINtB3_5ErrorNtNtNtB5_9jetstream12object_store12GetErrorKindE11with_sourceIBC_NtNtBR_8consumer15StreamErrorKindEEB5_
FN:34,_RINvMNtCs6qhVEmoZJ2z_10async_nats5errorINtB3_5ErrorNtNtNtB5_9jetstream12object_store12PutErrorKindE11with_sourceIBC_NtBP_24PublishMetadataErrorKindEEB5_
FN:34,_RINvMNtCs6qhVEmoZJ2z_10async_nats5errorINtB3_5ErrorNtNtNtB5_9jetstream12object_store13SealErrorKindE11with_sourceIBC_NtNtBR_7context21CreateStreamErrorKindEEB5_
FN:34,_RINvMNtCs6qhVEmoZJ2z_10async_nats5errorINtB3_5ErrorNtNtNtB5_9jetstream12object_store14WatchErrorKindE11with_sourceIBC_NtNtBR_6stream17ConsumerErrorKindEEB5_
FN:34,_RINvMNtCs6qhVEmoZJ2z_10async_nats5errorINtB3_5ErrorNtNtNtB5_9jetstream12object_store14WatchErrorKindE11with_sourceIBC_NtNtBR_8consumer15StreamErrorKindEEB5_
FN:34,_RINvMNtCs6qhVEmoZJ2z_10async_nats5errorINtB3_5ErrorNtNtNtB5_9jetstream12object_store15DeleteErrorKindE11with_sourceIBC_NtBP_13InfoErrorKindEEB5_
FN:34,_RINvMNtCs6qhVEmoZJ2z_10async_nats5errorINtB3_5ErrorNtNtNtB5_9jetstream12object_store15DeleteErrorKindE11with_sourceIBC_NtNtBR_6stream14PurgeErrorKindEEB5_
FN:34,_RINvMNtCs6qhVEmoZJ2z_10async_nats5errorINtB3_5ErrorNtNtNtB5_9jetstream12object_store15DeleteErrorKindE11with_sourceIBC_NtNtBR_7context16PublishErrorKindEEB5_
FN:34,_RINvMNtCs6qhVEmoZJ2z_10async_nats5errorINtB3_5ErrorNtNtNtB5_9jetstream12object_store16AddLinkErrorKindE11with_sourceIBC_NtBP_24PublishMetadataErrorKindEEB5_
FN:34,_RINvMNtCs6qhVEmoZJ2z_10async_nats5errorINtB3_5ErrorNtNtNtB5_9jetstream12object_store16WatcherErrorKindE11with_sourceIBC_NtNtNtBR_8consumer4push16OrderedErrorKindEEB5_
FN:34,_RINvMNtCs6qhVEmoZJ2z_10async_nats5errorINtB3_5ErrorNtNtNtB5_9jetstream12object_store16WatcherErrorKindE11with_sourceINtNtCs1AhsD0INetT_5alloc5boxed3BoxDNtNtCs2CqrNpCrSUr_4core5error5ErrorNtNtB2u_6marker4SendNtB31_4SyncEL_EEB5_
FN:34,_RINvMNtCs6qhVEmoZJ2z_10async_nats5errorINtB3_5ErrorNtNtNtB5_9jetstream12object_store16WatcherErrorKindE11with_sourceNtNtCs1AhsD0INetT_5alloc6string6StringEB5_
FN:34,_RINvMNtCs6qhVEmoZJ2z_10async_nats5errorINtB3_5ErrorNtNtNtB5_9jetstream12object_store23UpdateMetadataErrorKindE11with_sourceIBC_NtBP_13InfoErrorKindEEB5_
FN:34,_RINvMNtCs6qhVEmoZJ2z_10async_nats5errorINtB3_5ErrorNtNtNtB5_9jetstream2kv14EntryErrorKindE11with_sourceIBC_NtNtBR_6stream18DirectGetErrorKindEEB5_
FN:34,_RINvMNtCs6qhVEmoZJ2z_10async_nats5errorINtB3_5ErrorNtNtNtB5_9jetstream2kv14EntryErrorKindE11with_sourceNtBP_19ParseOperationErrorEB5_
FN:34,_RINvMNtCs6qhVEmoZJ2z_10async_nats5errorINtB3_5ErrorNtNtNtB5_9jetstream2kv14EntryErrorKindE11with_sourceReEB5_
FN:34,_RINvMNtCs6qhVEmoZJ2z_10async_nats5errorINtB3_5ErrorNtNtNtB5_9jetstream2kv14WatchErrorKindE11with_sourceIBC_NtNtBR_6stream17ConsumerErrorKindEEB5_
FN:34,_RINvMNtCs6qhVEmoZJ2z_10async_nats5errorINtB3_5ErrorNtNtNtB5_9jetstream2kv14WatchErrorKindE11with_sourceIBC_NtNtBR_8consumer15StreamErrorKindEEB5_
FN:34,_RINvMNtCs6qhVEmoZJ2z_10async_nats5errorINtB3_5ErrorNtNtNtB5_9jetstream2kv15UpdateErrorKindE11with_sourceIBC_NtNtBR_7context16PublishErrorKindEEB5_
FN:34,_RINvMNtCs6qhVEmoZJ2z_10async_nats5errorINtB3_5ErrorNtNtNtB5_9jetstream2kv16WatcherErrorKindE11with_sourceIBC_NtNtNtBR_8consumer4push16OrderedErrorKindEEB5_
FN:34,_RINvMNtCs6qhVEmoZJ2z_10async_nats5errorINtB3_5ErrorNtNtNtB5_9jetstream2kv16WatcherErrorKindE11with_sourceNtNtCs1AhsD0INetT_5alloc6string6StringEB5_
FN:34,_RINvMNtCs6qhVEmoZJ2z_10async_nats5errorINtB3_5ErrorNtNtNtB5_9jetstream6stream17ConsumerErrorKindE11with_sourceIBC_NtNtBR_7context16RequestErrorKindEEB5_
FN:34,_RINvMNtCs6qhVEmoZJ2z_10async_nats5errorINtB3_5ErrorNtNtNtB5_9jetstream6stream17ConsumerErrorKindE11with_sourceINtNtCs1AhsD0INetT_5alloc5boxed3BoxDNtNtCs2CqrNpCrSUr_4core5error5ErrorNtNtB2o_6marker4SendNtB2V_4SyncEL_EEB5_
FN:34,_RINvMNtCs6qhVEmoZJ2z_10async_nats5errorINtB3_5ErrorNtNtNtB5_9jetstream6stream17ConsumerErrorKindE11with_sourceReEB5_
FN:34,_RINvMNtCs6qhVEmoZJ2z_10async_nats5errorINtB3_5ErrorNtNtNtB5_9jetstream6stream18DirectGetErrorKindE11with_sourceIBC_NtNtB5_6client16RequestErrorKindEEB5_
FN:34,_RINvMNtCs6qhVEmoZJ2z_10async_nats5errorINtB3_5ErrorNtNtNtB5_9jetstream6stream18DirectGetErrorKindE11with_sourceIBC_NtNtBR_7message22StreamMessageErrorKindEEB5_
FN:34,_RINvMNtCs6qhVEmoZJ2z_10async_nats5errorINtB3_5ErrorNtNtNtB5_9jetstream6stream18DirectGetErrorKindE11with_sourceNtNtCs3hMvov8GLbn_10serde_json5error5ErrorEB5_
FN:34,_RINvMNtCs6qhVEmoZJ2z_10async_nats5errorINtB3_5ErrorNtNtNtB5_9jetstream6stream23ConsumerUpdateErrorKindE11with_sourceIBC_NtNtBR_7context16RequestErrorKindEEB5_
FN:34,_RINvMNtCs6qhVEmoZJ2z_10async_nats5errorINtB3_5ErrorNtNtNtB5_9jetstream6stream23LastRawMessageErrorKindE11with_sourceINtNtCs1AhsD0INetT_5alloc5boxed3BoxDNtNtCs2CqrNpCrSUr_4core5error5ErrorNtNtB2u_6marker4SendNtB31_4SyncEL_EEB5_
FN:34,_RINvMNtCs6qhVEmoZJ2z_10async_nats5errorINtB3_5ErrorNtNtNtB5_9jetstream6stream23LastRawMessageErrorKindE11with_sourceINtNtCs1AhsD0INetT_5alloc5boxed3BoxNtNtNtCs4N3M0UGf3SB_3std2io5error5ErrorEEB5_
FN:34,_RINvMNtCs6qhVEmoZJ2z_10async_nats5errorINtB3_5ErrorNtNtNtB5_9jetstream6stream29ConsumerCreateStrictErrorKindE11with_sourceIBC_NtNtBR_7context16RequestErrorKindEEB5_
FN:34,_RINvMNtCs6qhVEmoZJ2z_10async_nats5errorINtB3_5ErrorNtNtNtB5_9jetstream7context16AccountErrorKindE11with_sourceIBC_NtBP_16RequestErrorKindEEB5_
FN:34,_RINvMNtCs6qhVEmoZJ2z_10async_nats5errorINtB3_5ErrorNtNtNtB5_9jetstream7context16PublishErrorKindE11with_sourceNtNtBR_6errors5ErrorEB5_
FN:34,_RINvMNtCs6qhVEmoZJ2z_10async_nats5errorINtB3_5ErrorNtNtNtB5_9jetstream7context16PublishErrorKindE11with_sourceNtNtCs3hMvov8GLbn_10serde_json5error5ErrorEB5_
FN:34,_RINvMNtCs6qhVEmoZJ2z_10async_nats5errorINtB3_5ErrorNtNtNtB5_9jetstream7context16RequestErrorKindE11with_sourceBB_EB5_
FN:34,_RINvMNtCs6qhVEmoZJ2z_10async_nats5errorINtB3_5ErrorNtNtNtB5_9jetstream7context16RequestErrorKindE11with_sourceIBC_NtNtB5_6client16RequestErrorKindEEB5_
FN:34,_RINvMNtCs6qhVEmoZJ2z_10async_nats5errorINtB3_5ErrorNtNtNtB5_9jetstream7context16RequestErrorKindE11with_sourceNtNtBR_6errors5ErrorEB5_
FN:34,_RINvMNtCs6qhVEmoZJ2z_10async_nats5errorINtB3_5ErrorNtNtNtB5_9jetstream7context16RequestErrorKindE11with_sourceNtNtCs3hMvov8GLbn_10serde_json5error5ErrorEB5_
FN:34,_RINvMNtCs6qhVEmoZJ2z_10async_nats5errorINtB3_5ErrorNtNtNtB5_9jetstream7context21ConsumerInfoErrorKindE11with_sourceIBC_NtBP_16RequestErrorKindEEB5_
FN:34,_RINvMNtCs6qhVEmoZJ2z_10async_nats5errorINtB3_5ErrorNtNtNtB5_9jetstream7context21CreateStreamErrorKindE11with_sourceIBC_NtBP_16RequestErrorKindEEB5_
FN:34,_RINvMNtCs6qhVEmoZJ2z_10async_nats5errorINtB3_5ErrorNtNtNtB5_9jetstream7message22StreamMessageErrorKindE11with_sourceNtNtCs1AhsD0INetT_5alloc6string6StringEB5_
FN:34,_RINvMNtCs6qhVEmoZJ2z_10async_nats5errorINtB3_5ErrorNtNtNtB5_9jetstream7message22StreamMessageErrorKindE11with_sourceReEB5_
FN:34,_RINvMNtCs6qhVEmoZJ2z_10async_nats5errorINtB3_5ErrorNtNtNtB5_9jetstream8consumer15StreamErrorKindE11with_sourceNtNtB5_6client14SubscribeErrorEB5_
FN:34,_RINvMNtCs6qhVEmoZJ2z_10async_nats5errorINtB3_5ErrorNtNtNtNtB5_9jetstream8consumer4pull14BatchErrorKindE11with_sourceIBC_NtBP_21BatchRequestErrorKindEEB5_
FN:34,_RINvMNtCs6qhVEmoZJ2z_10async_nats5errorINtB3_5ErrorNtNtNtNtB5_9jetstream8consumer4pull14BatchErrorKindE11with_sourceNtNtB5_6client14SubscribeErrorEB5_
FN:34,_RINvMNtCs6qhVEmoZJ2z_10async_nats5errorINtB3_5ErrorNtNtNtNtB5_9jetstream8consumer4pull16OrderedErrorKindE11with_sourceIBC_NtBP_25ConsumerRecreateErrorKindEEB5_
FN:34,_RINvMNtCs6qhVEmoZJ2z_10async_nats5errorINtB3_5ErrorNtNtNtNtB5_9jetstream8consumer4pull16OrderedErrorKindE11with_sourceINtNtCs1AhsD0INetT_5alloc5boxed3BoxDNtNtCs2CqrNpCrSUr_4core5error5ErrorNtNtB2w_6marker4SendNtB33_4SyncEL_EEB5_
FN:34,_RINvMNtCs6qhVEmoZJ2z_10async_nats5errorINtB3_5ErrorNtNtNtNtB5_9jetstream8consumer4pull17MessagesErrorKindE11with_sourceBB_EB5_
FN:34,_RINvMNtCs6qhVEmoZJ2z_10async_nats5errorINtB3_5ErrorNtNtNtNtB5_9jetstream8consumer4pull17MessagesErrorKindE11with_sourceIBC_NtNtB5_6client16PublishErrorKindEEB5_
FN:34,_RINvMNtCs6qhVEmoZJ2z_10async_nats5errorINtB3_5ErrorNtNtNtNtB5_9jetstream8consumer4pull17MessagesErrorKindE11with_sourceIBC_NtNtBT_7context16RequestErrorKindEEB5_
FN:34,_RINvMNtCs6qhVEmoZJ2z_10async_nats5errorINtB3_5ErrorNtNtNtNtB5_9jetstream8consumer4pull17MessagesErrorKindE11with_sourceNtNtB5_6client14SubscribeErrorEB5_
FN:34,_RINvMNtCs6qhVEmoZJ2z_10async_nats5errorINtB3_5ErrorNtNtNtNtB5_9jetstream8consumer4pull17MessagesErrorKindE11with_sourceNtNtCs1AhsD0INetT_5alloc6string6StringEB5_
FN:34,_RINvMNtCs6qhVEmoZJ2z_10async_nats5errorINtB3_5ErrorNtNtNtNtB5_9jetstream8consumer4pull17MessagesErrorKindE11with_sourceNtNtNtCs2CqrNpCrSUr_4core3num5error13ParseIntErrorEB5_
FN:34,_RINvMNtCs6qhVEmoZJ2z_10async_nats5errorINtB3_5ErrorNtNtNtNtB5_9jetstream8consumer4pull21BatchRequestErrorKindE11with_sourceNtNtCs3hMvov8GLbn_10serde_json5error5ErrorEB5_
FN:34,_RINvMNtCs6qhVEmoZJ2z_10async_nats5errorINtB3_5ErrorNtNtNtNtB5_9jetstream8consumer4pull25ConsumerRecreateErrorKindE11with_sourceIBC_NtBR_15StreamErrorKindEEB5_
FN:34,_RINvMNtCs6qhVEmoZJ2z_10async_nats5errorINtB3_5ErrorNtNtNtNtB5_9jetstream8consumer4pull25ConsumerRecreateErrorKindE11with_sourceIBC_NtNtBT_6stream17ConsumerErrorKindEEB5_
FN:34,_RINvMNtCs6qhVEmoZJ2z_10async_nats5errorINtB3_5ErrorNtNtNtNtB5_9jetstream8consumer4pull25ConsumerRecreateErrorKindE11with_sourceNtNtNtCskNaXoohSNNl_5tokio4time5error7ElapsedEB5_
FN:34,_RINvMNtCs6qhVEmoZJ2z_10async_nats5errorINtB3_5ErrorNtNtNtNtB5_9jetstream8consumer4push16OrderedErrorKindE11with_sourceIBC_NtBP_25ConsumerRecreateErrorKindEEB5_
FN:34,_RINvMNtCs6qhVEmoZJ2z_10async_nats5errorINtB3_5ErrorNtNtNtNtB5_9jetstream8consumer4push16OrderedErrorKindE11with_sourceINtNtCs1AhsD0INetT_5alloc5boxed3BoxDNtNtCs2CqrNpCrSUr_4core5error5ErrorNtNtB2w_6marker4SendNtB33_4SyncEL_EEB5_
FN:34,_RINvMNtCs6qhVEmoZJ2z_10async_nats5errorINtB3_5ErrorNtNtNtNtB5_9jetstream8consumer4push16OrderedErrorKindE11with_sourceNtNtNtCs2CqrNpCrSUr_4core3num5error13ParseIntErrorEB5_
FN:34,_RINvMNtCs6qhVEmoZJ2z_10async_nats5errorINtB3_5ErrorNtNtNtNtB5_9jetstream8consumer4push16OrderedErrorKindE11with_sourceReEB5_
FN:34,_RINvMNtCs6qhVEmoZJ2z_10async_nats5errorINtB3_5ErrorNtNtNtNtB5_9jetstream8consumer4push25ConsumerRecreateErrorKindE11with_sourceBB_EB5_
FN:34,_RINvMNtCs6qhVEmoZJ2z_10async_nats5errorINtB3_5ErrorNtNtNtNtB5_9jetstream8consumer4push25ConsumerRecreateErrorKindE11with_sourceIBC_NtNtBT_6stream17ConsumerErrorKindEEB5_
FN:34,_RINvMNtCs6qhVEmoZJ2z_10async_nats5errorINtB3_5ErrorNtNtNtNtB5_9jetstream8consumer4push25ConsumerRecreateErrorKindE11with_sourceNtNtB5_6client14SubscribeErrorEB5_
FN:70,_RNCNvXs0_NtCs6qhVEmoZJ2z_10async_nats5errorINtB7_5ErrorNtNtB9_6client16PublishErrorKindENtNtCs2CqrNpCrSUr_4core5error5Error6source0B9_
FN:70,_RNCNvXs0_NtCs6qhVEmoZJ2z_10async_nats5errorINtB7_5ErrorNtNtB9_6client16RequestErrorKindENtNtCs2CqrNpCrSUr_4core5error5Error6source0B9_
FN:70,_RNCNvXs0_NtCs6qhVEmoZJ2z_10async_nats5errorINtB7_5ErrorNtNtNtB9_9jetstream12object_store13InfoErrorKindENtNtCs2CqrNpCrSUr_4core5error5Error6source0B9_
FN:70,_RNCNvXs0_NtCs6qhVEmoZJ2z_10async_nats5errorINtB7_5ErrorNtNtNtB9_9jetstream12object_store24PublishMetadataErrorKindENtNtCs2CqrNpCrSUr_4core5error5Error6source0B9_
FN:70,_RNCNvXs0_NtCs6qhVEmoZJ2z_10async_nats5errorINtB7_5ErrorNtNtNtB9_9jetstream6stream14PurgeErrorKindENtNtCs2CqrNpCrSUr_4core5error5Error6source0B9_
FN:70,_RNCNvXs0_NtCs6qhVEmoZJ2z_10async_nats5errorINtB7_5ErrorNtNtNtB9_9jetstream6stream17ConsumerErrorKindENtNtCs2CqrNpCrSUr_4core5error5Error6source0B9_
FN:70,_RNCNvXs0_NtCs6qhVEmoZJ2z_10async_nats5errorINtB7_5ErrorNtNtNtB9_9jetstream6stream18DirectGetErrorKindENtNtCs2CqrNpCrSUr_4core5error5Error6source0B9_
FN:70,_RNCNvXs0_NtCs6qhVEmoZJ2z_10async_nats5errorINtB7_5ErrorNtNtNtB9_9jetstream7context16PublishErrorKindENtNtCs2CqrNpCrSUr_4core5error5Error6source0B9_
FN:70,_RNCNvXs0_NtCs6qhVEmoZJ2z_10async_nats5errorINtB7_5ErrorNtNtNtB9_9jetstream7context16RequestErrorKindENtNtCs2CqrNpCrSUr_4core5error5Error6source0B9_
FN:70,_RNCNvXs0_NtCs6qhVEmoZJ2z_10async_nats5errorINtB7_5ErrorNtNtNtB9_9jetstream7context21ConsumerInfoErrorKindENtNtCs2CqrNpCrSUr_4core5error5Error6source0B9_
FN:70,_RNCNvXs0_NtCs6qhVEmoZJ2z_10async_nats5errorINtB7_5ErrorNtNtNtB9_9jetstream7context21CreateStreamErrorKindENtNtCs2CqrNpCrSUr_4core5error5Error6source0B9_
FN:70,_RNCNvXs0_NtCs6qhVEmoZJ2z_10async_nats5errorINtB7_5ErrorNtNtNtB9_9jetstream7message22StreamMessageErrorKindENtNtCs2CqrNpCrSUr_4core5error5Error6source0B9_
FN:70,_RNCNvXs0_NtCs6qhVEmoZJ2z_10async_nats5errorINtB7_5ErrorNtNtNtB9_9jetstream8consumer15StreamErrorKindENtNtCs2CqrNpCrSUr_4core5error5Error6source0B9_
FN:70,_RNCNvXs0_NtCs6qhVEmoZJ2z_10async_nats5errorINtB7_5ErrorNtNtNtNtB9_9jetstream8consumer4pull17MessagesErrorKindENtNtCs2CqrNpCrSUr_4core5error5Error6source0B9_
FN:70,_RNCNvXs0_NtCs6qhVEmoZJ2z_10async_nats5errorINtB7_5ErrorNtNtNtNtB9_9jetstream8consumer4pull21BatchRequestErrorKindENtNtCs2CqrNpCrSUr_4core5error5Error6source0B9_
FN:70,_RNCNvXs0_NtCs6qhVEmoZJ2z_10async_nats5errorINtB7_5ErrorNtNtNtNtB9_9jetstream8consumer4pull25ConsumerRecreateErrorKindENtNtCs2CqrNpCrSUr_4core5error5Error6source0B9_
FN:70,_RNCNvXs0_NtCs6qhVEmoZJ2z_10async_nats5errorINtB7_5ErrorNtNtNtNtB9_9jetstream8consumer4push16OrderedErrorKindENtNtCs2CqrNpCrSUr_4core5error5Error6source0B9_
FN:70,_RNCNvXs0_NtCs6qhVEmoZJ2z_10async_nats5errorINtB7_5ErrorNtNtNtNtB9_9jetstream8consumer4push25ConsumerRecreateErrorKindENtNtCs2CqrNpCrSUr_4core5error5Error6source0B9_
FN:45,_RNvMNtCs6qhVEmoZJ2z_10async_nats5errorINtB2_5ErrorNtNtB4_6client16RequestErrorKindE4kindB4_
FN:30,_RNvMNtCs6qhVEmoZJ2z_10async_nats5errorINtB2_5ErrorNtNtNtB4_9jetstream12object_store12GetErrorKindE3newB4_
FN:30,_RNvMNtCs6qhVEmoZJ2z_10async_nats5errorINtB2_5ErrorNtNtNtB4_9jetstream12object_store12PutErrorKindE3newB4_
FN:45,_RNvMNtCs6qhVEmoZJ2z_10async_nats5errorINtB2_5ErrorNtNtNtB4_9jetstream12object_store13InfoErrorKindE4kindB4_
FN:30,_RNvMNtCs6qhVEmoZJ2z_10async_nats5errorINtB2_5ErrorNtNtNtB4_9jetstream12object_store13SealErrorKindE3newB4_
FN:30,_RNvMNtCs6qhVEmoZJ2z_10async_nats5errorINtB2_5ErrorNtNtNtB4_9jetstream12object_store14WatchErrorKindE3newB4_
FN:30,_RNvMNtCs6qhVEmoZJ2z_10async_nats5errorINtB2_5ErrorNtNtNtB4_9jetstream12object_store15DeleteErrorKindE3newB4_
FN:30,_RNvMNtCs6qhVEmoZJ2z_10async_nats5errorINtB2_5ErrorNtNtNtB4_9jetstream12object_store16AddLinkErrorKindE3newB4_
FN:30,_RNvMNtCs6qhVEmoZJ2z_10async_nats5errorINtB2_5ErrorNtNtNtB4_9jetstream12object_store23UpdateMetadataErrorKindE3newB4_
FN:45,_RNvMNtCs6qhVEmoZJ2z_10async_nats5errorINtB2_5ErrorNtNtNtB4_9jetstream2kv12PutErrorKindE4kindB4_
FN:30,_RNvMNtCs6qhVEmoZJ2z_10async_nats5errorINtB2_5ErrorNtNtNtB4_9jetstream2kv14EntryErrorKindE3newB4_
FN:45,_RNvMNtCs6qhVEmoZJ2z_10async_nats5errorINtB2_5ErrorNtNtNtB4_9jetstream2kv14EntryErrorKindE4kindB4_
FN:30,_RNvMNtCs6qhVEmoZJ2z_10async_nats5errorINtB2_5ErrorNtNtNtB4_9jetstream2kv14WatchErrorKindE3newB4_
FN:30,_RNvMNtCs6qhVEmoZJ2z_10async_nats5errorINtB2_5ErrorNtNtNtB4_9jetstream2kv15UpdateErrorKindE3newB4_
FN:45,_RNvMNtCs6qhVEmoZJ2z_10async_nats5errorINtB2_5ErrorNtNtNtB4_9jetstream2kv15UpdateErrorKindE4kindB4_
FN:45,_RNvMNtCs6qhVEmoZJ2z_10async_nats5errorINtB2_5ErrorNtNtNtB4_9jetstream6stream14PurgeErrorKindE4kindB4_
FN:30,_RNvMNtCs6qhVEmoZJ2z_10async_nats5errorINtB2_5ErrorNtNtNtB4_9jetstream6stream17ConsumerErrorKindE3newB4_
FN:45,_RNvMNtCs6qhVEmoZJ2z_10async_nats5errorINtB2_5ErrorNtNtNtB4_9jetstream6stream17ConsumerErrorKindE4kindB4_
FN:30,_RNvMNtCs6qhVEmoZJ2z_10async_nats5errorINtB2_5ErrorNtNtNtB4_9jetstream6stream18DirectGetErrorKindE3newB4_
FN:45,_RNvMNtCs6qhVEmoZJ2z_10async_nats5errorINtB2_5ErrorNtNtNtB4_9jetstream6stream18DirectGetErrorKindE4kindB4_
FN:30,_RNvMNtCs6qhVEmoZJ2z_10async_nats5errorINtB2_5ErrorNtNtNtB4_9jetstream6stream23ConsumerUpdateErrorKindE3newB4_
FN:30,_RNvMNtCs6qhVEmoZJ2z_10async_nats5errorINtB2_5ErrorNtNtNtB4_9jetstream6stream29ConsumerCreateStrictErrorKindE3newB4_
FN:30,_RNvMNtCs6qhVEmoZJ2z_10async_nats5errorINtB2_5ErrorNtNtNtB4_9jetstream7context16AccountErrorKindE3newB4_
FN:30,_RNvMNtCs6qhVEmoZJ2z_10async_nats5errorINtB2_5ErrorNtNtNtB4_9jetstream7context16PublishErrorKindE3newB4_
FN:45,_RNvMNtCs6qhVEmoZJ2z_10async_nats5errorINtB2_5ErrorNtNtNtB4_9jetstream7context16PublishErrorKindE4kindB4_
FN:30,_RNvMNtCs6qhVEmoZJ2z_10async_nats5errorINtB2_5ErrorNtNtNtB4_9jetstream7context16RequestErrorKindE3newB4_
FN:45,_RNvMNtCs6qhVEmoZJ2z_10async_nats5errorINtB2_5ErrorNtNtNtB4_9jetstream7context16RequestErrorKindE4kindB4_
FN:30,_RNvMNtCs6qhVEmoZJ2z_10async_nats5errorINtB2_5ErrorNtNtNtB4_9jetstream7context21ConsumerInfoErrorKindE3newB4_
FN:30,_RNvMNtCs6qhVEmoZJ2z_10async_nats5errorINtB2_5ErrorNtNtNtB4_9jetstream7context21CreateStreamErrorKindE3newB4_
FN:45,_RNvMNtCs6qhVEmoZJ2z_10async_nats5errorINtB2_5ErrorNtNtNtB4_9jetstream7context21CreateStreamErrorKindE4kindB4_
FN:30,_RNvMNtCs6qhVEmoZJ2z_10async_nats5errorINtB2_5ErrorNtNtNtB4_9jetstream7context23CreateKeyValueErrorKindE3newB4_
FN:30,_RNvMNtCs6qhVEmoZJ2z_10async_nats5errorINtB2_5ErrorNtNtNtB4_9jetstream7context23UpdateKeyValueErrorKindE3newB4_
FN:45,_RNvMNtCs6qhVEmoZJ2z_10async_nats5errorINtB2_5ErrorNtNtNtB4_9jetstream8consumer15StreamErrorKindE4kindB4_
FN:30,_RNvMNtCs6qhVEmoZJ2z_10async_nats5errorINtB2_5ErrorNtNtNtNtB4_9jetstream8consumer4pull16OrderedErrorKindE3newB4_
FN:30,_RNvMNtCs6qhVEmoZJ2z_10async_nats5errorINtB2_5ErrorNtNtNtNtB4_9jetstream8consumer4pull17MessagesErrorKindE3newB4_
FN:45,_RNvMNtCs6qhVEmoZJ2z_10async_nats5errorINtB2_5ErrorNtNtNtNtB4_9jetstream8consumer4pull17MessagesErrorKindE4kindB4_
FN:30,_RNvMNtCs6qhVEmoZJ2z_10async_nats5errorINtB2_5ErrorNtNtNtNtB4_9jetstream8consumer4push16OrderedErrorKindE3newB4_
FN:30,_RNvMNtCs6qhVEmoZJ2z_10async_nats5errorINtB2_5ErrorNtNtNtNtB4_9jetstream8consumer4push17MessagesErrorKindE3newB4_
FN:45,_RNvMNtCs6qhVEmoZJ2z_10async_nats5errorINtB2_5ErrorNtNtNtNtB4_9jetstream8consumer4push17MessagesErrorKindE4kindB4_
FN:30,_RNvMNtCs6qhVEmoZJ2z_10async_nats5errorINtB2_5ErrorNtNtNtNtB4_9jetstream8consumer4push25ConsumerRecreateErrorKindE3newB4_
FN:67,_RNvXs0_NtCs6qhVEmoZJ2z_10async_nats5errorINtB5_5ErrorNtNtB7_6client16PublishErrorKindENtNtCs2CqrNpCrSUr_4core5error5Error6sourceB7_
FN:67,_RNvXs0_NtCs6qhVEmoZJ2z_10async_nats5errorINtB5_5ErrorNtNtB7_6client16RequestErrorKindENtNtCs2CqrNpCrSUr_4core5error5Error6sourceB7_
FN:67,_RNvXs0_NtCs6qhVEmoZJ2z_10async_nats5errorINtB5_5ErrorNtNtNtB7_9jetstream12object_store13InfoErrorKindENtNtCs2CqrNpCrSUr_4core5error5Error6sourceB7_
FN:67,_RNvXs0_NtCs6qhVEmoZJ2z_10async_nats5errorINtB5_5ErrorNtNtNtB7_9jetstream12object_store24PublishMetadataErrorKindENtNtCs2CqrNpCrSUr_4core5error5Error6sourceB7_
FN:67,_RNvXs0_NtCs6qhVEmoZJ2z_10async_nats5errorINtB5_5ErrorNtNtNtB7_9jetstream6stream14PurgeErrorKindENtNtCs2CqrNpCrSUr_4core5error5Error6sourceB7_
FN:67,_RNvXs0_NtCs6qhVEmoZJ2z_10async_nats5errorINtB5_5ErrorNtNtNtB7_9jetstream6stream17ConsumerErrorKindENtNtCs2CqrNpCrSUr_4core5error5Error6sourceB7_
FN:67,_RNvXs0_NtCs6qhVEmoZJ2z_10async_nats5errorINtB5_5ErrorNtNtNtB7_9jetstream6stream18DirectGetErrorKindENtNtCs2CqrNpCrSUr_4core5error5Error6sourceB7_
FN:67,_RNvXs0_NtCs6qhVEmoZJ2z_10async_nats5errorINtB5_5ErrorNtNtNtB7_9jetstream7context16PublishErrorKindENtNtCs2CqrNpCrSUr_4core5error5Error6sourceB7_
FN:67,_RNvXs0_NtCs6qhVEmoZJ2z_10async_nats5errorINtB5_5ErrorNtNtNtB7_9jetstream7context16RequestErrorKindENtNtCs2CqrNpCrSUr_4core5error5Error6sourceB7_
FN:67,_RNvXs0_NtCs6qhVEmoZJ2z_10async_nats5errorINtB5_5ErrorNtNtNtB7_9jetstream7context21ConsumerInfoErrorKindENtNtCs2CqrNpCrSUr_4core5error5Error6sourceB7_
FN:67,_RNvXs0_NtCs6qhVEmoZJ2z_10async_nats5errorINtB5_5ErrorNtNtNtB7_9jetstream7context21CreateStreamErrorKindENtNtCs2CqrNpCrSUr_4core5error5Error6sourceB7_
FN:67,_RNvXs0_NtCs6qhVEmoZJ2z_10async_nats5errorINtB5_5ErrorNtNtNtB7_9jetstream7message22StreamMessageErrorKindENtNtCs2CqrNpCrSUr_4core5error5Error6sourceB7_
FN:67,_RNvXs0_NtCs6qhVEmoZJ2z_10async_nats5errorINtB5_5ErrorNtNtNtB7_9jetstream8consumer15StreamErrorKindENtNtCs2CqrNpCrSUr_4core5error5Error6sourceB7_
FN:67,_RNvXs0_NtCs6qhVEmoZJ2z_10async_nats5errorINtB5_5ErrorNtNtNtNtB7_9jetstream8consumer4pull17MessagesErrorKindENtNtCs2CqrNpCrSUr_4core5error5Error6sourceB7_
FN:67,_RNvXs0_NtCs6qhVEmoZJ2z_10async_nats5errorINtB5_5ErrorNtNtNtNtB7_9jetstream8consumer4pull21BatchRequestErrorKindENtNtCs2CqrNpCrSUr_4core5error5Error6sourceB7_
FN:67,_RNvXs0_NtCs6qhVEmoZJ2z_10async_nats5errorINtB5_5ErrorNtNtNtNtB7_9jetstream8consumer4pull25ConsumerRecreateErrorKindENtNtCs2CqrNpCrSUr_4core5error5Error6sourceB7_
FN:67,_RNvXs0_NtCs6qhVEmoZJ2z_10async_nats5errorINtB5_5ErrorNtNtNtNtB7_9jetstream8consumer4push16OrderedErrorKindENtNtCs2CqrNpCrSUr_4core5error5Error6sourceB7_
FN:67,_RNvXs0_NtCs6qhVEmoZJ2z_10async_nats5errorINtB5_5ErrorNtNtNtNtB7_9jetstream8consumer4push25ConsumerRecreateErrorKindENtNtCs2CqrNpCrSUr_4core5error5Error6sourceB7_
FN:78,_RNvXs1_NtCs6qhVEmoZJ2z_10async_nats5errorINtB5_5ErrorNtNtNtB7_9jetstream2kv15CreateErrorKindEINtNtCs2CqrNpCrSUr_4core7convert4FromBP_E4fromB7_
FN:54,_RNvXs_NtCs6qhVEmoZJ2z_10async_nats5errorINtB4_5ErrorNtNtB6_6client16PublishErrorKindENtNtCs2CqrNpCrSUr_4core3fmt7Display3fmtB6_
FN:54,_RNvXs_NtCs6qhVEmoZJ2z_10async_nats5errorINtB4_5ErrorNtNtB6_6client16RequestErrorKindENtNtCs2CqrNpCrSUr_4core3fmt7Display3fmtB6_
FN:54,_RNvXs_NtCs6qhVEmoZJ2z_10async_nats5errorINtB4_5ErrorNtNtNtB6_9jetstream12object_store13InfoErrorKindENtNtCs2CqrNpCrSUr_4core3fmt7Display3fmtB6_
FN:54,_RNvXs_NtCs6qhVEmoZJ2z_10async_nats5errorINtB4_5ErrorNtNtNtB6_9jetstream12object_store24PublishMetadataErrorKindENtNtCs2CqrNpCrSUr_4core3fmt7Display3fmtB6_
FN:54,_RNvXs_NtCs6qhVEmoZJ2z_10async_nats5errorINtB4_5ErrorNtNtNtB6_9jetstream6stream14PurgeErrorKindENtNtCs2CqrNpCrSUr_4core3fmt7Display3fmtB6_
FN:54,_RNvXs_NtCs6qhVEmoZJ2z_10async_nats5errorINtB4_5ErrorNtNtNtB6_9jetstream6stream17ConsumerErrorKindENtNtCs2CqrNpCrSUr_4core3fmt7Display3fmtB6_
FN:54,_RNvXs_NtCs6qhVEmoZJ2z_10async_nats5errorINtB4_5ErrorNtNtNtB6_9jetstream6stream18DirectGetErrorKindENtNtCs2CqrNpCrSUr_4core3fmt7Display3fmtB6_
FN:54,_RNvXs_NtCs6qhVEmoZJ2z_10async_nats5errorINtB4_5ErrorNtNtNtB6_9jetstream7context16PublishErrorKindENtNtCs2CqrNpCrSUr_4core3fmt7Display3fmtB6_
FN:54,_RNvXs_NtCs6qhVEmoZJ2z_10async_nats5errorINtB4_5ErrorNtNtNtB6_9jetstream7context16RequestErrorKindENtNtCs2CqrNpCrSUr_4core3fmt7Display3fmtB6_
FN:54,_RNvXs_NtCs6qhVEmoZJ2z_10async_nats5errorINtB4_5ErrorNtNtNtB6_9jetstream7context21ConsumerInfoErrorKindENtNtCs2CqrNpCrSUr_4core3fmt7Display3fmtB6_
FN:54,_RNvXs_NtCs6qhVEmoZJ2z_10async_nats5errorINtB4_5ErrorNtNtNtB6_9jetstream7context21CreateStreamErrorKindENtNtCs2CqrNpCrSUr_4core3fmt7Display3fmtB6_
FN:54,_RNvXs_NtCs6qhVEmoZJ2z_10async_nats5errorINtB4_5ErrorNtNtNtB6_9jetstream7message22StreamMessageErrorKindENtNtCs2CqrNpCrSUr_4core3fmt7Display3fmtB6_
FN:54,_RNvXs_NtCs6qhVEmoZJ2z_10async_nats5errorINtB4_5ErrorNtNtNtB6_9jetstream8consumer15StreamErrorKindENtNtCs2CqrNpCrSUr_4core3fmt7Display3fmtB6_
FN:54,_RNvXs_NtCs6qhVEmoZJ2z_10async_nats5errorINtB4_5ErrorNtNtNtNtB6_9jetstream8consumer4pull17MessagesErrorKindENtNtCs2CqrNpCrSUr_4core3fmt7Display3fmtB6_
FN:54,_RNvXs_NtCs6qhVEmoZJ2z_10async_nats5errorINtB4_5ErrorNtNtNtNtB6_9jetstream8consumer4pull21BatchRequestErrorKindENtNtCs2CqrNpCrSUr_4core3fmt7Display3fmtB6_
FN:54,_RNvXs_NtCs6qhVEmoZJ2z_10async_nats5errorINtB4_5ErrorNtNtNtNtB6_9jetstream8consumer4pull25ConsumerRecreateErrorKindENtNtCs2CqrNpCrSUr_4core3fmt7Display3fmtB6_
FN:54,_RNvXs_NtCs6qhVEmoZJ2z_10async_nats5errorINtB4_5ErrorNtNtNtNtB6_9jetstream8consumer4push16OrderedErrorKindENtNtCs2CqrNpCrSUr_4core3fmt7Display3fmtB6_
FN:54,_RNvXs_NtCs6qhVEmoZJ2z_10async_nats5errorINtB4_5ErrorNtNtNtNtB6_9jetstream8consumer4push25ConsumerRecreateErrorKindENtNtCs2CqrNpCrSUr_4core3fmt7Display3fmtB6_
FN:34,_RINvMNtCs6qhVEmoZJ2z_10async_nats5errorINtB3_5ErrorNtB5_16ConnectErrorKindE11with_sourceBB_ECsbhX8fe0itkR_15jetstream_tests
FN:34,_RINvMNtCs6qhVEmoZJ2z_10async_nats5errorINtB3_5ErrorNtB5_16ConnectErrorKindE11with_sourceNtB5_11ServerErrorECsbhX8fe0itkR_15jetstream_tests
FN:34,_RINvMNtCs6qhVEmoZJ2z_10async_nats5errorINtB3_5ErrorNtB5_16ConnectErrorKindE11with_sourceNtNtB5_7options9AuthErrorECsbhX8fe0itkR_15jetstream_tests
FN:34,_RINvMNtCs6qhVEmoZJ2z_10async_nats5errorINtB3_5ErrorNtB5_16ConnectErrorKindE11with_sourceNtNtCs1AhsD0INetT_5alloc6string6StringECsbhX8fe0itkR_15jetstream_tests
FN:34,_RINvMNtCs6qhVEmoZJ2z_10async_nats5errorINtB3_5ErrorNtB5_16ConnectErrorKindE11with_sourceNtNtCs8ONXqJnTXiZ_16rustls_pki_types11server_name19InvalidDnsNameErrorECsbhX8fe0itkR_15jetstream_tests
FN:34,_RINvMNtCs6qhVEmoZJ2z_10async_nats5errorINtB3_5ErrorNtB5_16ConnectErrorKindE11with_sourceReECsbhX8fe0itkR_15jetstream_tests
FN:34,_RINvMNtCs6qhVEmoZJ2z_10async_nats5errorINtB3_5ErrorNtNtB5_6client14FlushErrorKindE11with_sourceINtNtNtNtCskNaXoohSNNl_5tokio4sync4mpsc5error9SendErrorNtB5_7CommandEECsbhX8fe0itkR_15jetstream_tests
FN:34,_RINvMNtCs6qhVEmoZJ2z_10async_nats5errorINtB3_5ErrorNtNtB5_6client14FlushErrorKindE11with_sourceNtNtNtNtCskNaXoohSNNl_5tokio4sync7oneshot5error9RecvErrorECsbhX8fe0itkR_15jetstream_tests
FN:34,_RINvMNtCs6qhVEmoZJ2z_10async_nats5errorINtB3_5ErrorNtNtNtB5_9jetstream6stream14PurgeErrorKindE11with_sourceIBC_NtNtBR_7context16RequestErrorKindEECsbhX8fe0itkR_15jetstream_tests
FN:34,_RINvMNtCs6qhVEmoZJ2z_10async_nats5errorINtB3_5ErrorNtNtNtB5_9jetstream6stream22DeleteMessageErrorKindE11with_sourceIBC_NtNtBR_7context16RequestErrorKindEECsbhX8fe0itkR_15jetstream_tests
FN:34,_RINvMNtCs6qhVEmoZJ2z_10async_nats5errorINtB3_5ErrorNtNtNtB5_9jetstream6stream23LastRawMessageErrorKindE11with_sourceIBC_NtNtBR_7context16RequestErrorKindEECsbhX8fe0itkR_15jetstream_tests
FN:34,_RINvMNtCs6qhVEmoZJ2z_10async_nats5errorINtB3_5ErrorNtNtNtB5_9jetstream7context16PublishErrorKindE11with_sourceINtNtNtNtCskNaXoohSNNl_5tokio4sync4mpsc5error9SendErrorNtB5_7CommandEECsbhX8fe0itkR_15jetstream_tests
FN:34,_RINvMNtCs6qhVEmoZJ2z_10async_nats5errorINtB3_5ErrorNtNtNtB5_9jetstream7context16PublishErrorKindE11with_sourceNtNtNtCskNaXoohSNNl_5tokio4sync15batch_semaphore12AcquireErrorECsbhX8fe0itkR_15jetstream_tests
FN:34,_RINvMNtCs6qhVEmoZJ2z_10async_nats5errorINtB3_5ErrorNtNtNtB5_9jetstream7context16PublishErrorKindE11with_sourceNtNtNtCskNaXoohSNNl_5tokio4sync15batch_semaphore15TryAcquireErrorECsbhX8fe0itkR_15jetstream_tests
FN:34,_RINvMNtCs6qhVEmoZJ2z_10async_nats5errorINtB3_5ErrorNtNtNtB5_9jetstream7context18GetStreamErrorKindE11with_sourceIBC_NtBP_16RequestErrorKindEECsbhX8fe0itkR_15jetstream_tests
FN:34,_RINvMNtCs6qhVEmoZJ2z_10async_nats5errorINtB3_5ErrorNtNtNtB5_9jetstream7context24GetStreamByNameErrorKindE11with_sourceIBC_NtBP_16RequestErrorKindEECsbhX8fe0itkR_15jetstream_tests
FN:34,_RINvMNtCs6qhVEmoZJ2z_10async_nats5errorINtB3_5ErrorNtNtNtNtB5_9jetstream8consumer4pull21BatchRequestErrorKindE11with_sourceIBC_NtNtB5_6client16PublishErrorKindEECsbhX8fe0itkR_15jetstream_tests
FN:70,_RNCNvXs0_NtCs6qhVEmoZJ2z_10async_nats5errorINtB7_5ErrorNtB9_16ConnectErrorKindENtNtCs2CqrNpCrSUr_4core5error5Error6source0CsbhX8fe0itkR_15jetstream_tests
FN:30,_RNvMNtCs6qhVEmoZJ2z_10async_nats5errorINtB2_5ErrorNtB4_16ConnectErrorKindE3newCsbhX8fe0itkR_15jetstream_tests
FN:45,_RNvMNtCs6qhVEmoZJ2z_10async_nats5errorINtB2_5ErrorNtB4_16ConnectErrorKindE4kindCsbhX8fe0itkR_15jetstream_tests
FN:30,_RNvMNtCs6qhVEmoZJ2z_10async_nats5errorINtB2_5ErrorNtNtNtB4_9jetstream6stream14PurgeErrorKindE3newCsbhX8fe0itkR_15jetstream_tests
FN:30,_RNvMNtCs6qhVEmoZJ2z_10async_nats5errorINtB2_5ErrorNtNtNtB4_9jetstream6stream22DeleteMessageErrorKindE3newCsbhX8fe0itkR_15jetstream_tests
FN:45,_RNvMNtCs6qhVEmoZJ2z_10async_nats5errorINtB2_5ErrorNtNtNtB4_9jetstream6stream23ConsumerUpdateErrorKindE4kindCsbhX8fe0itkR_15jetstream_tests
FN:30,_RNvMNtCs6qhVEmoZJ2z_10async_nats5errorINtB2_5ErrorNtNtNtB4_9jetstream6stream23LastRawMessageErrorKindE3newCsbhX8fe0itkR_15jetstream_tests
FN:45,_RNvMNtCs6qhVEmoZJ2z_10async_nats5errorINtB2_5ErrorNtNtNtB4_9jetstream6stream29ConsumerCreateStrictErrorKindE4kindCsbhX8fe0itkR_15jetstream_tests
FN:30,_RNvMNtCs6qhVEmoZJ2z_10async_nats5errorINtB2_5ErrorNtNtNtB4_9jetstream7context18GetStreamErrorKindE3newCsbhX8fe0itkR_15jetstream_tests
FN:45,_RNvMNtCs6qhVEmoZJ2z_10async_nats5errorINtB2_5ErrorNtNtNtB4_9jetstream7context21ConsumerInfoErrorKindE4kindCsbhX8fe0itkR_15jetstream_tests
FN:30,_RNvMNtCs6qhVEmoZJ2z_10async_nats5errorINtB2_5ErrorNtNtNtB4_9jetstream7context24GetStreamByNameErrorKindE3newCsbhX8fe0itkR_15jetstream_tests
FN:45,_RNvMNtCs6qhVEmoZJ2z_10async_nats5errorINtB2_5ErrorNtNtNtB4_9jetstream7context24GetStreamByNameErrorKindE4kindCsbhX8fe0itkR_15jetstream_tests
FN:67,_RNvXs0_NtCs6qhVEmoZJ2z_10async_nats5errorINtB5_5ErrorNtB7_16ConnectErrorKindENtNtCs2CqrNpCrSUr_4core5error5Error6sourceCsbhX8fe0itkR_15jetstream_tests
FN:54,_RNvXs_NtCs6qhVEmoZJ2z_10async_nats5errorINtB4_5ErrorNtB6_16ConnectErrorKindENtNtCs2CqrNpCrSUr_4core3fmt7Display3fmtCsbhX8fe0itkR_15jetstream_tests
FN:34,_RINvMNtCs6qhVEmoZJ2z_10async_nats5errorINtB3_5ErrorNtB5_16ConnectErrorKindE11with_sourceBB_ECsWLjOOar9jQ_9jwt_tests
FN:34,_RINvMNtCs6qhVEmoZJ2z_10async_nats5errorINtB3_5ErrorNtB5_16ConnectErrorKindE11with_sourceNtB5_11ServerErrorECsWLjOOar9jQ_9jwt_tests
FN:34,_RINvMNtCs6qhVEmoZJ2z_10async_nats5errorINtB3_5ErrorNtB5_16ConnectErrorKindE11with_sourceNtNtB5_7options9AuthErrorECsWLjOOar9jQ_9jwt_tests
FN:34,_RINvMNtCs6qhVEmoZJ2z_10async_nats5errorINtB3_5ErrorNtB5_16ConnectErrorKindE11with_sourceNtNtCs1AhsD0INetT_5alloc6string6StringECsWLjOOar9jQ_9jwt_tests
FN:34,_RINvMNtCs6qhVEmoZJ2z_10async_nats5errorINtB3_5ErrorNtB5_16ConnectErrorKindE11with_sourceNtNtCs8ONXqJnTXiZ_16rustls_pki_types11server_name19InvalidDnsNameErrorECsWLjOOar9jQ_9jwt_tests
FN:34,_RINvMNtCs6qhVEmoZJ2z_10async_nats5errorINtB3_5ErrorNtB5_16ConnectErrorKindE11with_sourceReECsWLjOOar9jQ_9jwt_tests
FN:34,_RINvMNtCs6qhVEmoZJ2z_10async_nats5errorINtB3_5ErrorNtNtB5_6client14FlushErrorKindE11with_sourceINtNtNtNtCskNaXoohSNNl_5tokio4sync4mpsc5error9SendErrorNtB5_7CommandEECsWLjOOar9jQ_9jwt_tests
FN:34,_RINvMNtCs6qhVEmoZJ2z_10async_nats5errorINtB3_5ErrorNtNtB5_6client14FlushErrorKindE11with_sourceNtNtNtNtCskNaXoohSNNl_5tokio4sync7oneshot5error9RecvErrorECsWLjOOar9jQ_9jwt_tests
FN:70,_RNCNvXs0_NtCs6qhVEmoZJ2z_10async_nats5errorINtB7_5ErrorNtB9_16ConnectErrorKindENtNtCs2CqrNpCrSUr_4core5error5Error6source0CsWLjOOar9jQ_9jwt_tests
FN:30,_RNvMNtCs6qhVEmoZJ2z_10async_nats5errorINtB2_5ErrorNtB4_16ConnectErrorKindE3newCsWLjOOar9jQ_9jwt_tests
FN:45,_RNvMNtCs6qhVEmoZJ2z_10async_nats5errorINtB2_5ErrorNtB4_16ConnectErrorKindE4kindCsWLjOOar9jQ_9jwt_tests
FN:67,_RNvXs0_NtCs6qhVEmoZJ2z_10async_nats5errorINtB5_5ErrorNtB7_16ConnectErrorKindENtNtCs2CqrNpCrSUr_4core5error5Error6sourceCsWLjOOar9jQ_9jwt_tests
FN:54,_RNvXs_NtCs6qhVEmoZJ2z_10async_nats5errorINtB4_5ErrorNtB6_16ConnectErrorKindENtNtCs2CqrNpCrSUr_4core3fmt7Display3fmtCsWLjOOar9jQ_9jwt_tests
FN:34,_RINvMNtCs6qhVEmoZJ2z_10async_nats5errorINtB3_5ErrorNtB5_16ConnectErrorKindE11with_sourceBB_ECs98b7hshCa6M_8kv_tests
FN:34,_RINvMNtCs6qhVEmoZJ2z_10async_nats5errorINtB3_5ErrorNtB5_16ConnectErrorKindE11with_sourceNtB5_11ServerErrorECs98b7hshCa6M_8kv_tests
FN:34,_RINvMNtCs6qhVEmoZJ2z_10async_nats5errorINtB3_5ErrorNtB5_16ConnectErrorKindE11with_sourceNtNtB5_7options9AuthErrorECs98b7hshCa6M_8kv_tests
FN:34,_RINvMNtCs6qhVEmoZJ2z_10async_nats5errorINtB3_5ErrorNtB5_16ConnectErrorKindE11with_sourceNtNtCs1AhsD0INetT_5alloc6string6StringECs98b7hshCa6M_8kv_tests
FN:34,_RINvMNtCs6qhVEmoZJ2z_10async_nats5errorINtB3_5ErrorNtB5_16ConnectErrorKindE11with_sourceNtNtCs8ONXqJnTXiZ_16rustls_pki_types11server_name19InvalidDnsNameErrorECs98b7hshCa6M_8kv_tests
FN:34,_RINvMNtCs6qhVEmoZJ2z_10async_nats5errorINtB3_5ErrorNtB5_16ConnectErrorKindE11with_sourceReECs98b7hshCa6M_8kv_tests
FN:34,_RINvMNtCs6qhVEmoZJ2z_10async_nats5errorINtB3_5ErrorNtNtB5_6client14FlushErrorKindE11with_sourceINtNtNtNtCskNaXoohSNNl_5tokio4sync4mpsc5error9SendErrorNtB5_7CommandEECs98b7hshCa6M_8kv_tests
FN:34,_RINvMNtCs6qhVEmoZJ2z_10async_nats5errorINtB3_5ErrorNtNtB5_6client14FlushErrorKindE11with_sourceNtNtNtNtCskNaXoohSNNl_5tokio4sync7oneshot5error9RecvErrorECs98b7hshCa6M_8kv_tests
FN:34,_RINvMNtCs6qhVEmoZJ2z_10async_nats5errorINtB3_5ErrorNtNtNtB5_9jetstream2kv12PutErrorKindE11with_sourceIBC_NtNtBR_7context16PublishErrorKindEECs98b7hshCa6M_8kv_tests
FN:34,_RINvMNtCs6qhVEmoZJ2z_10async_nats5errorINtB3_5ErrorNtNtNtB5_9jetstream2kv14EntryErrorKindE11with_sourceIBC_NtNtBR_6stream23LastRawMessageErrorKindEECs98b7hshCa6M_8kv_tests
FN:34,_RINvMNtCs6qhVEmoZJ2z_10async_nats5errorINtB3_5ErrorNtNtNtB5_9jetstream2kv14EntryErrorKindE11with_sourceNtNtBR_6errors5ErrorECs98b7hshCa6M_8kv_tests
FN:34,_RINvMNtCs6qhVEmoZJ2z_10async_nats5errorINtB3_5ErrorNtNtNtB5_9jetstream2kv15UpdateErrorKindE11with_sourceNtNtB5_6header21ParseHeaderValueErrorECs98b7hshCa6M_8kv_tests
FN:34,_RINvMNtCs6qhVEmoZJ2z_10async_nats5errorINtB3_5ErrorNtNtNtB5_9jetstream6stream23LastRawMessageErrorKindE11with_sourceIBC_NtNtBR_7context16RequestErrorKindEECs98b7hshCa6M_8kv_tests
FN:34,_RINvMNtCs6qhVEmoZJ2z_10async_nats5errorINtB3_5ErrorNtNtNtB5_9jetstream7context16PublishErrorKindE11with_sourceINtNtNtNtCskNaXoohSNNl_5tokio4sync4mpsc5error9SendErrorNtB5_7CommandEECs98b7hshCa6M_8kv_tests
FN:34,_RINvMNtCs6qhVEmoZJ2z_10async_nats5errorINtB3_5ErrorNtNtNtB5_9jetstream7context16PublishErrorKindE11with_sourceNtNtNtCskNaXoohSNNl_5tokio4sync15batch_semaphore12AcquireErrorECs98b7hshCa6M_8kv_tests
FN:34,_RINvMNtCs6qhVEmoZJ2z_10async_nats5errorINtB3_5ErrorNtNtNtB5_9jetstream7context16PublishErrorKindE11with_sourceNtNtNtCskNaXoohSNNl_5tokio4sync15batch_semaphore15TryAcquireErrorECs98b7hshCa6M_8kv_tests
FN:34,_RINvMNtCs6qhVEmoZJ2z_10async_nats5errorINtB3_5ErrorNtNtNtB5_9jetstream7context17KeyValueErrorKindE11with_sourceIBC_NtBP_18GetStreamErrorKindEECs98b7hshCa6M_8kv_tests
FN:34,_RINvMNtCs6qhVEmoZJ2z_10async_nats5errorINtB3_5ErrorNtNtNtB5_9jetstream7context18GetStreamErrorKindE11with_sourceIBC_NtBP_16RequestErrorKindEECs98b7hshCa6M_8kv_tests
FN:34,_RINvMNtCs6qhVEmoZJ2z_10async_nats5errorINtB3_5ErrorNtNtNtB5_9jetstream7context21CreateStreamErrorKindE11with_sourceBB_ECs98b7hshCa6M_8kv_tests
FN:34,_RINvMNtCs6qhVEmoZJ2z_10async_nats5errorINtB3_5ErrorNtNtNtB5_9jetstream7context23CreateKeyValueErrorKindE11with_sourceIBC_NtBP_16AccountErrorKindEECs98b7hshCa6M_8kv_tests
FN:34,_RINvMNtCs6qhVEmoZJ2z_10async_nats5errorINtB3_5ErrorNtNtNtB5_9jetstream7context23CreateKeyValueErrorKindE11with_sourceIBC_NtBP_21CreateStreamErrorKindEECs98b7hshCa6M_8kv_tests
FN:34,_RINvMNtCs6qhVEmoZJ2z_10async_nats5errorINtB3_5ErrorNtNtNtB5_9jetstream7context23UpdateKeyValueErrorKindE11with_sourceIBC_NtBP_16AccountErrorKindEECs98b7hshCa6M_8kv_tests
FN:34,_RINvMNtCs6qhVEmoZJ2z_10async_nats5errorINtB3_5ErrorNtNtNtB5_9jetstream7context23UpdateKeyValueErrorKindE11with_sourceIBC_NtBP_21CreateStreamErrorKindEECs98b7hshCa6M_8kv_tests
FN:70,_RNCNvXs0_NtCs6qhVEmoZJ2z_10async_nats5errorINtB7_5ErrorNtB9_16ConnectErrorKindENtNtCs2CqrNpCrSUr_4core5error5Error6source0Cs98b7hshCa6M_8kv_tests
FN:70,_RNCNvXs0_NtCs6qhVEmoZJ2z_10async_nats5errorINtB7_5ErrorNtNtNtB9_9jetstream2kv14WatchErrorKindENtNtCs2CqrNpCrSUr_4core5error5Error6source0Cs98b7hshCa6M_8kv_tests
FN:70,_RNCNvXs0_NtCs6qhVEmoZJ2z_10async_nats5errorINtB7_5ErrorNtNtNtB9_9jetstream6stream23LastRawMessageErrorKindENtNtCs2CqrNpCrSUr_4core5error5Error6source0Cs98b7hshCa6M_8kv_tests
FN:70,_RNCNvXs0_NtCs6qhVEmoZJ2z_10async_nats5errorINtB7_5ErrorNtNtNtB9_9jetstream7context16AccountErrorKindENtNtCs2CqrNpCrSUr_4core5error5Error6source0Cs98b7hshCa6M_8kv_tests
FN:70,_RNCNvXs0_NtCs6qhVEmoZJ2z_10async_nats5errorINtB7_5ErrorNtNtNtB9_9jetstream7context18GetStreamErrorKindENtNtCs2CqrNpCrSUr_4core5error5Error6source0Cs98b7hshCa6M_8kv_tests
FN:30,_RNvMNtCs6qhVEmoZJ2z_10async_nats5errorINtB2_5ErrorNtB4_16ConnectErrorKindE3newCs98b7hshCa6M_8kv_tests
FN:45,_RNvMNtCs6qhVEmoZJ2z_10async_nats5errorINtB2_5ErrorNtB4_16ConnectErrorKindE4kindCs98b7hshCa6M_8kv_tests
FN:30,_RNvMNtCs6qhVEmoZJ2z_10async_nats5errorINtB2_5ErrorNtNtNtB4_9jetstream2kv12PutErrorKindE3newCs98b7hshCa6M_8kv_tests
FN:30,_RNvMNtCs6qhVEmoZJ2z_10async_nats5errorINtB2_5ErrorNtNtNtB4_9jetstream2kv15CreateErrorKindE3newCs98b7hshCa6M_8kv_tests
FN:30,_RNvMNtCs6qhVEmoZJ2z_10async_nats5errorINtB2_5ErrorNtNtNtB4_9jetstream6stream23LastRawMessageErrorKindE3newCs98b7hshCa6M_8kv_tests
FN:45,_RNvMNtCs6qhVEmoZJ2z_10async_nats5errorINtB2_5ErrorNtNtNtB4_9jetstream6stream23LastRawMessageErrorKindE4kindCs98b7hshCa6M_8kv_tests
FN:30,_RNvMNtCs6qhVEmoZJ2z_10async_nats5errorINtB2_5ErrorNtNtNtB4_9jetstream7context17KeyValueErrorKindE3newCs98b7hshCa6M_8kv_tests
FN:30,_RNvMNtCs6qhVEmoZJ2z_10async_nats5errorINtB2_5ErrorNtNtNtB4_9jetstream7context18GetStreamErrorKindE3newCs98b7hshCa6M_8kv_tests
FN:45,_RNvMNtCs6qhVEmoZJ2z_10async_nats5errorINtB2_5ErrorNtNtNtB4_9jetstream7context23UpdateKeyValueErrorKindE4kindCs98b7hshCa6M_8kv_tests
FN:67,_RNvXs0_NtCs6qhVEmoZJ2z_10async_nats5errorINtB5_5ErrorNtB7_16ConnectErrorKindENtNtCs2CqrNpCrSUr_4core5error5Error6sourceCs98b7hshCa6M_8kv_tests
FN:67,_RNvXs0_NtCs6qhVEmoZJ2z_10async_nats5errorINtB5_5ErrorNtNtNtB7_9jetstream2kv14WatchErrorKindENtNtCs2CqrNpCrSUr_4core5error5Error6sourceCs98b7hshCa6M_8kv_tests
FN:67,_RNvXs0_NtCs6qhVEmoZJ2z_10async_nats5errorINtB5_5ErrorNtNtNtB7_9jetstream6stream23LastRawMessageErrorKindENtNtCs2CqrNpCrSUr_4core5error5Error6sourceCs98b7hshCa6M_8kv_tests
FN:67,_RNvXs0_NtCs6qhVEmoZJ2z_10async_nats5errorINtB5_5ErrorNtNtNtB7_9jetstream7context16AccountErrorKindENtNtCs2CqrNpCrSUr_4core5error5Error6sourceCs98b7hshCa6M_8kv_tests
FN:67,_RNvXs0_NtCs6qhVEmoZJ2z_10async_nats5errorINtB5_5ErrorNtNtNtB7_9jetstream7context18GetStreamErrorKindENtNtCs2CqrNpCrSUr_4core5error5Error6sourceCs98b7hshCa6M_8kv_tests
FN:54,_RNvXs_NtCs6qhVEmoZJ2z_10async_nats5errorINtB4_5ErrorNtB6_16ConnectErrorKindENtNtCs2CqrNpCrSUr_4core3fmt7Display3fmtCs98b7hshCa6M_8kv_tests
FN:54,_RNvXs_NtCs6qhVEmoZJ2z_10async_nats5errorINtB4_5ErrorNtNtNtB6_9jetstream2kv14WatchErrorKindENtNtCs2CqrNpCrSUr_4core3fmt7Display3fmtCs98b7hshCa6M_8kv_tests
FN:54,_RNvXs_NtCs6qhVEmoZJ2z_10async_nats5errorINtB4_5ErrorNtNtNtB6_9jetstream6stream23LastRawMessageErrorKindENtNtCs2CqrNpCrSUr_4core3fmt7Display3fmtCs98b7hshCa6M_8kv_tests
FN:54,_RNvXs_NtCs6qhVEmoZJ2z_10async_nats5errorINtB4_5ErrorNtNtNtB6_9jetstream7context16AccountErrorKindENtNtCs2CqrNpCrSUr_4core3fmt7Display3fmtCs98b7hshCa6M_8kv_tests
FN:54,_RNvXs_NtCs6qhVEmoZJ2z_10async_nats5errorINtB4_5ErrorNtNtNtB6_9jetstream7context18GetStreamErrorKindENtNtCs2CqrNpCrSUr_4core3fmt7Display3fmtCs98b7hshCa6M_8kv_tests
FN:34,_RINvMNtCs6qhVEmoZJ2z_10async_nats5errorINtB3_5ErrorNtB5_16ConnectErrorKindE11with_sourceBB_ECslYd6v58rjWA_10nkey_tests
FN:34,_RINvMNtCs6qhVEmoZJ2z_10async_nats5errorINtB3_5ErrorNtB5_16ConnectErrorKindE11with_sourceNtB5_11ServerErrorECslYd6v58rjWA_10nkey_tests
FN:34,_RINvMNtCs6qhVEmoZJ2z_10async_nats5errorINtB3_5ErrorNtB5_16ConnectErrorKindE11with_sourceNtNtB5_7options9AuthErrorECslYd6v58rjWA_10nkey_tests
FN:34,_RINvMNtCs6qhVEmoZJ2z_10async_nats5errorINtB3_5ErrorNtB5_16ConnectErrorKindE11with_sourceNtNtCs1AhsD0INetT_5alloc6string6StringECslYd6v58rjWA_10nkey_tests
FN:34,_RINvMNtCs6qhVEmoZJ2z_10async_nats5errorINtB3_5ErrorNtB5_16ConnectErrorKindE11with_sourceNtNtCs8ONXqJnTXiZ_16rustls_pki_types11server_name19InvalidDnsNameErrorECslYd6v58rjWA_10nkey_tests
FN:34,_RINvMNtCs6qhVEmoZJ2z_10async_nats5errorINtB3_5ErrorNtB5_16ConnectErrorKindE11with_sourceReECslYd6v58rjWA_10nkey_tests
FN:34,_RINvMNtCs6qhVEmoZJ2z_10async_nats5errorINtB3_5ErrorNtNtB5_6client14FlushErrorKindE11with_sourceINtNtNtNtCskNaXoohSNNl_5tokio4sync4mpsc5error9SendErrorNtB5_7CommandEECslYd6v58rjWA_10nkey_tests
FN:34,_RINvMNtCs6qhVEmoZJ2z_10async_nats5errorINtB3_5ErrorNtNtB5_6client14FlushErrorKindE11with_sourceNtNtNtNtCskNaXoohSNNl_5tokio4sync7oneshot5error9RecvErrorECslYd6v58rjWA_10nkey_tests
FN:70,_RNCNvXs0_NtCs6qhVEmoZJ2z_10async_nats5errorINtB7_5ErrorNtB9_16ConnectErrorKindENtNtCs2CqrNpCrSUr_4core5error5Error6source0CslYd6v58rjWA_10nkey_tests
FN:30,_RNvMNtCs6qhVEmoZJ2z_10async_nats5errorINtB2_5ErrorNtB4_16ConnectErrorKindE3newCslYd6v58rjWA_10nkey_tests
FN:45,_RNvMNtCs6qhVEmoZJ2z_10async_nats5errorINtB2_5ErrorNtB4_16ConnectErrorKindE4kindCslYd6v58rjWA_10nkey_tests
FN:67,_RNvXs0_NtCs6qhVEmoZJ2z_10async_nats5errorINtB5_5ErrorNtB7_16ConnectErrorKindENtNtCs2CqrNpCrSUr_4core5error5Error6sourceCslYd6v58rjWA_10nkey_tests
FN:54,_RNvXs_NtCs6qhVEmoZJ2z_10async_nats5errorINtB4_5ErrorNtB6_16ConnectErrorKindENtNtCs2CqrNpCrSUr_4core3fmt7Display3fmtCslYd6v58rjWA_10nkey_tests
FN:34,_RINvMNtCs6qhVEmoZJ2z_10async_nats5errorINtB3_5ErrorNtB5_16ConnectErrorKindE11with_sourceBB_ECsesyn6ELQ2kp_12object_store
FN:34,_RINvMNtCs6qhVEmoZJ2z_10async_nats5errorINtB3_5ErrorNtB5_16ConnectErrorKindE11with_sourceNtB5_11ServerErrorECsesyn6ELQ2kp_12object_store
FN:34,_RINvMNtCs6qhVEmoZJ2z_10async_nats5errorINtB3_5ErrorNtB5_16ConnectErrorKindE11with_sourceNtNtB5_7options9AuthErrorECsesyn6ELQ2kp_12object_store
FN:34,_RINvMNtCs6qhVEmoZJ2z_10async_nats5errorINtB3_5ErrorNtB5_16ConnectErrorKindE11with_sourceNtNtCs1AhsD0INetT_5alloc6string6StringECsesyn6ELQ2kp_12object_store
FN:34,_RINvMNtCs6qhVEmoZJ2z_10async_nats5errorINtB3_5ErrorNtB5_16ConnectErrorKindE11with_sourceNtNtCs8ONXqJnTXiZ_16rustls_pki_types11server_name19InvalidDnsNameErrorECsesyn6ELQ2kp_12object_store
FN:34,_RINvMNtCs6qhVEmoZJ2z_10async_nats5errorINtB3_5ErrorNtB5_16ConnectErrorKindE11with_sourceReECsesyn6ELQ2kp_12object_store
FN:34,_RINvMNtCs6qhVEmoZJ2z_10async_nats5errorINtB3_5ErrorNtNtNtB5_9jetstream12object_store12GetErrorKindE11with_sourceIBC_NtNtBR_7context20ObjectStoreErrorKindEECsesyn6ELQ2kp_12object_store
FN:34,_RINvMNtCs6qhVEmoZJ2z_10async_nats5errorINtB3_5ErrorNtNtNtB5_9jetstream12object_store12PutErrorKindE11with_sourceIBC_NtNtBR_6stream14PurgeErrorKindEECsesyn6ELQ2kp_12object_store
FN:34,_RINvMNtCs6qhVEmoZJ2z_10async_nats5errorINtB3_5ErrorNtNtNtB5_9jetstream12object_store12PutErrorKindE11with_sourceNtNtCs1AhsD0INetT_5alloc6string6StringECsesyn6ELQ2kp_12object_store
FN:34,_RINvMNtCs6qhVEmoZJ2z_10async_nats5errorINtB3_5ErrorNtNtNtB5_9jetstream12object_store12PutErrorKindE11with_sourceNtNtNtCs4N3M0UGf3SB_3std2io5error5ErrorECsesyn6ELQ2kp_12object_store
FN:34,_RINvMNtCs6qhVEmoZJ2z_10async_nats5errorINtB3_5ErrorNtNtNtB5_9jetstream12object_store13InfoErrorKindE11with_sourceIBC_NtNtBR_6stream23LastRawMessageErrorKindEECsesyn6ELQ2kp_12object_store
FN:34,_RINvMNtCs6qhVEmoZJ2z_10async_nats5errorINtB3_5ErrorNtNtNtB5_9jetstream12object_store13InfoErrorKindE11with_sourceNtNtCs1AhsD0INetT_5alloc6string6StringECsesyn6ELQ2kp_12object_store
FN:34,_RINvMNtCs6qhVEmoZJ2z_10async_nats5errorINtB3_5ErrorNtNtNtB5_9jetstream12object_store13SealErrorKindE11with_sourceIBC_NtNtBR_7context16RequestErrorKindEECsesyn6ELQ2kp_12object_store
FN:34,_RINvMNtCs6qhVEmoZJ2z_10async_nats5errorINtB3_5ErrorNtNtNtB5_9jetstream12object_store15DeleteErrorKindE11with_sourceNtNtCs1AhsD0INetT_5alloc6string6StringECsesyn6ELQ2kp_12object_store
FN:34,_RINvMNtCs6qhVEmoZJ2z_10async_nats5errorINtB3_5ErrorNtNtNtB5_9jetstream12object_store16AddLinkErrorKindE11with_sourceIBC_NtBP_13InfoErrorKindEECsesyn6ELQ2kp_12object_store
FN:34,_RINvMNtCs6qhVEmoZJ2z_10async_nats5errorINtB3_5ErrorNtNtNtB5_9jetstream12object_store23UpdateMetadataErrorKindE11with_sourceIBC_NtNtBR_6stream14PurgeErrorKindEECsesyn6ELQ2kp_12object_store
FN:34,_RINvMNtCs6qhVEmoZJ2z_10async_nats5errorINtB3_5ErrorNtNtNtB5_9jetstream12object_store23UpdateMetadataErrorKindE11with_sourceNtNtCs1AhsD0INetT_5alloc6string6StringECsesyn6ELQ2kp_12object_store
FN:34,_RINvMNtCs6qhVEmoZJ2z_10async_nats5errorINtB3_5ErrorNtNtNtB5_9jetstream12object_store24PublishMetadataErrorKindE11with_sourceNtNtCs1AhsD0INetT_5alloc6string6StringECsesyn6ELQ2kp_12object_store
FN:34,_RINvMNtCs6qhVEmoZJ2z_10async_nats5errorINtB3_5ErrorNtNtNtB5_9jetstream6stream14PurgeErrorKindE11with_sourceIBC_NtNtBR_7context16RequestErrorKindEECsesyn6ELQ2kp_12object_store
FN:34,_RINvMNtCs6qhVEmoZJ2z_10async_nats5errorINtB3_5ErrorNtNtNtB5_9jetstream6stream23LastRawMessageErrorKindE11with_sourceIBC_NtNtBR_7context16RequestErrorKindEECsesyn6ELQ2kp_12object_store
FN:34,_RINvMNtCs6qhVEmoZJ2z_10async_nats5errorINtB3_5ErrorNtNtNtB5_9jetstream7context16PublishErrorKindE11with_sourceINtNtNtNtCskNaXoohSNNl_5tokio4sync4mpsc5error9SendErrorNtB5_7CommandEECsesyn6ELQ2kp_12object_store
FN:34,_RINvMNtCs6qhVEmoZJ2z_10async_nats5errorINtB3_5ErrorNtNtNtB5_9jetstream7context16PublishErrorKindE11with_sourceNtNtNtCskNaXoohSNNl_5tokio4sync15batch_semaphore12AcquireErrorECsesyn6ELQ2kp_12object_store
FN:34,_RINvMNtCs6qhVEmoZJ2z_10async_nats5errorINtB3_5ErrorNtNtNtB5_9jetstream7context16PublishErrorKindE11with_sourceNtNtNtCskNaXoohSNNl_5tokio4sync15batch_semaphore15TryAcquireErrorECsesyn6ELQ2kp_12object_store
FN:34,_RINvMNtCs6qhVEmoZJ2z_10async_nats5errorINtB3_5ErrorNtNtNtB5_9jetstream7context18GetStreamErrorKindE11with_sourceIBC_NtBP_16RequestErrorKindEECsesyn6ELQ2kp_12object_store
FN:34,_RINvMNtCs6qhVEmoZJ2z_10async_nats5errorINtB3_5ErrorNtNtNtB5_9jetstream7context20ObjectStoreErrorKindE11with_sourceIBC_NtBP_18GetStreamErrorKindEECsesyn6ELQ2kp_12object_store
FN:34,_RINvMNtCs6qhVEmoZJ2z_10async_nats5errorINtB3_5ErrorNtNtNtB5_9jetstream7context23CreateKeyValueErrorKindE11with_sourceIBC_NtBP_21CreateStreamErrorKindEECsesyn6ELQ2kp_12object_store
FN:70,_RNCNvXs0_NtCs6qhVEmoZJ2z_10async_nats5errorINtB7_5ErrorNtB9_16ConnectErrorKindENtNtCs2CqrNpCrSUr_4core5error5Error6source0Csesyn6ELQ2kp_12object_store
FN:70,_RNCNvXs0_NtCs6qhVEmoZJ2z_10async_nats5errorINtB7_5ErrorNtNtNtB9_9jetstream6stream23LastRawMessageErrorKindENtNtCs2CqrNpCrSUr_4core5error5Error6source0Csesyn6ELQ2kp_12object_store
FN:70,_RNCNvXs0_NtCs6qhVEmoZJ2z_10async_nats5errorINtB7_5ErrorNtNtNtB9_9jetstream7context18GetStreamErrorKindENtNtCs2CqrNpCrSUr_4core5error5Error6source0Csesyn6ELQ2kp_12object_store
FN:70,_RNCNvXs0_NtCs6qhVEmoZJ2z_10async_nats5errorINtB7_5ErrorNtNtNtB9_9jetstream7context20ObjectStoreErrorKindENtNtCs2CqrNpCrSUr_4core5error5Error6source0Csesyn6ELQ2kp_12object_store
FN:30,_RNvMNtCs6qhVEmoZJ2z_10async_nats5errorINtB2_5ErrorNtB4_16ConnectErrorKindE3newCsesyn6ELQ2kp_12object_store
FN:45,_RNvMNtCs6qhVEmoZJ2z_10async_nats5errorINtB2_5ErrorNtB4_16ConnectErrorKindE4kindCsesyn6ELQ2kp_12object_store
FN:45,_RNvMNtCs6qhVEmoZJ2z_10async_nats5errorINtB2_5ErrorNtNtNtB4_9jetstream12object_store12GetErrorKindE4kindCsesyn6ELQ2kp_12object_store
FN:30,_RNvMNtCs6qhVEmoZJ2z_10async_nats5errorINtB2_5ErrorNtNtNtB4_9jetstream12object_store13InfoErrorKindE3newCsesyn6ELQ2kp_12object_store
FN:45,_RNvMNtCs6qhVEmoZJ2z_10async_nats5errorINtB2_5ErrorNtNtNtB4_9jetstream12object_store16AddLinkErrorKindE4kindCsesyn6ELQ2kp_12object_store
FN:30,_RNvMNtCs6qhVEmoZJ2z_10async_nats5errorINtB2_5ErrorNtNtNtB4_9jetstream6stream14PurgeErrorKindE3newCsesyn6ELQ2kp_12object_store
FN:30,_RNvMNtCs6qhVEmoZJ2z_10async_nats5errorINtB2_5ErrorNtNtNtB4_9jetstream6stream23LastRawMessageErrorKindE3newCsesyn6ELQ2kp_12object_store
FN:45,_RNvMNtCs6qhVEmoZJ2z_10async_nats5errorINtB2_5ErrorNtNtNtB4_9jetstream6stream23LastRawMessageErrorKindE4kindCsesyn6ELQ2kp_12object_store
FN:30,_RNvMNtCs6qhVEmoZJ2z_10async_nats5errorINtB2_5ErrorNtNtNtB4_9jetstream7context18GetStreamErrorKindE3newCsesyn6ELQ2kp_12object_store
FN:30,_RNvMNtCs6qhVEmoZJ2z_10async_nats5errorINtB2_5ErrorNtNtNtB4_9jetstream7context20ObjectStoreErrorKindE3newCsesyn6ELQ2kp_12object_store
FN:67,_RNvXs0_NtCs6qhVEmoZJ2z_10async_nats5errorINtB5_5ErrorNtB7_16ConnectErrorKindENtNtCs2CqrNpCrSUr_4core5error5Error6sourceCsesyn6ELQ2kp_12object_store
FN:67,_RNvXs0_NtCs6qhVEmoZJ2z_10async_nats5errorINtB5_5ErrorNtNtNtB7_9jetstream6stream23LastRawMessageErrorKindENtNtCs2CqrNpCrSUr_4core5error5Error6sourceCsesyn6ELQ2kp_12object_store
FN:67,_RNvXs0_NtCs6qhVEmoZJ2z_10async_nats5errorINtB5_5ErrorNtNtNtB7_9jetstream7context18GetStreamErrorKindENtNtCs2CqrNpCrSUr_4core5error5Error6sourceCsesyn6ELQ2kp_12object_store
FN:67,_RNvXs0_NtCs6qhVEmoZJ2z_10async_nats5errorINtB5_5ErrorNtNtNtB7_9jetstream7context20ObjectStoreErrorKindENtNtCs2CqrNpCrSUr_4core5error5Error6sourceCsesyn6ELQ2kp_12object_store
FN:54,_RNvXs_NtCs6qhVEmoZJ2z_10async_nats5errorINtB4_5ErrorNtB6_16ConnectErrorKindENtNtCs2CqrNpCrSUr_4core3fmt7Display3fmtCsesyn6ELQ2kp_12object_store
FN:54,_RNvXs_NtCs6qhVEmoZJ2z_10async_nats5errorINtB4_5ErrorNtNtNtB6_9jetstream6stream23LastRawMessageErrorKindENtNtCs2CqrNpCrSUr_4core3fmt7Display3fmtCsesyn6ELQ2kp_12object_store
FN:54,_RNvXs_NtCs6qhVEmoZJ2z_10async_nats5errorINtB4_5ErrorNtNtNtB6_9jetstream7context18GetStreamErrorKindENtNtCs2CqrNpCrSUr_4core3fmt7Display3fmtCsesyn6ELQ2kp_12object_store
FN:54,_RNvXs_NtCs6qhVEmoZJ2z_10async_nats5errorINtB4_5ErrorNtNtNtB6_9jetstream7context20ObjectStoreErrorKindENtNtCs2CqrNpCrSUr_4core3fmt7Display3fmtCsesyn6ELQ2kp_12object_store
FN:34,_RINvMNtCs6qhVEmoZJ2z_10async_nats5errorINtB3_5ErrorNtB5_16ConnectErrorKindE11with_sourceBB_ECscGYhHI872CP_13service_tests
FN:34,_RINvMNtCs6qhVEmoZJ2z_10async_nats5errorINtB3_5ErrorNtB5_16ConnectErrorKindE11with_sourceNtB5_11ServerErrorECscGYhHI872CP_13service_tests
FN:34,_RINvMNtCs6qhVEmoZJ2z_10async_nats5errorINtB3_5ErrorNtB5_16ConnectErrorKindE11with_sourceNtNtB5_7options9AuthErrorECscGYhHI872CP_13service_tests
FN:34,_RINvMNtCs6qhVEmoZJ2z_10async_nats5errorINtB3_5ErrorNtB5_16ConnectErrorKindE11with_sourceNtNtCs1AhsD0INetT_5alloc6string6StringECscGYhHI872CP_13service_tests
FN:34,_RINvMNtCs6qhVEmoZJ2z_10async_nats5errorINtB3_5ErrorNtB5_16ConnectErrorKindE11with_sourceNtNtCs8ONXqJnTXiZ_16rustls_pki_types11server_name19InvalidDnsNameErrorECscGYhHI872CP_13service_tests
FN:34,_RINvMNtCs6qhVEmoZJ2z_10async_nats5errorINtB3_5ErrorNtB5_16ConnectErrorKindE11with_sourceReECscGYhHI872CP_13service_tests
FN:34,_RINvMNtCs6qhVEmoZJ2z_10async_nats5errorINtB3_5ErrorNtNtB5_6client14FlushErrorKindE11with_sourceINtNtNtNtCskNaXoohSNNl_5tokio4sync4mpsc5error9SendErrorNtB5_7CommandEECscGYhHI872CP_13service_tests
FN:34,_RINvMNtCs6qhVEmoZJ2z_10async_nats5errorINtB3_5ErrorNtNtB5_6client14FlushErrorKindE11with_sourceNtNtNtNtCskNaXoohSNNl_5tokio4sync7oneshot5error9RecvErrorECscGYhHI872CP_13service_tests
FN:70,_RNCNvXs0_NtCs6qhVEmoZJ2z_10async_nats5errorINtB7_5ErrorNtB9_16ConnectErrorKindENtNtCs2CqrNpCrSUr_4core5error5Error6source0CscGYhHI872CP_13service_tests
FN:30,_RNvMNtCs6qhVEmoZJ2z_10async_nats5errorINtB2_5ErrorNtB4_16ConnectErrorKindE3newCscGYhHI872CP_13service_tests
FN:45,_RNvMNtCs6qhVEmoZJ2z_10async_nats5errorINtB2_5ErrorNtB4_16ConnectErrorKindE4kindCscGYhHI872CP_13service_tests
FN:67,_RNvXs0_NtCs6qhVEmoZJ2z_10async_nats5errorINtB5_5ErrorNtB7_16ConnectErrorKindENtNtCs2CqrNpCrSUr_4core5error5Error6sourceCscGYhHI872CP_13service_tests
FN:54,_RNvXs_NtCs6qhVEmoZJ2z_10async_nats5errorINtB4_5ErrorNtB6_16ConnectErrorKindENtNtCs2CqrNpCrSUr_4core3fmt7Display3fmtCscGYhHI872CP_13service_tests
FN:34,_RINvMNtCs6qhVEmoZJ2z_10async_nats5errorINtB3_5ErrorNtB5_16ConnectErrorKindE11with_sourceBB_ECs2VP52EYB5HS_9tls_tests
FN:34,_RINvMNtCs6qhVEmoZJ2z_10async_nats5errorINtB3_5ErrorNtB5_16ConnectErrorKindE11with_sourceNtB5_11ServerErrorECs2VP52EYB5HS_9tls_tests
FN:34,_RINvMNtCs6qhVEmoZJ2z_10async_nats5errorINtB3_5ErrorNtB5_16ConnectErrorKindE11with_sourceNtNtB5_7options9AuthErrorECs2VP52EYB5HS_9tls_tests
FN:34,_RINvMNtCs6qhVEmoZJ2z_10async_nats5errorINtB3_5ErrorNtB5_16ConnectErrorKindE11with_sourceNtNtCs1AhsD0INetT_5alloc6string6StringECs2VP52EYB5HS_9tls_tests
FN:34,_RINvMNtCs6qhVEmoZJ2z_10async_nats5errorINtB3_5ErrorNtB5_16ConnectErrorKindE11with_sourceNtNtCs8ONXqJnTXiZ_16rustls_pki_types11server_name19InvalidDnsNameErrorECs2VP52EYB5HS_9tls_tests
FN:34,_RINvMNtCs6qhVEmoZJ2z_10async_nats5errorINtB3_5ErrorNtB5_16ConnectErrorKindE11with_sourceReECs2VP52EYB5HS_9tls_tests
FN:34,_RINvMNtCs6qhVEmoZJ2z_10async_nats5errorINtB3_5ErrorNtNtB5_6client14FlushErrorKindE11with_sourceINtNtNtNtCskNaXoohSNNl_5tokio4sync4mpsc5error9SendErrorNtB5_7CommandEECs2VP52EYB5HS_9tls_tests
FN:34,_RINvMNtCs6qhVEmoZJ2z_10async_nats5errorINtB3_5ErrorNtNtB5_6client14FlushErrorKindE11with_sourceNtNtNtNtCskNaXoohSNNl_5tokio4sync7oneshot5error9RecvErrorECs2VP52EYB5HS_9tls_tests
FN:70,_RNCNvXs0_NtCs6qhVEmoZJ2z_10async_nats5errorINtB7_5ErrorNtB9_16ConnectErrorKindENtNtCs2CqrNpCrSUr_4core5error5Error6source0Cs2VP52EYB5HS_9tls_tests
FN:30,_RNvMNtCs6qhVEmoZJ2z_10async_nats5errorINtB2_5ErrorNtB4_16ConnectErrorKindE3newCs2VP52EYB5HS_9tls_tests
FN:45,_RNvMNtCs6qhVEmoZJ2z_10async_nats5errorINtB2_5ErrorNtB4_16ConnectErrorKindE4kindCs2VP52EYB5HS_9tls_tests
FN:67,_RNvXs0_NtCs6qhVEmoZJ2z_10async_nats5errorINtB5_5ErrorNtB7_16ConnectErrorKindENtNtCs2CqrNpCrSUr_4core5error5Error6sourceCs2VP52EYB5HS_9tls_tests
FN:54,_RNvXs_NtCs6qhVEmoZJ2z_10async_nats5errorINtB4_5ErrorNtB6_16ConnectErrorKindENtNtCs2CqrNpCrSUr_4core3fmt7Display3fmtCs2VP52EYB5HS_9tls_tests
FNDA:1,_RNvNtNtCs1hbFQVFAImq_10async_nats5error4tests_11with_source
FNDA:1,_RNvNtNtCs1hbFQVFAImq_10async_nats5error4tests_22display_without_source
FNDA:1,_RNvNtNtCs1hbFQVFAImq_10async_nats5error4tests_3new
FNDA:1,_RNvNtNtCs1hbFQVFAImq_10async_nats5error4tests_4from
FNDA:1,_RNvNtNtCs1hbFQVFAImq_10async_nats5error4tests_4kind
FNDA:1,_RNvXNtNtCs1hbFQVFAImq_10async_nats5error4testNtB2_12FooErrorKindNtNtCs2CqrNpCrSUr_4core3fmt7Display3fmt
FNDA:0,_RINvMNtCs1hbFQVFAImq_10async_nats5errorINtB3_5ErrorNtB5_16ConnectErrorKindE11with_sourceBB_EB5_
FNDA:0,_RINvMNtCs1hbFQVFAImq_10async_nats5errorINtB3_5ErrorNtB5_16ConnectErrorKindE11with_sourceNtB5_11ServerErrorEB5_
FNDA:0,_RINvMNtCs1hbFQVFAImq_10async_nats5errorINtB3_5ErrorNtB5_16ConnectErrorKindE11with_sourceNtNtB5_7options9AuthErrorEB5_
FNDA:0,_RINvMNtCs1hbFQVFAImq_10async_nats5errorINtB3_5ErrorNtB5_16ConnectErrorKindE11with_sourceNtNtCs1AhsD0INetT_5alloc6string6StringEB5_
FNDA:0,_RINvMNtCs1hbFQVFAImq_10async_nats5errorINtB3_5ErrorNtB5_16ConnectErrorKindE11with_sourceNtNtCs8ONXqJnTXiZ_16rustls_pki_types11server_name19InvalidDnsNameErrorEB5_
FNDA:0,_RINvMNtCs1hbFQVFAImq_10async_nats5errorINtB3_5ErrorNtB5_16ConnectErrorKindE11with_sourceNtNtNtCs4N3M0UGf3SB_3std2io5error5ErrorEB5_
FNDA:0,_RINvMNtCs1hbFQVFAImq_10async_nats5errorINtB3_5ErrorNtB5_16ConnectErrorKindE11with_sourceReEB5_
FNDA:1,_RINvMNtCs1hbFQVFAImq_10async_nats5errorINtB3_5ErrorNtNtB3_4test12FooErrorKindE11with_sourceNtNtNtCs4N3M0UGf3SB_3std2io5error5ErrorEB5_
FNDA:0,_RNCNvXs0_NtCs1hbFQVFAImq_10async_nats5errorINtB7_5ErrorNtB9_16ConnectErrorKindENtNtCs2CqrNpCrSUr_4core5error5Error6source0B9_
FNDA:0,_RNvMNtCs1hbFQVFAImq_10async_nats5errorINtB2_5ErrorNtB4_16ConnectErrorKindE3newB4_
FNDA:0,_RNvMNtCs1hbFQVFAImq_10async_nats5errorINtB2_5ErrorNtB4_16ConnectErrorKindE4kindB4_
FNDA:1,_RNvMNtCs1hbFQVFAImq_10async_nats5errorINtB2_5ErrorNtNtB2_4test12FooErrorKindE3newB4_
FNDA:2,_RNvMNtCs1hbFQVFAImq_10async_nats5errorINtB2_5ErrorNtNtB2_4test12FooErrorKindE4kindB4_
FNDA:0,_RNvXs0_NtCs1hbFQVFAImq_10async_nats5errorINtB5_5ErrorNtB7_16ConnectErrorKindENtNtCs2CqrNpCrSUr_4core5error5Error6sourceB7_
FNDA:3,_RNvXs1_NtCs1hbFQVFAImq_10async_nats5errorINtB5_5ErrorNtNtB5_4test12FooErrorKindEINtNtCs2CqrNpCrSUr_4core7convert4FromBP_E4fromB7_
FNDA:0,_RNvXs_NtCs1hbFQVFAImq_10async_nats5errorINtB4_5ErrorNtB6_16ConnectErrorKindENtNtCs2CqrNpCrSUr_4core3fmt7Display3fmtB6_
FNDA:1,_RNvXs_NtCs1hbFQVFAImq_10async_nats5errorINtB4_5ErrorNtNtB4_4test12FooErrorKindENtNtCs2CqrNpCrSUr_4core3fmt7Display3fmtB6_
FNDA:1,_RINvMNtCs6qhVEmoZJ2z_10async_nats5errorINtB3_5ErrorNtB5_16ConnectErrorKindE11with_sourceBB_ECsdpdgC16NPIW_12client_tests
FNDA:2,_RINvMNtCs6qhVEmoZJ2z_10async_nats5errorINtB3_5ErrorNtB5_16ConnectErrorKindE11with_sourceNtB5_11ServerErrorECsdpdgC16NPIW_12client_tests
FNDA:0,_RINvMNtCs6qhVEmoZJ2z_10async_nats5errorINtB3_5ErrorNtB5_16ConnectErrorKindE11with_sourceNtNtB5_7options9AuthErrorECsdpdgC16NPIW_12client_tests
FNDA:0,_RINvMNtCs6qhVEmoZJ2z_10async_nats5errorINtB3_5ErrorNtB5_16ConnectErrorKindE11with_sourceNtNtCs1AhsD0INetT_5alloc6string6StringECsdpdgC16NPIW_12client_tests
FNDA:0,_RINvMNtCs6qhVEmoZJ2z_10async_nats5errorINtB3_5ErrorNtB5_16ConnectErrorKindE11with_sourceNtNtCs8ONXqJnTXiZ_16rustls_pki_types11server_name19InvalidDnsNameErrorECsdpdgC16NPIW_12client_tests
FNDA:0,_RINvMNtCs6qhVEmoZJ2z_10async_nats5errorINtB3_5ErrorNtB5_16ConnectErrorKindE11with_sourceReECsdpdgC16NPIW_12client_tests
FNDA:0,_RINvMNtCs6qhVEmoZJ2z_10async_nats5errorINtB3_5ErrorNtNtB5_6client14FlushErrorKindE11with_sourceINtNtNtNtCskNaXoohSNNl_5tokio4sync4mpsc5error9SendErrorNtB5_7CommandEECsdpdgC16NPIW_12client_tests
FNDA:0,_RINvMNtCs6qhVEmoZJ2z_10async_nats5errorINtB3_5ErrorNtNtB5_6client14FlushErrorKindE11with_sourceNtNtNtNtCskNaXoohSNNl_5tokio4sync7oneshot5error9RecvErrorECsdpdgC16NPIW_12client_tests
FNDA:0,_RNCNvXs0_NtCs6qhVEmoZJ2z_10async_nats5errorINtB7_5ErrorNtB9_16ConnectErrorKindENtNtCs2CqrNpCrSUr_4core5error5Error6source0CsdpdgC16NPIW_12client_tests
FNDA:2,_RNvMNtCs6qhVEmoZJ2z_10async_nats5errorINtB2_5ErrorNtB4_16ConnectErrorKindE3newCsdpdgC16NPIW_12client_tests
FNDA:52,_RNvMNtCs6qhVEmoZJ2z_10async_nats5errorINtB2_5ErrorNtB4_16ConnectErrorKindE4kindCsdpdgC16NPIW_12client_tests
FNDA:0,_RNvXs0_NtCs6qhVEmoZJ2z_10async_nats5errorINtB5_5ErrorNtB7_16ConnectErrorKindENtNtCs2CqrNpCrSUr_4core5error5Error6sourceCsdpdgC16NPIW_12client_tests
FNDA:0,_RNvXs_NtCs6qhVEmoZJ2z_10async_nats5errorINtB4_5ErrorNtB6_16ConnectErrorKindENtNtCs2CqrNpCrSUr_4core3fmt7Display3fmtCsdpdgC16NPIW_12client_tests
FNDA:253,_RINvMNtCs6qhVEmoZJ2z_10async_nats5errorINtB3_5ErrorNtB5_16ConnectErrorKindE11with_sourceNtNtNtCs4N3M0UGf3SB_3std2io5error5ErrorEB5_
FNDA:0,_RINvMNtCs6qhVEmoZJ2z_10async_nats5errorINtB3_5ErrorNtNtB5_6client16PublishErrorKindE11with_sourceINtNtNtCshOwRwf5n7ZO_10tokio_util4sync4mpsc13PollSendErrorNtB5_7CommandEEB5_
FNDA:1,_RINvMNtCs6qhVEmoZJ2z_10async_nats5errorINtB3_5ErrorNtNtB5_6client16PublishErrorKindE11with_sourceINtNtNtNtCskNaXoohSNNl_5tokio4sync4mpsc5error9SendErrorNtB5_7CommandEEB5_
FNDA:1,_RINvMNtCs6qhVEmoZJ2z_10async_nats5errorINtB3_5ErrorNtNtB5_6client16PublishErrorKindE11with_sourceNtNtCs1AhsD0INetT_5alloc6string6StringEB5_
FNDA:0,_RINvMNtCs6qhVEmoZJ2z_10async_nats5errorINtB3_5ErrorNtNtB5_6client16RequestErrorKindE11with_sourceIBC_NtBP_16PublishErrorKindEEB5_
FNDA:0,_RINvMNtCs6qhVEmoZJ2z_10async_nats5errorINtB3_5ErrorNtNtB5_6client16RequestErrorKindE11with_sourceIBC_NtNtNtB5_9jetstream7context21ConsumerInfoErrorKindEEB5_
FNDA:0,_RINvMNtCs6qhVEmoZJ2z_10async_nats5errorINtB3_5ErrorNtNtB5_6client16RequestErrorKindE11with_sourceINtNtNtNtCskNaXoohSNNl_5tokio4sync4mpsc5error9SendErrorNtB5_7CommandEEB5_
FNDA:0,_RINvMNtCs6qhVEmoZJ2z_10async_nats5errorINtB3_5ErrorNtNtB5_6client16RequestErrorKindE11with_sourceNtBP_14SubscribeErrorEB5_
FNDA:3,_RINvMNtCs6qhVEmoZJ2z_10async_nats5errorINtB3_5ErrorNtNtB5_6client16RequestErrorKindE11with_sourceNtNtNtCskNaXoohSNNl_5tokio4time5error7ElapsedEB5_
FNDA:0,_RINvMNtCs6qhVEmoZJ2z_10async_nats5errorINtB3_5ErrorNtNtB5_6client16RequestErrorKindE11with_sourceNtNtNtNtCskNaXoohSNNl_5tokio4sync7oneshot5error9RecvErrorEB5_
FNDA:2,_RINvMNtCs6qhVEmoZJ2z_10async_nats5errorINtB3_5ErrorNtNtB5_6client16RequestErrorKindE11with_sourceReEB5_
FNDA:0,_RINvMNtCs6qhVEmoZJ2z_10async_nats5errorINtB3_5ErrorNtNtNtB5_9jetstream12object_store12GetErrorKindE11with_sourceIBC_NtBP_13InfoErrorKindEEB5_
FNDA:0,_RINvMNtCs6qhVEmoZJ2z_10async_nats5errorINtB3_5ErrorNtNtNtB5_9jetstream12object_store12GetErrorKindE11with_sourceIBC_NtNtBR_6stream17ConsumerErrorKindEEB5_
FNDA:0,_RINvMNtCs6qhVEmoZJ2z_10async_nats5errorINtB3_5ErrorNtNtNtB5_9jetstream12object_store12GetErrorKindE11with_sourceIBC_NtNtBR_8consumer15StreamErrorKindEEB5_
FNDA:0,_RINvMNtCs6qhVEmoZJ2z_10async_nats5errorINtB3_5ErrorNtNtNtB5_9jetstream12object_store12PutErrorKindE11with_sourceIBC_NtBP_24PublishMetadataErrorKindEEB5_
FNDA:0,_RINvMNtCs6qhVEmoZJ2z_10async_nats5errorINtB3_5ErrorNtNtNtB5_9jetstream12object_store13SealErrorKindE11with_sourceIBC_NtNtBR_7context21CreateStreamErrorKindEEB5_
FNDA:0,_RINvMNtCs6qhVEmoZJ2z_10async_nats5errorINtB3_5ErrorNtNtNtB5_9jetstream12object_store14WatchErrorKindE11with_sourceIBC_NtNtBR_6stream17ConsumerErrorKindEEB5_
FNDA:0,_RINvMNtCs6qhVEmoZJ2z_10async_nats5errorINtB3_5ErrorNtNtNtB5_9jetstream12object_store14WatchErrorKindE11with_sourceIBC_NtNtBR_8consumer15StreamErrorKindEEB5_
FNDA:0,_RINvMNtCs6qhVEmoZJ2z_10async_nats5errorINtB3_5ErrorNtNtNtB5_9jetstream12object_store15DeleteErrorKindE11with_sourceIBC_NtBP_13InfoErrorKindEEB5_
FNDA:0,_RINvMNtCs6qhVEmoZJ2z_10async_nats5errorINtB3_5ErrorNtNtNtB5_9jetstream12object_store15DeleteErrorKindE11with_sourceIBC_NtNtBR_6stream14PurgeErrorKindEEB5_
FNDA:0,_RINvMNtCs6qhVEmoZJ2z_10async_nats5errorINtB3_5ErrorNtNtNtB5_9jetstream12object_store15DeleteErrorKindE11with_sourceIBC_NtNtBR_7context16PublishErrorKindEEB5_
FNDA:0,_RINvMNtCs6qhVEmoZJ2z_10async_nats5errorINtB3_5ErrorNtNtNtB5_9jetstream12object_store16AddLinkErrorKindE11with_sourceIBC_NtBP_24PublishMetadataErrorKindEEB5_
FNDA:0,_RINvMNtCs6qhVEmoZJ2z_10async_nats5errorINtB3_5ErrorNtNtNtB5_9jetstream12object_store16WatcherErrorKindE11with_sourceIBC_NtNtNtBR_8consumer4push16OrderedErrorKindEEB5_
FNDA:0,_RINvMNtCs6qhVEmoZJ2z_10async_nats5errorINtB3_5ErrorNtNtNtB5_9jetstream12object_store16WatcherErrorKindE11with_sourceINtNtCs1AhsD0INetT_5alloc5boxed3BoxDNtNtCs2CqrNpCrSUr_4core5error5ErrorNtNtB2u_6marker4SendNtB31_4SyncEL_EEB5_
FNDA:0,_RINvMNtCs6qhVEmoZJ2z_10async_nats5errorINtB3_5ErrorNtNtNtB5_9jetstream12object_store16WatcherErrorKindE11with_sourceNtNtCs1AhsD0INetT_5alloc6string6StringEB5_
FNDA:0,_RINvMNtCs6qhVEmoZJ2z_10async_nats5errorINtB3_5ErrorNtNtNtB5_9jetstream12object_store23UpdateMetadataErrorKindE11with_sourceIBC_NtBP_13InfoErrorKindEEB5_
FNDA:0,_RINvMNtCs6qhVEmoZJ2z_10async_nats5errorINtB3_5ErrorNtNtNtB5_9jetstream2kv14EntryErrorKindE11with_sourceIBC_NtNtBR_6stream18DirectGetErrorKindEEB5_
FNDA:0,_RINvMNtCs6qhVEmoZJ2z_10async_nats5errorINtB3_5ErrorNtNtNtB5_9jetstream2kv14EntryErrorKindE11with_sourceNtBP_19ParseOperationErrorEB5_
FNDA:20,_RINvMNtCs6qhVEmoZJ2z_10async_nats5errorINtB3_5ErrorNtNtNtB5_9jetstream2kv14EntryErrorKindE11with_sourceReEB5_
FNDA:0,_RINvMNtCs6qhVEmoZJ2z_10async_nats5errorINtB3_5ErrorNtNtNtB5_9jetstream2kv14WatchErrorKindE11with_sourceIBC_NtNtBR_6stream17ConsumerErrorKindEEB5_
FNDA:0,_RINvMNtCs6qhVEmoZJ2z_10async_nats5errorINtB3_5ErrorNtNtNtB5_9jetstream2kv14WatchErrorKindE11with_sourceIBC_NtNtBR_8consumer15StreamErrorKindEEB5_
FNDA:5,_RINvMNtCs6qhVEmoZJ2z_10async_nats5errorINtB3_5ErrorNtNtNtB5_9jetstream2kv15UpdateErrorKindE11with_sourceIBC_NtNtBR_7context16PublishErrorKindEEB5_
FNDA:0,_RINvMNtCs6qhVEmoZJ2z_10async_nats5errorINtB3_5ErrorNtNtNtB5_9jetstream2kv16WatcherErrorKindE11with_sourceIBC_NtNtNtBR_8consumer4push16OrderedErrorKindEEB5_
FNDA:0,_RINvMNtCs6qhVEmoZJ2z_10async_nats5errorINtB3_5ErrorNtNtNtB5_9jetstream2kv16WatcherErrorKindE11with_sourceNtNtCs1AhsD0INetT_5alloc6string6StringEB5_
FNDA:0,_RINvMNtCs6qhVEmoZJ2z_10async_nats5errorINtB3_5ErrorNtNtNtB5_9jetstream6stream17ConsumerErrorKindE11with_sourceIBC_NtNtBR_7context16RequestErrorKindEEB5_
FNDA:0,_RINvMNtCs6qhVEmoZJ2z_10async_nats5errorINtB3_5ErrorNtNtNtB5_9jetstream6stream17ConsumerErrorKindE11with_sourceINtNtCs1AhsD0INetT_5alloc5boxed3BoxDNtNtCs2CqrNpCrSUr_4core5error5ErrorNtNtB2o_6marker4SendNtB2V_4SyncEL_EEB5_
FNDA:0,_RINvMNtCs6qhVEmoZJ2z_10async_nats5errorINtB3_5ErrorNtNtNtB5_9jetstream6stream17ConsumerErrorKindE11with_sourceReEB5_
FNDA:0,_RINvMNtCs6qhVEmoZJ2z_10async_nats5errorINtB3_5ErrorNtNtNtB5_9jetstream6stream18DirectGetErrorKindE11with_sourceIBC_NtNtB5_6client16RequestErrorKindEEB5_
FNDA:0,_RINvMNtCs6qhVEmoZJ2z_10async_nats5errorINtB3_5ErrorNtNtNtB5_9jetstream6stream18DirectGetErrorKindE11with_sourceIBC_NtNtBR_7message22StreamMessageErrorKindEEB5_
FNDA:0,_RINvMNtCs6qhVEmoZJ2z_10async_nats5errorINtB3_5ErrorNtNtNtB5_9jetstream6stream18DirectGetErrorKindE11with_sourceNtNtCs3hMvov8GLbn_10serde_json5error5ErrorEB5_
FNDA:0,_RINvMNtCs6qhVEmoZJ2z_10async_nats5errorINtB3_5ErrorNtNtNtB5_9jetstream6stream23ConsumerUpdateErrorKindE11with_sourceIBC_NtNtBR_7context16RequestErrorKindEEB5_
FNDA:0,_RINvMNtCs6qhVEmoZJ2z_10async_nats5errorINtB3_5ErrorNtNtNtB5_9jetstream6stream23LastRawMessageErrorKindE11with_sourceINtNtCs1AhsD0INetT_5alloc5boxed3BoxDNtNtCs2CqrNpCrSUr_4core5error5ErrorNtNtB2u_6marker4SendNtB31_4SyncEL_EEB5_
FNDA:0,_RINvMNtCs6qhVEmoZJ2z_10async_nats5errorINtB3_5ErrorNtNtNtB5_9jetstream6stream23LastRawMessageErrorKindE11with_sourceINtNtCs1AhsD0INetT_5alloc5boxed3BoxNtNtNtCs4N3M0UGf3SB_3std2io5error5ErrorEEB5_
FNDA:0,_RINvMNtCs6qhVEmoZJ2z_10async_nats5errorINtB3_5ErrorNtNtNtB5_9jetstream6stream29ConsumerCreateStrictErrorKindE11with_sourceIBC_NtNtBR_7context16RequestErrorKindEEB5_
FNDA:0,_RINvMNtCs6qhVEmoZJ2z_10async_nats5errorINtB3_5ErrorNtNtNtB5_9jetstream7context16AccountErrorKindE11with_sourceIBC_NtBP_16RequestErrorKindEEB5_
FNDA:10,_RINvMNtCs6qhVEmoZJ2z_10async_nats5errorINtB3_5ErrorNtNtNtB5_9jetstream7context16PublishErrorKindE11with_sourceNtNtBR_6errors5ErrorEB5_
FNDA:0,_RINvMNtCs6qhVEmoZJ2z_10async_nats5errorINtB3_5ErrorNtNtNtB5_9jetstream7context16PublishErrorKindE11with_sourceNtNtCs3hMvov8GLbn_10serde_json5error5ErrorEB5_
FNDA:0,_RINvMNtCs6qhVEmoZJ2z_10async_nats5errorINtB3_5ErrorNtNtNtB5_9jetstream7context16RequestErrorKindE11with_sourceBB_EB5_
FNDA:1,_RINvMNtCs6qhVEmoZJ2z_10async_nats5errorINtB3_5ErrorNtNtNtB5_9jetstream7context16RequestErrorKindE11with_sourceIBC_NtNtB5_6client16RequestErrorKindEEB5_
FNDA:0,_RINvMNtCs6qhVEmoZJ2z_10async_nats5errorINtB3_5ErrorNtNtNtB5_9jetstream7context16RequestErrorKindE11with_sourceNtNtBR_6errors5ErrorEB5_
FNDA:0,_RINvMNtCs6qhVEmoZJ2z_10async_nats5errorINtB3_5ErrorNtNtNtB5_9jetstream7context16RequestErrorKindE11with_sourceNtNtCs3hMvov8GLbn_10serde_json5error5ErrorEB5_
FNDA:0,_RINvMNtCs6qhVEmoZJ2z_10async_nats5errorINtB3_5ErrorNtNtNtB5_9jetstream7context21ConsumerInfoErrorKindE11with_sourceIBC_NtBP_16RequestErrorKindEEB5_
FNDA:0,_RINvMNtCs6qhVEmoZJ2z_10async_nats5errorINtB3_5ErrorNtNtNtB5_9jetstream7context21CreateStreamErrorKindE11with_sourceIBC_NtBP_16RequestErrorKindEEB5_
FNDA:0,_RINvMNtCs6qhVEmoZJ2z_10async_nats5errorINtB3_5ErrorNtNtNtB5_9jetstream7message22StreamMessageErrorKindE11with_sourceNtNtCs1AhsD0INetT_5alloc6string6StringEB5_
FNDA:0,_RINvMNtCs6qhVEmoZJ2z_10async_nats5errorINtB3_5ErrorNtNtNtB5_9jetstream7message22StreamMessageErrorKindE11with_sourceReEB5_
FNDA:0,_RINvMNtCs6qhVEmoZJ2z_10async_nats5errorINtB3_5ErrorNtNtNtB5_9jetstream8consumer15StreamErrorKindE11with_sourceNtNtB5_6client14SubscribeErrorEB5_
FNDA:0,_RINvMNtCs6qhVEmoZJ2z_10async_nats5errorINtB3_5ErrorNtNtNtNtB5_9jetstream8consumer4pull14BatchErrorKindE11with_sourceIBC_NtBP_21BatchRequestErrorKindEEB5_
FNDA:0,_RINvMNtCs6qhVEmoZJ2z_10async_nats5errorINtB3_5ErrorNtNtNtNtB5_9jetstream8consumer4pull14BatchErrorKindE11with_sourceNtNtB5_6client14SubscribeErrorEB5_
FNDA:0,_RINvMNtCs6qhVEmoZJ2z_10async_nats5errorINtB3_5ErrorNtNtNtNtB5_9jetstream8consumer4pull16OrderedErrorKindE11with_sourceIBC_NtBP_25ConsumerRecreateErrorKindEEB5_
FNDA:0,_RINvMNtCs6qhVEmoZJ2z_10async_nats5errorINtB3_5ErrorNtNtNtNtB5_9jetstream8consumer4pull16OrderedErrorKindE11with_sourceINtNtCs1AhsD0INetT_5alloc5boxed3BoxDNtNtCs2CqrNpCrSUr_4core5error5ErrorNtNtB2w_6marker4SendNtB33_4SyncEL_EEB5_
FNDA:0,_RINvMNtCs6qhVEmoZJ2z_10async_nats5errorINtB3_5ErrorNtNtNtNtB5_9jetstream8consumer4pull17MessagesErrorKindE11with_sourceBB_EB5_
FNDA:0,_RINvMNtCs6qhVEmoZJ2z_10async_nats5errorINtB3_5ErrorNtNtNtNtB5_9jetstream8consumer4pull17MessagesErrorKindE11with_sourceIBC_NtNtB5_6client16PublishErrorKindEEB5_
FNDA:0,_RINvMNtCs6qhVEmoZJ2z_10async_nats5errorINtB3_5ErrorNtNtNtNtB5_9jetstream8consumer4pull17MessagesErrorKindE11with_sourceIBC_NtNtBT_7context16RequestErrorKindEEB5_
FNDA:0,_RINvMNtCs6qhVEmoZJ2z_10async_nats5errorINtB3_5ErrorNtNtNtNtB5_9jetstream8consumer4pull17MessagesErrorKindE11with_sourceNtNtB5_6client14SubscribeErrorEB5_
FNDA:1,_RINvMNtCs6qhVEmoZJ2z_10async_nats5errorINtB3_5ErrorNtNtNtNtB5_9jetstream8consumer4pull17MessagesErrorKindE11with_sourceNtNtCs1AhsD0INetT_5alloc6string6StringEB5_
FNDA:0,_RINvMNtCs6qhVEmoZJ2z_10async_nats5errorINtB3_5ErrorNtNtNtNtB5_9jetstream8consumer4pull17MessagesErrorKindE11with_sourceNtNtNtCs2CqrNpCrSUr_4core3num5error13ParseIntErrorEB5_
FNDA:0,_RINvMNtCs6qhVEmoZJ2z_10async_nats5errorINtB3_5ErrorNtNtNtNtB5_9jetstream8consumer4pull21BatchRequestErrorKindE11with_sourceNtNtCs3hMvov8GLbn_10serde_json5error5ErrorEB5_
FNDA:0,_RINvMNtCs6qhVEmoZJ2z_10async_nats5errorINtB3_5ErrorNtNtNtNtB5_9jetstream8consumer4pull25ConsumerRecreateErrorKindE11with_sourceIBC_NtBR_15StreamErrorKindEEB5_
FNDA:0,_RINvMNtCs6qhVEmoZJ2z_10async_nats5errorINtB3_5ErrorNtNtNtNtB5_9jetstream8consumer4pull25ConsumerRecreateErrorKindE11with_sourceIBC_NtNtBT_6stream17ConsumerErrorKindEEB5_
FNDA:0,_RINvMNtCs6qhVEmoZJ2z_10async_nats5errorINtB3_5ErrorNtNtNtNtB5_9jetstream8consumer4pull25ConsumerRecreateErrorKindE11with_sourceNtNtNtCskNaXoohSNNl_5tokio4time5error7ElapsedEB5_
FNDA:0,_RINvMNtCs6qhVEmoZJ2z_10async_nats5errorINtB3_5ErrorNtNtNtNtB5_9jetstream8consumer4push16OrderedErrorKindE11with_sourceIBC_NtBP_25ConsumerRecreateErrorKindEEB5_
FNDA:0,_RINvMNtCs6qhVEmoZJ2z_10async_nats5errorINtB3_5ErrorNtNtNtNtB5_9jetstream8consumer4push16OrderedErrorKindE11with_sourceINtNtCs1AhsD0INetT_5alloc5boxed3BoxDNtNtCs2CqrNpCrSUr_4core5error5ErrorNtNtB2w_6marker4SendNtB33_4SyncEL_EEB5_
FNDA:0,_RINvMNtCs6qhVEmoZJ2z_10async_nats5errorINtB3_5ErrorNtNtNtNtB5_9jetstream8consumer4push16OrderedErrorKindE11with_sourceNtNtNtCs2CqrNpCrSUr_4core3num5error13ParseIntErrorEB5_
FNDA:0,_RINvMNtCs6qhVEmoZJ2z_10async_nats5errorINtB3_5ErrorNtNtNtNtB5_9jetstream8consumer4push16OrderedErrorKindE11with_sourceReEB5_
FNDA:0,_RINvMNtCs6qhVEmoZJ2z_10async_nats5errorINtB3_5ErrorNtNtNtNtB5_9jetstream8consumer4push25ConsumerRecreateErrorKindE11with_sourceBB_EB5_
FNDA:0,_RINvMNtCs6qhVEmoZJ2z_10async_nats5errorINtB3_5ErrorNtNtNtNtB5_9jetstream8consumer4push25ConsumerRecreateErrorKindE11with_sourceIBC_NtNtBT_6stream17ConsumerErrorKindEEB5_
FNDA:0,_RINvMNtCs6qhVEmoZJ2z_10async_nats5errorINtB3_5ErrorNtNtNtNtB5_9jetstream8consumer4push25ConsumerRecreateErrorKindE11with_sourceNtNtB5_6client14SubscribeErrorEB5_
FNDA:0,_RNCNvXs0_NtCs6qhVEmoZJ2z_10async_nats5errorINtB7_5ErrorNtNtB9_6client16PublishErrorKindENtNtCs2CqrNpCrSUr_4core5error5Error6source0B9_
FNDA:0,_RNCNvXs0_NtCs6qhVEmoZJ2z_10async_nats5errorINtB7_5ErrorNtNtB9_6client16RequestErrorKindENtNtCs2CqrNpCrSUr_4core5error5Error6source0B9_
FNDA:0,_RNCNvXs0_NtCs6qhVEmoZJ2z_10async_nats5errorINtB7_5ErrorNtNtNtB9_9jetstream12object_store13InfoErrorKindENtNtCs2CqrNpCrSUr_4core5error5Error6source0B9_
FNDA:0,_RNCNvXs0_NtCs6qhVEmoZJ2z_10async_nats5errorINtB7_5ErrorNtNtNtB9_9jetstream12object_store24PublishMetadataErrorKindENtNtCs2CqrNpCrSUr_4core5error5Error6source0B9_
FNDA:0,_RNCNvXs0_NtCs6qhVEmoZJ2z_10async_nats5errorINtB7_5ErrorNtNtNtB9_9jetstream6stream14PurgeErrorKindENtNtCs2CqrNpCrSUr_4core5error5Error6source0B9_
FNDA:0,_RNCNvXs0_NtCs6qhVEmoZJ2z_10async_nats5errorINtB7_5ErrorNtNtNtB9_9jetstream6stream17ConsumerErrorKindENtNtCs2CqrNpCrSUr_4core5error5Error6source0B9_
FNDA:0,_RNCNvXs0_NtCs6qhVEmoZJ2z_10async_nats5errorINtB7_5ErrorNtNtNtB9_9jetstream6stream18DirectGetErrorKindENtNtCs2CqrNpCrSUr_4core5error5Error6source0B9_
FNDA:0,_RNCNvXs0_NtCs6qhVEmoZJ2z_10async_nats5errorINtB7_5ErrorNtNtNtB9_9jetstream7context16PublishErrorKindENtNtCs2CqrNpCrSUr_4core5error5Error6source0B9_
FNDA:0,_RNCNvXs0_NtCs6qhVEmoZJ2z_10async_nats5errorINtB7_5ErrorNtNtNtB9_9jetstream7context16RequestErrorKindENtNtCs2CqrNpCrSUr_4core5error5Error6source0B9_
FNDA:0,_RNCNvXs0_NtCs6qhVEmoZJ2z_10async_nats5errorINtB7_5ErrorNtNtNtB9_9jetstream7context21ConsumerInfoErrorKindENtNtCs2CqrNpCrSUr_4core5error5Error6source0B9_
FNDA:0,_RNCNvXs0_NtCs6qhVEmoZJ2z_10async_nats5errorINtB7_5ErrorNtNtNtB9_9jetstream7context21CreateStreamErrorKindENtNtCs2CqrNpCrSUr_4core5error5Error6source0B9_
FNDA:0,_RNCNvXs0_NtCs6qhVEmoZJ2z_10async_nats5errorINtB7_5ErrorNtNtNtB9_9jetstream7message22StreamMessageErrorKindENtNtCs2CqrNpCrSUr_4core5error5Error6source0B9_
FNDA:0,_RNCNvXs0_NtCs6qhVEmoZJ2z_10async_nats5errorINtB7_5ErrorNtNtNtB9_9jetstream8consumer15StreamErrorKindENtNtCs2CqrNpCrSUr_4core5error5Error6source0B9_
FNDA:0,_RNCNvXs0_NtCs6qhVEmoZJ2z_10async_nats5errorINtB7_5ErrorNtNtNtNtB9_9jetstream8consumer4pull17MessagesErrorKindENtNtCs2CqrNpCrSUr_4core5error5Error6source0B9_
FNDA:0,_RNCNvXs0_NtCs6qhVEmoZJ2z_10async_nats5errorINtB7_5ErrorNtNtNtNtB9_9jetstream8consumer4pull21BatchRequestErrorKindENtNtCs2CqrNpCrSUr_4core5error5Error6source0B9_
FNDA:0,_RNCNvXs0_NtCs6qhVEmoZJ2z_10async_nats5errorINtB7_5ErrorNtNtNtNtB9_9jetstream8consumer4pull25ConsumerRecreateErrorKindENtNtCs2CqrNpCrSUr_4core5error5Error6source0B9_
FNDA:0,_RNCNvXs0_NtCs6qhVEmoZJ2z_10async_nats5errorINtB7_5ErrorNtNtNtNtB9_9jetstream8consumer4push16OrderedErrorKindENtNtCs2CqrNpCrSUr_4core5error5Error6source0B9_
FNDA:0,_RNCNvXs0_NtCs6qhVEmoZJ2z_10async_nats5errorINtB7_5ErrorNtNtNtNtB9_9jetstream8consumer4push25ConsumerRecreateErrorKindENtNtCs2CqrNpCrSUr_4core5error5Error6source0B9_
FNDA:4,_RNvMNtCs6qhVEmoZJ2z_10async_nats5errorINtB2_5ErrorNtNtB4_6client16RequestErrorKindE4kindB4_
FNDA:1,_RNvMNtCs6qhVEmoZJ2z_10async_nats5errorINtB2_5ErrorNtNtNtB4_9jetstream12object_store12GetErrorKindE3newB4_
FNDA:0,_RNvMNtCs6qhVEmoZJ2z_10async_nats5errorINtB2_5ErrorNtNtNtB4_9jetstream12object_store12PutErrorKindE3newB4_
FNDA:4,_RNvMNtCs6qhVEmoZJ2z_10async_nats5errorINtB2_5ErrorNtNtNtB4_9jetstream12object_store13InfoErrorKindE4kindB4_
FNDA:0,_RNvMNtCs6qhVEmoZJ2z_10async_nats5errorINtB2_5ErrorNtNtNtB4_9jetstream12object_store13SealErrorKindE3newB4_
FNDA:0,_RNvMNtCs6qhVEmoZJ2z_10async_nats5errorINtB2_5ErrorNtNtNtB4_9jetstream12object_store14WatchErrorKindE3newB4_
FNDA:0,_RNvMNtCs6qhVEmoZJ2z_10async_nats5errorINtB2_5ErrorNtNtNtB4_9jetstream12object_store15DeleteErrorKindE3newB4_
FNDA:3,_RNvMNtCs6qhVEmoZJ2z_10async_nats5errorINtB2_5ErrorNtNtNtB4_9jetstream12object_store16AddLinkErrorKindE3newB4_
FNDA:0,_RNvMNtCs6qhVEmoZJ2z_10async_nats5errorINtB2_5ErrorNtNtNtB4_9jetstream12object_store23UpdateMetadataErrorKindE3newB4_
FNDA:0,_RNvMNtCs6qhVEmoZJ2z_10async_nats5errorINtB2_5ErrorNtNtNtB4_9jetstream2kv12PutErrorKindE4kindB4_
FNDA:0,_RNvMNtCs6qhVEmoZJ2z_10async_nats5errorINtB2_5ErrorNtNtNtB4_9jetstream2kv14EntryErrorKindE3newB4_
FNDA:0,_RNvMNtCs6qhVEmoZJ2z_10async_nats5errorINtB2_5ErrorNtNtNtB4_9jetstream2kv14EntryErrorKindE4kindB4_
FNDA:0,_RNvMNtCs6qhVEmoZJ2z_10async_nats5errorINtB2_5ErrorNtNtNtB4_9jetstream2kv14WatchErrorKindE3newB4_
FNDA:0,_RNvMNtCs6qhVEmoZJ2z_10async_nats5errorINtB2_5ErrorNtNtNtB4_9jetstream2kv15UpdateErrorKindE3newB4_
FNDA:0,_RNvMNtCs6qhVEmoZJ2z_10async_nats5errorINtB2_5ErrorNtNtNtB4_9jetstream2kv15UpdateErrorKindE4kindB4_
FNDA:0,_RNvMNtCs6qhVEmoZJ2z_10async_nats5errorINtB2_5ErrorNtNtNtB4_9jetstream6stream14PurgeErrorKindE4kindB4_
FNDA:4,_RNvMNtCs6qhVEmoZJ2z_10async_nats5errorINtB2_5ErrorNtNtNtB4_9jetstream6stream17ConsumerErrorKindE3newB4_
FNDA:2,_RNvMNtCs6qhVEmoZJ2z_10async_nats5errorINtB2_5ErrorNtNtNtB4_9jetstream6stream17ConsumerErrorKindE4kindB4_
FNDA:12,_RNvMNtCs6qhVEmoZJ2z_10async_nats5errorINtB2_5ErrorNtNtNtB4_9jetstream6stream18DirectGetErrorKindE3newB4_
FNDA:7,_RNvMNtCs6qhVEmoZJ2z_10async_nats5errorINtB2_5ErrorNtNtNtB4_9jetstream6stream18DirectGetErrorKindE4kindB4_
FNDA:1,_RNvMNtCs6qhVEmoZJ2z_10async_nats5errorINtB2_5ErrorNtNtNtB4_9jetstream6stream23ConsumerUpdateErrorKindE3newB4_
FNDA:1,_RNvMNtCs6qhVEmoZJ2z_10async_nats5errorINtB2_5ErrorNtNtNtB4_9jetstream6stream29ConsumerCreateStrictErrorKindE3newB4_
FNDA:0,_RNvMNtCs6qhVEmoZJ2z_10async_nats5errorINtB2_5ErrorNtNtNtB4_9jetstream7context16AccountErrorKindE3newB4_
FNDA:49994,_RNvMNtCs6qhVEmoZJ2z_10async_nats5errorINtB2_5ErrorNtNtNtB4_9jetstream7context16PublishErrorKindE3newB4_
FNDA:50001,_RNvMNtCs6qhVEmoZJ2z_10async_nats5errorINtB2_5ErrorNtNtNtB4_9jetstream7context16PublishErrorKindE4kindB4_
FNDA:0,_RNvMNtCs6qhVEmoZJ2z_10async_nats5errorINtB2_5ErrorNtNtNtB4_9jetstream7context16RequestErrorKindE3newB4_
FNDA:1,_RNvMNtCs6qhVEmoZJ2z_10async_nats5errorINtB2_5ErrorNtNtNtB4_9jetstream7context16RequestErrorKindE4kindB4_
FNDA:3,_RNvMNtCs6qhVEmoZJ2z_10async_nats5errorINtB2_5ErrorNtNtNtB4_9jetstream7context21ConsumerInfoErrorKindE3newB4_
FNDA:3,_RNvMNtCs6qhVEmoZJ2z_10async_nats5errorINtB2_5ErrorNtNtNtB4_9jetstream7context21CreateStreamErrorKindE3newB4_
FNDA:2,_RNvMNtCs6qhVEmoZJ2z_10async_nats5errorINtB2_5ErrorNtNtNtB4_9jetstream7context21CreateStreamErrorKindE4kindB4_
FNDA:0,_RNvMNtCs6qhVEmoZJ2z_10async_nats5errorINtB2_5ErrorNtNtNtB4_9jetstream7context23CreateKeyValueErrorKindE3newB4_
FNDA:0,_RNvMNtCs6qhVEmoZJ2z_10async_nats5errorINtB2_5ErrorNtNtNtB4_9jetstream7context23UpdateKeyValueErrorKindE3newB4_
FNDA:0,_RNvMNtCs6qhVEmoZJ2z_10async_nats5errorINtB2_5ErrorNtNtNtB4_9jetstream8consumer15StreamErrorKindE4kindB4_
FNDA:0,_RNvMNtCs6qhVEmoZJ2z_10async_nats5errorINtB2_5ErrorNtNtNtNtB4_9jetstream8consumer4pull16OrderedErrorKindE3newB4_
FNDA:3,_RNvMNtCs6qhVEmoZJ2z_10async_nats5errorINtB2_5ErrorNtNtNtNtB4_9jetstream8consumer4pull17MessagesErrorKindE3newB4_
FNDA:3,_RNvMNtCs6qhVEmoZJ2z_10async_nats5errorINtB2_5ErrorNtNtNtNtB4_9jetstream8consumer4pull17MessagesErrorKindE4kindB4_
FNDA:0,_RNvMNtCs6qhVEmoZJ2z_10async_nats5errorINtB2_5ErrorNtNtNtNtB4_9jetstream8consumer4push16OrderedErrorKindE3newB4_
FNDA:1,_RNvMNtCs6qhVEmoZJ2z_10async_nats5errorINtB2_5ErrorNtNtNtNtB4_9jetstream8consumer4push17MessagesErrorKindE3newB4_
FNDA:1,_RNvMNtCs6qhVEmoZJ2z_10async_nats5errorINtB2_5ErrorNtNtNtNtB4_9jetstream8consumer4push17MessagesErrorKindE4kindB4_
FNDA:0,_RNvMNtCs6qhVEmoZJ2z_10async_nats5errorINtB2_5ErrorNtNtNtNtB4_9jetstream8consumer4push25ConsumerRecreateErrorKindE3newB4_
FNDA:0,_RNvXs0_NtCs6qhVEmoZJ2z_10async_nats5errorINtB5_5ErrorNtNtB7_6client16PublishErrorKindENtNtCs2CqrNpCrSUr_4core5error5Error6sourceB7_
FNDA:0,_RNvXs0_NtCs6qhVEmoZJ2z_10async_nats5errorINtB5_5ErrorNtNtB7_6client16RequestErrorKindENtNtCs2CqrNpCrSUr_4core5error5Error6sourceB7_
FNDA:0,_RNvXs0_NtCs6qhVEmoZJ2z_10async_nats5errorINtB5_5ErrorNtNtNtB7_9jetstream12object_store13InfoErrorKindENtNtCs2CqrNpCrSUr_4core5error5Error6sourceB7_
FNDA:0,_RNvXs0_NtCs6qhVEmoZJ2z_10async_nats5errorINtB5_5ErrorNtNtNtB7_9jetstream12object_store24PublishMetadataErrorKindENtNtCs2CqrNpCrSUr_4core5error5Error6sourceB7_
FNDA:0,_RNvXs0_NtCs6qhVEmoZJ2z_10async_nats5errorINtB5_5ErrorNtNtNtB7_9jetstream6stream14PurgeErrorKindENtNtCs2CqrNpCrSUr_4core5error5Error6sourceB7_
FNDA:0,_RNvXs0_NtCs6qhVEmoZJ2z_10async_nats5errorINtB5_5ErrorNtNtNtB7_9jetstream6stream17ConsumerErrorKindENtNtCs2CqrNpCrSUr_4core5error5Error6sourceB7_
FNDA:0,_RNvXs0_NtCs6qhVEmoZJ2z_10async_nats5errorINtB5_5ErrorNtNtNtB7_9jetstream6stream18DirectGetErrorKindENtNtCs2CqrNpCrSUr_4core5error5Error6sourceB7_
FNDA:0,_RNvXs0_NtCs6qhVEmoZJ2z_10async_nats5errorINtB5_5ErrorNtNtNtB7_9jetstream7context16PublishErrorKindENtNtCs2CqrNpCrSUr_4core5error5Error6sourceB7_
FNDA:0,_RNvXs0_NtCs6qhVEmoZJ2z_10async_nats5errorINtB5_5ErrorNtNtNtB7_9jetstream7context16RequestErrorKindENtNtCs2CqrNpCrSUr_4core5error5Error6sourceB7_
FNDA:0,_RNvXs0_NtCs6qhVEmoZJ2z_10async_nats5errorINtB5_5ErrorNtNtNtB7_9jetstream7context21ConsumerInfoErrorKindENtNtCs2CqrNpCrSUr_4core5error5Error6sourceB7_
FNDA:0,_RNvXs0_NtCs6qhVEmoZJ2z_10async_nats5errorINtB5_5ErrorNtNtNtB7_9jetstream7context21CreateStreamErrorKindENtNtCs2CqrNpCrSUr_4core5error5Error6sourceB7_
FNDA:0,_RNvXs0_NtCs6qhVEmoZJ2z_10async_nats5errorINtB5_5ErrorNtNtNtB7_9jetstream7message22StreamMessageErrorKindENtNtCs2CqrNpCrSUr_4core5error5Error6sourceB7_
FNDA:0,_RNvXs0_NtCs6qhVEmoZJ2z_10async_nats5errorINtB5_5ErrorNtNtNtB7_9jetstream8consumer15StreamErrorKindENtNtCs2CqrNpCrSUr_4core5error5Error6sourceB7_
FNDA:0,_RNvXs0_NtCs6qhVEmoZJ2z_10async_nats5errorINtB5_5ErrorNtNtNtNtB7_9jetstream8consumer4pull17MessagesErrorKindENtNtCs2CqrNpCrSUr_4core5error5Error6sourceB7_
FNDA:0,_RNvXs0_NtCs6qhVEmoZJ2z_10async_nats5errorINtB5_5ErrorNtNtNtNtB7_9jetstream8consumer4pull21BatchRequestErrorKindENtNtCs2CqrNpCrSUr_4core5error5Error6sourceB7_
FNDA:0,_RNvXs0_NtCs6qhVEmoZJ2z_10async_nats5errorINtB5_5ErrorNtNtNtNtB7_9jetstream8consumer4pull25ConsumerRecreateErrorKindENtNtCs2CqrNpCrSUr_4core5error5Error6sourceB7_
FNDA:0,_RNvXs0_NtCs6qhVEmoZJ2z_10async_nats5errorINtB5_5ErrorNtNtNtNtB7_9jetstream8consumer4push16OrderedErrorKindENtNtCs2CqrNpCrSUr_4core5error5Error6sourceB7_
FNDA:0,_RNvXs0_NtCs6qhVEmoZJ2z_10async_nats5errorINtB5_5ErrorNtNtNtNtB7_9jetstream8consumer4push25ConsumerRecreateErrorKindENtNtCs2CqrNpCrSUr_4core5error5Error6sourceB7_
FNDA:0,_RNvXs1_NtCs6qhVEmoZJ2z_10async_nats5errorINtB5_5ErrorNtNtNtB7_9jetstream2kv15CreateErrorKindEINtNtCs2CqrNpCrSUr_4core7convert4FromBP_E4fromB7_
FNDA:0,_RNvXs_NtCs6qhVEmoZJ2z_10async_nats5errorINtB4_5ErrorNtNtB6_6client16PublishErrorKindENtNtCs2CqrNpCrSUr_4core3fmt7Display3fmtB6_
FNDA:0,_RNvXs_NtCs6qhVEmoZJ2z_10async_nats5errorINtB4_5ErrorNtNtB6_6client16RequestErrorKindENtNtCs2CqrNpCrSUr_4core3fmt7Display3fmtB6_
FNDA:0,_RNvXs_NtCs6qhVEmoZJ2z_10async_nats5errorINtB4_5ErrorNtNtNtB6_9jetstream12object_store13InfoErrorKindENtNtCs2CqrNpCrSUr_4core3fmt7Display3fmtB6_
FNDA:0,_RNvXs_NtCs6qhVEmoZJ2z_10async_nats5errorINtB4_5ErrorNtNtNtB6_9jetstream12object_store24PublishMetadataErrorKindENtNtCs2CqrNpCrSUr_4core3fmt7Display3fmtB6_
FNDA:0,_RNvXs_NtCs6qhVEmoZJ2z_10async_nats5errorINtB4_5ErrorNtNtNtB6_9jetstream6stream14PurgeErrorKindENtNtCs2CqrNpCrSUr_4core3fmt7Display3fmtB6_
FNDA:0,_RNvXs_NtCs6qhVEmoZJ2z_10async_nats5errorINtB4_5ErrorNtNtNtB6_9jetstream6stream17ConsumerErrorKindENtNtCs2CqrNpCrSUr_4core3fmt7Display3fmtB6_
FNDA:0,_RNvXs_NtCs6qhVEmoZJ2z_10async_nats5errorINtB4_5ErrorNtNtNtB6_9jetstream6stream18DirectGetErrorKindENtNtCs2CqrNpCrSUr_4core3fmt7Display3fmtB6_
FNDA:0,_RNvXs_NtCs6qhVEmoZJ2z_10async_nats5errorINtB4_5ErrorNtNtNtB6_9jetstream7context16PublishErrorKindENtNtCs2CqrNpCrSUr_4core3fmt7Display3fmtB6_
FNDA:0,_RNvXs_NtCs6qhVEmoZJ2z_10async_nats5errorINtB4_5ErrorNtNtNtB6_9jetstream7context16RequestErrorKindENtNtCs2CqrNpCrSUr_4core3fmt7Display3fmtB6_
FNDA:0,_RNvXs_NtCs6qhVEmoZJ2z_10async_nats5errorINtB4_5ErrorNtNtNtB6_9jetstream7context21ConsumerInfoErrorKindENtNtCs2CqrNpCrSUr_4core3fmt7Display3fmtB6_
FNDA:0,_RNvXs_NtCs6qhVEmoZJ2z_10async_nats5errorINtB4_5ErrorNtNtNtB6_9jetstream7context21CreateStreamErrorKindENtNtCs2CqrNpCrSUr_4core3fmt7Display3fmtB6_
FNDA:0,_RNvXs_NtCs6qhVEmoZJ2z_10async_nats5errorINtB4_5ErrorNtNtNtB6_9jetstream7message22StreamMessageErrorKindENtNtCs2CqrNpCrSUr_4core3fmt7Display3fmtB6_
FNDA:0,_RNvXs_NtCs6qhVEmoZJ2z_10async_nats5errorINtB4_5ErrorNtNtNtB6_9jetstream8consumer15StreamErrorKindENtNtCs2CqrNpCrSUr_4core3fmt7Display3fmtB6_
FNDA:0,_RNvXs_NtCs6qhVEmoZJ2z_10async_nats5errorINtB4_5ErrorNtNtNtNtB6_9jetstream8consumer4pull17MessagesErrorKindENtNtCs2CqrNpCrSUr_4core3fmt7Display3fmtB6_
FNDA:0,_RNvXs_NtCs6qhVEmoZJ2z_10async_nats5errorINtB4_5ErrorNtNtNtNtB6_9jetstream8consumer4pull21BatchRequestErrorKindENtNtCs2CqrNpCrSUr_4core3fmt7Display3fmtB6_
FNDA:0,_RNvXs_NtCs6qhVEmoZJ2z_10async_nats5errorINtB4_5ErrorNtNtNtNtB6_9jetstream8consumer4pull25ConsumerRecreateErrorKindENtNtCs2CqrNpCrSUr_4core3fmt7Display3fmtB6_
FNDA:0,_RNvXs_NtCs6qhVEmoZJ2z_10async_nats5errorINtB4_5ErrorNtNtNtNtB6_9jetstream8consumer4push16OrderedErrorKindENtNtCs2CqrNpCrSUr_4core3fmt7Display3fmtB6_
FNDA:0,_RNvXs_NtCs6qhVEmoZJ2z_10async_nats5errorINtB4_5ErrorNtNtNtNtB6_9jetstream8consumer4push25ConsumerRecreateErrorKindENtNtCs2CqrNpCrSUr_4core3fmt7Display3fmtB6_
FNDA:0,_RINvMNtCs6qhVEmoZJ2z_10async_nats5errorINtB3_5ErrorNtB5_16ConnectErrorKindE11with_sourceBB_ECsbhX8fe0itkR_15jetstream_tests
FNDA:0,_RINvMNtCs6qhVEmoZJ2z_10async_nats5errorINtB3_5ErrorNtB5_16ConnectErrorKindE11with_sourceNtB5_11ServerErrorECsbhX8fe0itkR_15jetstream_tests
FNDA:0,_RINvMNtCs6qhVEmoZJ2z_10async_nats5errorINtB3_5ErrorNtB5_16ConnectErrorKindE11with_sourceNtNtB5_7options9AuthErrorECsbhX8fe0itkR_15jetstream_tests
FNDA:0,_RINvMNtCs6qhVEmoZJ2z_10async_nats5errorINtB3_5ErrorNtB5_16ConnectErrorKindE11with_sourceNtNtCs1AhsD0INetT_5alloc6string6StringECsbhX8fe0itkR_15jetstream_tests
FNDA:0,_RINvMNtCs6qhVEmoZJ2z_10async_nats5errorINtB3_5ErrorNtB5_16ConnectErrorKindE11with_sourceNtNtCs8ONXqJnTXiZ_16rustls_pki_types11server_name19InvalidDnsNameErrorECsbhX8fe0itkR_15jetstream_tests
FNDA:0,_RINvMNtCs6qhVEmoZJ2z_10async_nats5errorINtB3_5ErrorNtB5_16ConnectErrorKindE11with_sourceReECsbhX8fe0itkR_15jetstream_tests
FNDA:0,_RINvMNtCs6qhVEmoZJ2z_10async_nats5errorINtB3_5ErrorNtNtB5_6client14FlushErrorKindE11with_sourceINtNtNtNtCskNaXoohSNNl_5tokio4sync4mpsc5error9SendErrorNtB5_7CommandEECsbhX8fe0itkR_15jetstream_tests
FNDA:0,_RINvMNtCs6qhVEmoZJ2z_10async_nats5errorINtB3_5ErrorNtNtB5_6client14FlushErrorKindE11with_sourceNtNtNtNtCskNaXoohSNNl_5tokio4sync7oneshot5error9RecvErrorECsbhX8fe0itkR_15jetstream_tests
FNDA:0,_RINvMNtCs6qhVEmoZJ2z_10async_nats5errorINtB3_5ErrorNtNtNtB5_9jetstream6stream14PurgeErrorKindE11with_sourceIBC_NtNtBR_7context16RequestErrorKindEECsbhX8fe0itkR_15jetstream_tests
FNDA:0,_RINvMNtCs6qhVEmoZJ2z_10async_nats5errorINtB3_5ErrorNtNtNtB5_9jetstream6stream22DeleteMessageErrorKindE11with_sourceIBC_NtNtBR_7context16RequestErrorKindEECsbhX8fe0itkR_15jetstream_tests
FNDA:0,_RINvMNtCs6qhVEmoZJ2z_10async_nats5errorINtB3_5ErrorNtNtNtB5_9jetstream6stream23LastRawMessageErrorKindE11with_sourceIBC_NtNtBR_7context16RequestErrorKindEECsbhX8fe0itkR_15jetstream_tests
FNDA:0,_RINvMNtCs6qhVEmoZJ2z_10async_nats5errorINtB3_5ErrorNtNtNtB5_9jetstream7context16PublishErrorKindE11with_sourceINtNtNtNtCskNaXoohSNNl_5tokio4sync4mpsc5error9SendErrorNtB5_7CommandEECsbhX8fe0itkR_15jetstream_tests
FNDA:0,_RINvMNtCs6qhVEmoZJ2z_10async_nats5errorINtB3_5ErrorNtNtNtB5_9jetstream7context16PublishErrorKindE11with_sourceNtNtNtCskNaXoohSNNl_5tokio4sync15batch_semaphore12AcquireErrorECsbhX8fe0itkR_15jetstream_tests
FNDA:0,_RINvMNtCs6qhVEmoZJ2z_10async_nats5errorINtB3_5ErrorNtNtNtB5_9jetstream7context16PublishErrorKindE11with_sourceNtNtNtCskNaXoohSNNl_5tokio4sync15batch_semaphore15TryAcquireErrorECsbhX8fe0itkR_15jetstream_tests
FNDA:0,_RINvMNtCs6qhVEmoZJ2z_10async_nats5errorINtB3_5ErrorNtNtNtB5_9jetstream7context18GetStreamErrorKindE11with_sourceIBC_NtBP_16RequestErrorKindEECsbhX8fe0itkR_15jetstream_tests
FNDA:0,_RINvMNtCs6qhVEmoZJ2z_10async_nats5errorINtB3_5ErrorNtNtNtB5_9jetstream7context24GetStreamByNameErrorKindE11with_sourceIBC_NtBP_16RequestErrorKindEECsbhX8fe0itkR_15jetstream_tests
FNDA:0,_RINvMNtCs6qhVEmoZJ2z_10async_nats5errorINtB3_5ErrorNtNtNtNtB5_9jetstream8consumer4pull21BatchRequestErrorKindE11with_sourceIBC_NtNtB5_6client16PublishErrorKindEECsbhX8fe0itkR_15jetstream_tests
FNDA:0,_RNCNvXs0_NtCs6qhVEmoZJ2z_10async_nats5errorINtB7_5ErrorNtB9_16ConnectErrorKindENtNtCs2CqrNpCrSUr_4core5error5Error6source0CsbhX8fe0itkR_15jetstream_tests
FNDA:0,_RNvMNtCs6qhVEmoZJ2z_10async_nats5errorINtB2_5ErrorNtB4_16ConnectErrorKindE3newCsbhX8fe0itkR_15jetstream_tests
FNDA:29,_RNvMNtCs6qhVEmoZJ2z_10async_nats5errorINtB2_5ErrorNtB4_16ConnectErrorKindE4kindCsbhX8fe0itkR_15jetstream_tests
FNDA:0,_RNvMNtCs6qhVEmoZJ2z_10async_nats5errorINtB2_5ErrorNtNtNtB4_9jetstream6stream14PurgeErrorKindE3newCsbhX8fe0itkR_15jetstream_tests
FNDA:0,_RNvMNtCs6qhVEmoZJ2z_10async_nats5errorINtB2_5ErrorNtNtNtB4_9jetstream6stream22DeleteMessageErrorKindE3newCsbhX8fe0itkR_15jetstream_tests
FNDA:1,_RNvMNtCs6qhVEmoZJ2z_10async_nats5errorINtB2_5ErrorNtNtNtB4_9jetstream6stream23ConsumerUpdateErrorKindE4kindCsbhX8fe0itkR_15jetstream_tests
FNDA:0,_RNvMNtCs6qhVEmoZJ2z_10async_nats5errorINtB2_5ErrorNtNtNtB4_9jetstream6stream23LastRawMessageErrorKindE3newCsbhX8fe0itkR_15jetstream_tests
FNDA:1,_RNvMNtCs6qhVEmoZJ2z_10async_nats5errorINtB2_5ErrorNtNtNtB4_9jetstream6stream29ConsumerCreateStrictErrorKindE4kindCsbhX8fe0itkR_15jetstream_tests
FNDA:0,_RNvMNtCs6qhVEmoZJ2z_10async_nats5errorINtB2_5ErrorNtNtNtB4_9jetstream7context18GetStreamErrorKindE3newCsbhX8fe0itkR_15jetstream_tests
FNDA:1,_RNvMNtCs6qhVEmoZJ2z_10async_nats5errorINtB2_5ErrorNtNtNtB4_9jetstream7context21ConsumerInfoErrorKindE4kindCsbhX8fe0itkR_15jetstream_tests
FNDA:1,_RNvMNtCs6qhVEmoZJ2z_10async_nats5errorINtB2_5ErrorNtNtNtB4_9jetstream7context24GetStreamByNameErrorKindE3newCsbhX8fe0itkR_15jetstream_tests
FNDA:1,_RNvMNtCs6qhVEmoZJ2z_10async_nats5errorINtB2_5ErrorNtNtNtB4_9jetstream7context24GetStreamByNameErrorKindE4kindCsbhX8fe0itkR_15jetstream_tests
FNDA:0,_RNvXs0_NtCs6qhVEmoZJ2z_10async_nats5errorINtB5_5ErrorNtB7_16ConnectErrorKindENtNtCs2CqrNpCrSUr_4core5error5Error6sourceCsbhX8fe0itkR_15jetstream_tests
FNDA:0,_RNvXs_NtCs6qhVEmoZJ2z_10async_nats5errorINtB4_5ErrorNtB6_16ConnectErrorKindENtNtCs2CqrNpCrSUr_4core3fmt7Display3fmtCsbhX8fe0itkR_15jetstream_tests
FNDA:0,_RINvMNtCs6qhVEmoZJ2z_10async_nats5errorINtB3_5ErrorNtB5_16ConnectErrorKindE11with_sourceBB_ECsWLjOOar9jQ_9jwt_tests
FNDA:0,_RINvMNtCs6qhVEmoZJ2z_10async_nats5errorINtB3_5ErrorNtB5_16ConnectErrorKindE11with_sourceNtB5_11ServerErrorECsWLjOOar9jQ_9jwt_tests
FNDA:0,_RINvMNtCs6qhVEmoZJ2z_10async_nats5errorINtB3_5ErrorNtB5_16ConnectErrorKindE11with_sourceNtNtB5_7options9AuthErrorECsWLjOOar9jQ_9jwt_tests
FNDA:0,_RINvMNtCs6qhVEmoZJ2z_10async_nats5errorINtB3_5ErrorNtB5_16ConnectErrorKindE11with_sourceNtNtCs1AhsD0INetT_5alloc6string6StringECsWLjOOar9jQ_9jwt_tests
FNDA:0,_RINvMNtCs6qhVEmoZJ2z_10async_nats5errorINtB3_5ErrorNtB5_16ConnectErrorKindE11with_sourceNtNtCs8ONXqJnTXiZ_16rustls_pki_types11server_name19InvalidDnsNameErrorECsWLjOOar9jQ_9jwt_tests
FNDA:0,_RINvMNtCs6qhVEmoZJ2z_10async_nats5errorINtB3_5ErrorNtB5_16ConnectErrorKindE11with_sourceReECsWLjOOar9jQ_9jwt_tests
FNDA:0,_RINvMNtCs6qhVEmoZJ2z_10async_nats5errorINtB3_5ErrorNtNtB5_6client14FlushErrorKindE11with_sourceINtNtNtNtCskNaXoohSNNl_5tokio4sync4mpsc5error9SendErrorNtB5_7CommandEECsWLjOOar9jQ_9jwt_tests
FNDA:0,_RINvMNtCs6qhVEmoZJ2z_10async_nats5errorINtB3_5ErrorNtNtB5_6client14FlushErrorKindE11with_sourceNtNtNtNtCskNaXoohSNNl_5tokio4sync7oneshot5error9RecvErrorECsWLjOOar9jQ_9jwt_tests
FNDA:0,_RNCNvXs0_NtCs6qhVEmoZJ2z_10async_nats5errorINtB7_5ErrorNtB9_16ConnectErrorKindENtNtCs2CqrNpCrSUr_4core5error5Error6source0CsWLjOOar9jQ_9jwt_tests
FNDA:0,_RNvMNtCs6qhVEmoZJ2z_10async_nats5errorINtB2_5ErrorNtB4_16ConnectErrorKindE3newCsWLjOOar9jQ_9jwt_tests
FNDA:3,_RNvMNtCs6qhVEmoZJ2z_10async_nats5errorINtB2_5ErrorNtB4_16ConnectErrorKindE4kindCsWLjOOar9jQ_9jwt_tests
FNDA:0,_RNvXs0_NtCs6qhVEmoZJ2z_10async_nats5errorINtB5_5ErrorNtB7_16ConnectErrorKindENtNtCs2CqrNpCrSUr_4core5error5Error6sourceCsWLjOOar9jQ_9jwt_tests
FNDA:0,_RNvXs_NtCs6qhVEmoZJ2z_10async_nats5errorINtB4_5ErrorNtB6_16ConnectErrorKindENtNtCs2CqrNpCrSUr_4core3fmt7Display3fmtCsWLjOOar9jQ_9jwt_tests
FNDA:0,_RINvMNtCs6qhVEmoZJ2z_10async_nats5errorINtB3_5ErrorNtB5_16ConnectErrorKindE11with_sourceBB_ECs98b7hshCa6M_8kv_tests
FNDA:0,_RINvMNtCs6qhVEmoZJ2z_10async_nats5errorINtB3_5ErrorNtB5_16ConnectErrorKindE11with_sourceNtB5_11ServerErrorECs98b7hshCa6M_8kv_tests
FNDA:0,_RINvMNtCs6qhVEmoZJ2z_10async_nats5errorINtB3_5ErrorNtB5_16ConnectErrorKindE11with_sourceNtNtB5_7options9AuthErrorECs98b7hshCa6M_8kv_tests
FNDA:0,_RINvMNtCs6qhVEmoZJ2z_10async_nats5errorINtB3_5ErrorNtB5_16ConnectErrorKindE11with_sourceNtNtCs1AhsD0INetT_5alloc6string6StringECs98b7hshCa6M_8kv_tests
FNDA:0,_RINvMNtCs6qhVEmoZJ2z_10async_nats5errorINtB3_5ErrorNtB5_16ConnectErrorKindE11with_sourceNtNtCs8ONXqJnTXiZ_16rustls_pki_types11server_name19InvalidDnsNameErrorECs98b7hshCa6M_8kv_tests
FNDA:0,_RINvMNtCs6qhVEmoZJ2z_10async_nats5errorINtB3_5ErrorNtB5_16ConnectErrorKindE11with_sourceReECs98b7hshCa6M_8kv_tests
FNDA:0,_RINvMNtCs6qhVEmoZJ2z_10async_nats5errorINtB3_5ErrorNtNtB5_6client14FlushErrorKindE11with_sourceINtNtNtNtCskNaXoohSNNl_5tokio4sync4mpsc5error9SendErrorNtB5_7CommandEECs98b7hshCa6M_8kv_tests
FNDA:0,_RINvMNtCs6qhVEmoZJ2z_10async_nats5errorINtB3_5ErrorNtNtB5_6client14FlushErrorKindE11with_sourceNtNtNtNtCskNaXoohSNNl_5tokio4sync7oneshot5error9RecvErrorECs98b7hshCa6M_8kv_tests
FNDA:0,_RINvMNtCs6qhVEmoZJ2z_10async_nats5errorINtB3_5ErrorNtNtNtB5_9jetstream2kv12PutErrorKindE11with_sourceIBC_NtNtBR_7context16PublishErrorKindEECs98b7hshCa6M_8kv_tests
FNDA:0,_RINvMNtCs6qhVEmoZJ2z_10async_nats5errorINtB3_5ErrorNtNtNtB5_9jetstream2kv14EntryErrorKindE11with_sourceIBC_NtNtBR_6stream23LastRawMessageErrorKindEECs98b7hshCa6M_8kv_tests
FNDA:0,_RINvMNtCs6qhVEmoZJ2z_10async_nats5errorINtB3_5ErrorNtNtNtB5_9jetstream2kv14EntryErrorKindE11with_sourceNtNtBR_6errors5ErrorECs98b7hshCa6M_8kv_tests
FNDA:0,_RINvMNtCs6qhVEmoZJ2z_10async_nats5errorINtB3_5ErrorNtNtNtB5_9jetstream2kv15UpdateErrorKindE11with_sourceNtNtB5_6header21ParseHeaderValueErrorECs98b7hshCa6M_8kv_tests
FNDA:0,_RINvMNtCs6qhVEmoZJ2z_10async_nats5errorINtB3_5ErrorNtNtNtB5_9jetstream6stream23LastRawMessageErrorKindE11with_sourceIBC_NtNtBR_7context16RequestErrorKindEECs98b7hshCa6M_8kv_tests
FNDA:0,_RINvMNtCs6qhVEmoZJ2z_10async_nats5errorINtB3_5ErrorNtNtNtB5_9jetstream7context16PublishErrorKindE11with_sourceINtNtNtNtCskNaXoohSNNl_5tokio4sync4mpsc5error9SendErrorNtB5_7CommandEECs98b7hshCa6M_8kv_tests
FNDA:0,_RINvMNtCs6qhVEmoZJ2z_10async_nats5errorINtB3_5ErrorNtNtNtB5_9jetstream7context16PublishErrorKindE11with_sourceNtNtNtCskNaXoohSNNl_5tokio4sync15batch_semaphore12AcquireErrorECs98b7hshCa6M_8kv_tests
FNDA:0,_RINvMNtCs6qhVEmoZJ2z_10async_nats5errorINtB3_5ErrorNtNtNtB5_9jetstream7context16PublishErrorKindE11with_sourceNtNtNtCskNaXoohSNNl_5tokio4sync15batch_semaphore15TryAcquireErrorECs98b7hshCa6M_8kv_tests
FNDA:0,_RINvMNtCs6qhVEmoZJ2z_10async_nats5errorINtB3_5ErrorNtNtNtB5_9jetstream7context17KeyValueErrorKindE11with_sourceIBC_NtBP_18GetStreamErrorKindEECs98b7hshCa6M_8kv_tests
FNDA:0,_RINvMNtCs6qhVEmoZJ2z_10async_nats5errorINtB3_5ErrorNtNtNtB5_9jetstream7context18GetStreamErrorKindE11with_sourceIBC_NtBP_16RequestErrorKindEECs98b7hshCa6M_8kv_tests
FNDA:0,_RINvMNtCs6qhVEmoZJ2z_10async_nats5errorINtB3_5ErrorNtNtNtB5_9jetstream7context21CreateStreamErrorKindE11with_sourceBB_ECs98b7hshCa6M_8kv_tests
FNDA:0,_RINvMNtCs6qhVEmoZJ2z_10async_nats5errorINtB3_5ErrorNtNtNtB5_9jetstream7context23CreateKeyValueErrorKindE11with_sourceIBC_NtBP_16AccountErrorKindEECs98b7hshCa6M_8kv_tests
FNDA:0,_RINvMNtCs6qhVEmoZJ2z_10async_nats5errorINtB3_5ErrorNtNtNtB5_9jetstream7context23CreateKeyValueErrorKindE11with_sourceIBC_NtBP_21CreateStreamErrorKindEECs98b7hshCa6M_8kv_tests
FNDA:0,_RINvMNtCs6qhVEmoZJ2z_10async_nats5errorINtB3_5ErrorNtNtNtB5_9jetstream7context23UpdateKeyValueErrorKindE11with_sourceIBC_NtBP_16AccountErrorKindEECs98b7hshCa6M_8kv_tests
FNDA:1,_RINvMNtCs6qhVEmoZJ2z_10async_nats5errorINtB3_5ErrorNtNtNtB5_9jetstream7context23UpdateKeyValueErrorKindE11with_sourceIBC_NtBP_21CreateStreamErrorKindEECs98b7hshCa6M_8kv_tests
FNDA:0,_RNCNvXs0_NtCs6qhVEmoZJ2z_10async_nats5errorINtB7_5ErrorNtB9_16ConnectErrorKindENtNtCs2CqrNpCrSUr_4core5error5Error6source0Cs98b7hshCa6M_8kv_tests
FNDA:0,_RNCNvXs0_NtCs6qhVEmoZJ2z_10async_nats5errorINtB7_5ErrorNtNtNtB9_9jetstream2kv14WatchErrorKindENtNtCs2CqrNpCrSUr_4core5error5Error6source0Cs98b7hshCa6M_8kv_tests
FNDA:0,_RNCNvXs0_NtCs6qhVEmoZJ2z_10async_nats5errorINtB7_5ErrorNtNtNtB9_9jetstream6stream23LastRawMessageErrorKindENtNtCs2CqrNpCrSUr_4core5error5Error6source0Cs98b7hshCa6M_8kv_tests
FNDA:0,_RNCNvXs0_NtCs6qhVEmoZJ2z_10async_nats5errorINtB7_5ErrorNtNtNtB9_9jetstream7context16AccountErrorKindENtNtCs2CqrNpCrSUr_4core5error5Error6source0Cs98b7hshCa6M_8kv_tests
FNDA:0,_RNCNvXs0_NtCs6qhVEmoZJ2z_10async_nats5errorINtB7_5ErrorNtNtNtB9_9jetstream7context18GetStreamErrorKindENtNtCs2CqrNpCrSUr_4core5error5Error6source0Cs98b7hshCa6M_8kv_tests
FNDA:0,_RNvMNtCs6qhVEmoZJ2z_10async_nats5errorINtB2_5ErrorNtB4_16ConnectErrorKindE3newCs98b7hshCa6M_8kv_tests
FNDA:0,_RNvMNtCs6qhVEmoZJ2z_10async_nats5errorINtB2_5ErrorNtB4_16ConnectErrorKindE4kindCs98b7hshCa6M_8kv_tests
FNDA:0,_RNvMNtCs6qhVEmoZJ2z_10async_nats5errorINtB2_5ErrorNtNtNtB4_9jetstream2kv12PutErrorKindE3newCs98b7hshCa6M_8kv_tests
FNDA:1,_RNvMNtCs6qhVEmoZJ2z_10async_nats5errorINtB2_5ErrorNtNtNtB4_9jetstream2kv15CreateErrorKindE3newCs98b7hshCa6M_8kv_tests
FNDA:2,_RNvMNtCs6qhVEmoZJ2z_10async_nats5errorINtB2_5ErrorNtNtNtB4_9jetstream6stream23LastRawMessageErrorKindE3newCs98b7hshCa6M_8kv_tests
FNDA:2,_RNvMNtCs6qhVEmoZJ2z_10async_nats5errorINtB2_5ErrorNtNtNtB4_9jetstream6stream23LastRawMessageErrorKindE4kindCs98b7hshCa6M_8kv_tests
FNDA:0,_RNvMNtCs6qhVEmoZJ2z_10async_nats5errorINtB2_5ErrorNtNtNtB4_9jetstream7context17KeyValueErrorKindE3newCs98b7hshCa6M_8kv_tests
FNDA:0,_RNvMNtCs6qhVEmoZJ2z_10async_nats5errorINtB2_5ErrorNtNtNtB4_9jetstream7context18GetStreamErrorKindE3newCs98b7hshCa6M_8kv_tests
FNDA:1,_RNvMNtCs6qhVEmoZJ2z_10async_nats5errorINtB2_5ErrorNtNtNtB4_9jetstream7context23UpdateKeyValueErrorKindE4kindCs98b7hshCa6M_8kv_tests
FNDA:0,_RNvXs0_NtCs6qhVEmoZJ2z_10async_nats5errorINtB5_5ErrorNtB7_16ConnectErrorKindENtNtCs2CqrNpCrSUr_4core5error5Error6sourceCs98b7hshCa6M_8kv_tests
FNDA:0,_RNvXs0_NtCs6qhVEmoZJ2z_10async_nats5errorINtB5_5ErrorNtNtNtB7_9jetstream2kv14WatchErrorKindENtNtCs2CqrNpCrSUr_4core5error5Error6sourceCs98b7hshCa6M_8kv_tests
FNDA:0,_RNvXs0_NtCs6qhVEmoZJ2z_10async_nats5errorINtB5_5ErrorNtNtNtB7_9jetstream6stream23LastRawMessageErrorKindENtNtCs2CqrNpCrSUr_4core5error5Error6sourceCs98b7hshCa6M_8kv_tests
FNDA:0,_RNvXs0_NtCs6qhVEmoZJ2z_10async_nats5errorINtB5_5ErrorNtNtNtB7_9jetstream7context16AccountErrorKindENtNtCs2CqrNpCrSUr_4core5error5Error6sourceCs98b7hshCa6M_8kv_tests
FNDA:0,_RNvXs0_NtCs6qhVEmoZJ2z_10async_nats5errorINtB5_5ErrorNtNtNtB7_9jetstream7context18GetStreamErrorKindENtNtCs2CqrNpCrSUr_4core5error5Error6sourceCs98b7hshCa6M_8kv_tests
FNDA:0,_RNvXs_NtCs6qhVEmoZJ2z_10async_nats5errorINtB4_5ErrorNtB6_16ConnectErrorKindENtNtCs2CqrNpCrSUr_4core3fmt7Display3fmtCs98b7hshCa6M_8kv_tests
FNDA:0,_RNvXs_NtCs6qhVEmoZJ2z_10async_nats5errorINtB4_5ErrorNtNtNtB6_9jetstream2kv14WatchErrorKindENtNtCs2CqrNpCrSUr_4core3fmt7Display3fmtCs98b7hshCa6M_8kv_tests
FNDA:0,_RNvXs_NtCs6qhVEmoZJ2z_10async_nats5errorINtB4_5ErrorNtNtNtB6_9jetstream6stream23LastRawMessageErrorKindENtNtCs2CqrNpCrSUr_4core3fmt7Display3fmtCs98b7hshCa6M_8kv_tests
FNDA:0,_RNvXs_NtCs6qhVEmoZJ2z_10async_nats5errorINtB4_5ErrorNtNtNtB6_9jetstream7context16AccountErrorKindENtNtCs2CqrNpCrSUr_4core3fmt7Display3fmtCs98b7hshCa6M_8kv_tests
FNDA:0,_RNvXs_NtCs6qhVEmoZJ2z_10async_nats5errorINtB4_5ErrorNtNtNtB6_9jetstream7context18GetStreamErrorKindENtNtCs2CqrNpCrSUr_4core3fmt7Display3fmtCs98b7hshCa6M_8kv_tests
FNDA:0,_RINvMNtCs6qhVEmoZJ2z_10async_nats5errorINtB3_5ErrorNtB5_16ConnectErrorKindE11with_sourceBB_ECslYd6v58rjWA_10nkey_tests
FNDA:0,_RINvMNtCs6qhVEmoZJ2z_10async_nats5errorINtB3_5ErrorNtB5_16ConnectErrorKindE11with_sourceNtB5_11ServerErrorECslYd6v58rjWA_10nkey_tests
FNDA:0,_RINvMNtCs6qhVEmoZJ2z_10async_nats5errorINtB3_5ErrorNtB5_16ConnectErrorKindE11with_sourceNtNtB5_7options9AuthErrorECslYd6v58rjWA_10nkey_tests
FNDA:0,_RINvMNtCs6qhVEmoZJ2z_10async_nats5errorINtB3_5ErrorNtB5_16ConnectErrorKindE11with_sourceNtNtCs1AhsD0INetT_5alloc6string6StringECslYd6v58rjWA_10nkey_tests
FNDA:0,_RINvMNtCs6qhVEmoZJ2z_10async_nats5errorINtB3_5ErrorNtB5_16ConnectErrorKindE11with_sourceNtNtCs8ONXqJnTXiZ_16rustls_pki_types11server_name19InvalidDnsNameErrorECslYd6v58rjWA_10nkey_tests
FNDA:0,_RINvMNtCs6qhVEmoZJ2z_10async_nats5errorINtB3_5ErrorNtB5_16ConnectErrorKindE11with_sourceReECslYd6v58rjWA_10nkey_tests
FNDA:0,_RINvMNtCs6qhVEmoZJ2z_10async_nats5errorINtB3_5ErrorNtNtB5_6client14FlushErrorKindE11with_sourceINtNtNtNtCskNaXoohSNNl_5tokio4sync4mpsc5error9SendErrorNtB5_7CommandEECslYd6v58rjWA_10nkey_tests
FNDA:0,_RINvMNtCs6qhVEmoZJ2z_10async_nats5errorINtB3_5ErrorNtNtB5_6client14FlushErrorKindE11with_sourceNtNtNtNtCskNaXoohSNNl_5tokio4sync7oneshot5error9RecvErrorECslYd6v58rjWA_10nkey_tests
FNDA:0,_RNCNvXs0_NtCs6qhVEmoZJ2z_10async_nats5errorINtB7_5ErrorNtB9_16ConnectErrorKindENtNtCs2CqrNpCrSUr_4core5error5Error6source0CslYd6v58rjWA_10nkey_tests
FNDA:0,_RNvMNtCs6qhVEmoZJ2z_10async_nats5errorINtB2_5ErrorNtB4_16ConnectErrorKindE3newCslYd6v58rjWA_10nkey_tests
FNDA:3,_RNvMNtCs6qhVEmoZJ2z_10async_nats5errorINtB2_5ErrorNtB4_16ConnectErrorKindE4kindCslYd6v58rjWA_10nkey_tests
FNDA:0,_RNvXs0_NtCs6qhVEmoZJ2z_10async_nats5errorINtB5_5ErrorNtB7_16ConnectErrorKindENtNtCs2CqrNpCrSUr_4core5error5Error6sourceCslYd6v58rjWA_10nkey_tests
FNDA:0,_RNvXs_NtCs6qhVEmoZJ2z_10async_nats5errorINtB4_5ErrorNtB6_16ConnectErrorKindENtNtCs2CqrNpCrSUr_4core3fmt7Display3fmtCslYd6v58rjWA_10nkey_tests
FNDA:0,_RINvMNtCs6qhVEmoZJ2z_10async_nats5errorINtB3_5ErrorNtB5_16ConnectErrorKindE11with_sourceBB_ECsesyn6ELQ2kp_12object_store
FNDA:0,_RINvMNtCs6qhVEmoZJ2z_10async_nats5errorINtB3_5ErrorNtB5_16ConnectErrorKindE11with_sourceNtB5_11ServerErrorECsesyn6ELQ2kp_12object_store
FNDA:0,_RINvMNtCs6qhVEmoZJ2z_10async_nats5errorINtB3_5ErrorNtB5_16ConnectErrorKindE11with_sourceNtNtB5_7options9AuthErrorECsesyn6ELQ2kp_12object_store
FNDA:0,_RINvMNtCs6qhVEmoZJ2z_10async_nats5errorINtB3_5ErrorNtB5_16ConnectErrorKindE11with_sourceNtNtCs1AhsD0INetT_5alloc6string6StringECsesyn6ELQ2kp_12object_store
FNDA:0,_RINvMNtCs6qhVEmoZJ2z_10async_nats5errorINtB3_5ErrorNtB5_16ConnectErrorKindE11with_sourceNtNtCs8ONXqJnTXiZ_16rustls_pki_types11server_name19InvalidDnsNameErrorECsesyn6ELQ2kp_12object_store
FNDA:0,_RINvMNtCs6qhVEmoZJ2z_10async_nats5errorINtB3_5ErrorNtB5_16ConnectErrorKindE11with_sourceReECsesyn6ELQ2kp_12object_store
FNDA:0,_RINvMNtCs6qhVEmoZJ2z_10async_nats5errorINtB3_5ErrorNtNtNtB5_9jetstream12object_store12GetErrorKindE11with_sourceIBC_NtNtBR_7context20ObjectStoreErrorKindEECsesyn6ELQ2kp_12object_store
FNDA:0,_RINvMNtCs6qhVEmoZJ2z_10async_nats5errorINtB3_5ErrorNtNtNtB5_9jetstream12object_store12PutErrorKindE11with_sourceIBC_NtNtBR_6stream14PurgeErrorKindEECsesyn6ELQ2kp_12object_store
FNDA:0,_RINvMNtCs6qhVEmoZJ2z_10async_nats5errorINtB3_5ErrorNtNtNtB5_9jetstream12object_store12PutErrorKindE11with_sourceNtNtCs1AhsD0INetT_5alloc6string6StringECsesyn6ELQ2kp_12object_store
FNDA:0,_RINvMNtCs6qhVEmoZJ2z_10async_nats5errorINtB3_5ErrorNtNtNtB5_9jetstream12object_store12PutErrorKindE11with_sourceNtNtNtCs4N3M0UGf3SB_3std2io5error5ErrorECsesyn6ELQ2kp_12object_store
FNDA:0,_RINvMNtCs6qhVEmoZJ2z_10async_nats5errorINtB3_5ErrorNtNtNtB5_9jetstream12object_store13InfoErrorKindE11with_sourceIBC_NtNtBR_6stream23LastRawMessageErrorKindEECsesyn6ELQ2kp_12object_store
FNDA:0,_RINvMNtCs6qhVEmoZJ2z_10async_nats5errorINtB3_5ErrorNtNtNtB5_9jetstream12object_store13InfoErrorKindE11with_sourceNtNtCs1AhsD0INetT_5alloc6string6StringECsesyn6ELQ2kp_12object_store
FNDA:0,_RINvMNtCs6qhVEmoZJ2z_10async_nats5errorINtB3_5ErrorNtNtNtB5_9jetstream12object_store13SealErrorKindE11with_sourceIBC_NtNtBR_7context16RequestErrorKindEECsesyn6ELQ2kp_12object_store
FNDA:0,_RINvMNtCs6qhVEmoZJ2z_10async_nats5errorINtB3_5ErrorNtNtNtB5_9jetstream12object_store15DeleteErrorKindE11with_sourceNtNtCs1AhsD0INetT_5alloc6string6StringECsesyn6ELQ2kp_12object_store
FNDA:0,_RINvMNtCs6qhVEmoZJ2z_10async_nats5errorINtB3_5ErrorNtNtNtB5_9jetstream12object_store16AddLinkErrorKindE11with_sourceIBC_NtBP_13InfoErrorKindEECsesyn6ELQ2kp_12object_store
FNDA:0,_RINvMNtCs6qhVEmoZJ2z_10async_nats5errorINtB3_5ErrorNtNtNtB5_9jetstream12object_store23UpdateMetadataErrorKindE11with_sourceIBC_NtNtBR_6stream14PurgeErrorKindEECsesyn6ELQ2kp_12object_store
FNDA:0,_RINvMNtCs6qhVEmoZJ2z_10async_nats5errorINtB3_5ErrorNtNtNtB5_9jetstream12object_store23UpdateMetadataErrorKindE11with_sourceNtNtCs1AhsD0INetT_5alloc6string6StringECsesyn6ELQ2kp_12object_store
FNDA:0,_RINvMNtCs6qhVEmoZJ2z_10async_nats5errorINtB3_5ErrorNtNtNtB5_9jetstream12object_store24PublishMetadataErrorKindE11with_sourceNtNtCs1AhsD0INetT_5alloc6string6StringECsesyn6ELQ2kp_12object_store
FNDA:0,_RINvMNtCs6qhVEmoZJ2z_10async_nats5errorINtB3_5ErrorNtNtNtB5_9jetstream6stream14PurgeErrorKindE11with_sourceIBC_NtNtBR_7context16RequestErrorKindEECsesyn6ELQ2kp_12object_store
FNDA:0,_RINvMNtCs6qhVEmoZJ2z_10async_nats5errorINtB3_5ErrorNtNtNtB5_9jetstream6stream23LastRawMessageErrorKindE11with_sourceIBC_NtNtBR_7context16RequestErrorKindEECsesyn6ELQ2kp_12object_store
FNDA:0,_RINvMNtCs6qhVEmoZJ2z_10async_nats5errorINtB3_5ErrorNtNtNtB5_9jetstream7context16PublishErrorKindE11with_sourceINtNtNtNtCskNaXoohSNNl_5tokio4sync4mpsc5error9SendErrorNtB5_7CommandEECsesyn6ELQ2kp_12object_store
FNDA:0,_RINvMNtCs6qhVEmoZJ2z_10async_nats5errorINtB3_5ErrorNtNtNtB5_9jetstream7context16PublishErrorKindE11with_sourceNtNtNtCskNaXoohSNNl_5tokio4sync15batch_semaphore12AcquireErrorECsesyn6ELQ2kp_12object_store
FNDA:0,_RINvMNtCs6qhVEmoZJ2z_10async_nats5errorINtB3_5ErrorNtNtNtB5_9jetstream7context16PublishErrorKindE11with_sourceNtNtNtCskNaXoohSNNl_5tokio4sync15batch_semaphore15TryAcquireErrorECsesyn6ELQ2kp_12object_store
FNDA:0,_RINvMNtCs6qhVEmoZJ2z_10async_nats5errorINtB3_5ErrorNtNtNtB5_9jetstream7context18GetStreamErrorKindE11with_sourceIBC_NtBP_16RequestErrorKindEECsesyn6ELQ2kp_12object_store
FNDA:0,_RINvMNtCs6qhVEmoZJ2z_10async_nats5errorINtB3_5ErrorNtNtNtB5_9jetstream7context20ObjectStoreErrorKindE11with_sourceIBC_NtBP_18GetStreamErrorKindEECsesyn6ELQ2kp_12object_store
FNDA:0,_RINvMNtCs6qhVEmoZJ2z_10async_nats5errorINtB3_5ErrorNtNtNtB5_9jetstream7context23CreateKeyValueErrorKindE11with_sourceIBC_NtBP_21CreateStreamErrorKindEECsesyn6ELQ2kp_12object_store
FNDA:0,_RNCNvXs0_NtCs6qhVEmoZJ2z_10async_nats5errorINtB7_5ErrorNtB9_16ConnectErrorKindENtNtCs2CqrNpCrSUr_4core5error5Error6source0Csesyn6ELQ2kp_12object_store
FNDA:0,_RNCNvXs0_NtCs6qhVEmoZJ2z_10async_nats5errorINtB7_5ErrorNtNtNtB9_9jetstream6stream23LastRawMessageErrorKindENtNtCs2CqrNpCrSUr_4core5error5Error6source0Csesyn6ELQ2kp_12object_store
FNDA:0,_RNCNvXs0_NtCs6qhVEmoZJ2z_10async_nats5errorINtB7_5ErrorNtNtNtB9_9jetstream7context18GetStreamErrorKindENtNtCs2CqrNpCrSUr_4core5error5Error6source0Csesyn6ELQ2kp_12object_store
FNDA:0,_RNCNvXs0_NtCs6qhVEmoZJ2z_10async_nats5errorINtB7_5ErrorNtNtNtB9_9jetstream7context20ObjectStoreErrorKindENtNtCs2CqrNpCrSUr_4core5error5Error6source0Csesyn6ELQ2kp_12object_store
FNDA:0,_RNvMNtCs6qhVEmoZJ2z_10async_nats5errorINtB2_5ErrorNtB4_16ConnectErrorKindE3newCsesyn6ELQ2kp_12object_store
FNDA:0,_RNvMNtCs6qhVEmoZJ2z_10async_nats5errorINtB2_5ErrorNtB4_16ConnectErrorKindE4kindCsesyn6ELQ2kp_12object_store
FNDA:1,_RNvMNtCs6qhVEmoZJ2z_10async_nats5errorINtB2_5ErrorNtNtNtB4_9jetstream12object_store12GetErrorKindE4kindCsesyn6ELQ2kp_12object_store
FNDA:35,_RNvMNtCs6qhVEmoZJ2z_10async_nats5errorINtB2_5ErrorNtNtNtB4_9jetstream12object_store13InfoErrorKindE3newCsesyn6ELQ2kp_12object_store
FNDA:3,_RNvMNtCs6qhVEmoZJ2z_10async_nats5errorINtB2_5ErrorNtNtNtB4_9jetstream12object_store16AddLinkErrorKindE4kindCsesyn6ELQ2kp_12object_store
FNDA:0,_RNvMNtCs6qhVEmoZJ2z_10async_nats5errorINtB2_5ErrorNtNtNtB4_9jetstream6stream14PurgeErrorKindE3newCsesyn6ELQ2kp_12object_store
FNDA:35,_RNvMNtCs6qhVEmoZJ2z_10async_nats5errorINtB2_5ErrorNtNtNtB4_9jetstream6stream23LastRawMessageErrorKindE3newCsesyn6ELQ2kp_12object_store
FNDA:35,_RNvMNtCs6qhVEmoZJ2z_10async_nats5errorINtB2_5ErrorNtNtNtB4_9jetstream6stream23LastRawMessageErrorKindE4kindCsesyn6ELQ2kp_12object_store
FNDA:0,_RNvMNtCs6qhVEmoZJ2z_10async_nats5errorINtB2_5ErrorNtNtNtB4_9jetstream7context18GetStreamErrorKindE3newCsesyn6ELQ2kp_12object_store
FNDA:0,_RNvMNtCs6qhVEmoZJ2z_10async_nats5errorINtB2_5ErrorNtNtNtB4_9jetstream7context20ObjectStoreErrorKindE3newCsesyn6ELQ2kp_12object_store
FNDA:0,_RNvXs0_NtCs6qhVEmoZJ2z_10async_nats5errorINtB5_5ErrorNtB7_16ConnectErrorKindENtNtCs2CqrNpCrSUr_4core5error5Error6sourceCsesyn6ELQ2kp_12object_store
FNDA:0,_RNvXs0_NtCs6qhVEmoZJ2z_10async_nats5errorINtB5_5ErrorNtNtNtB7_9jetstream6stream23LastRawMessageErrorKindENtNtCs2CqrNpCrSUr_4core5error5Error6sourceCsesyn6ELQ2kp_12object_store
FNDA:0,_RNvXs0_NtCs6qhVEmoZJ2z_10async_nats5errorINtB5_5ErrorNtNtNtB7_9jetstream7context18GetStreamErrorKindENtNtCs2CqrNpCrSUr_4core5error5Error6sourceCsesyn6ELQ2kp_12object_store
FNDA:0,_RNvXs0_NtCs6qhVEmoZJ2z_10async_nats5errorINtB5_5ErrorNtNtNtB7_9jetstream7context20ObjectStoreErrorKindENtNtCs2CqrNpCrSUr_4core5error5Error6sourceCsesyn6ELQ2kp_12object_store
FNDA:0,_RNvXs_NtCs6qhVEmoZJ2z_10async_nats5errorINtB4_5ErrorNtB6_16ConnectErrorKindENtNtCs2CqrNpCrSUr_4core3fmt7Display3fmtCsesyn6ELQ2kp_12object_store
FNDA:0,_RNvXs_NtCs6qhVEmoZJ2z_10async_nats5errorINtB4_5ErrorNtNtNtB6_9jetstream6stream23LastRawMessageErrorKindENtNtCs2CqrNpCrSUr_4core3fmt7Display3fmtCsesyn6ELQ2kp_12object_store
FNDA:0,_RNvXs_NtCs6qhVEmoZJ2z_10async_nats5errorINtB4_5ErrorNtNtNtB6_9jetstream7context18GetStreamErrorKindENtNtCs2CqrNpCrSUr_4core3fmt7Display3fmtCsesyn6ELQ2kp_12object_store
FNDA:0,_RNvXs_NtCs6qhVEmoZJ2z_10async_nats5errorINtB4_5ErrorNtNtNtB6_9jetstream7context20ObjectStoreErrorKindENtNtCs2CqrNpCrSUr_4core3fmt7Display3fmtCsesyn6ELQ2kp_12object_store
FNDA:0,_RINvMNtCs6qhVEmoZJ2z_10async_nats5errorINtB3_5ErrorNtB5_16ConnectErrorKindE11with_sourceBB_ECscGYhHI872CP_13service_tests
FNDA:0,_RINvMNtCs6qhVEmoZJ2z_10async_nats5errorINtB3_5ErrorNtB5_16ConnectErrorKindE11with_sourceNtB5_11ServerErrorECscGYhHI872CP_13service_tests
FNDA:0,_RINvMNtCs6qhVEmoZJ2z_10async_nats5errorINtB3_5ErrorNtB5_16ConnectErrorKindE11with_sourceNtNtB5_7options9AuthErrorECscGYhHI872CP_13service_tests
FNDA:0,_RINvMNtCs6qhVEmoZJ2z_10async_nats5errorINtB3_5ErrorNtB5_16ConnectErrorKindE11with_sourceNtNtCs1AhsD0INetT_5alloc6string6StringECscGYhHI872CP_13service_tests
FNDA:0,_RINvMNtCs6qhVEmoZJ2z_10async_nats5errorINtB3_5ErrorNtB5_16ConnectErrorKindE11with_sourceNtNtCs8ONXqJnTXiZ_16rustls_pki_types11server_name19InvalidDnsNameErrorECscGYhHI872CP_13service_tests
FNDA:0,_RINvMNtCs6qhVEmoZJ2z_10async_nats5errorINtB3_5ErrorNtB5_16ConnectErrorKindE11with_sourceReECscGYhHI872CP_13service_tests
FNDA:0,_RINvMNtCs6qhVEmoZJ2z_10async_nats5errorINtB3_5ErrorNtNtB5_6client14FlushErrorKindE11with_sourceINtNtNtNtCskNaXoohSNNl_5tokio4sync4mpsc5error9SendErrorNtB5_7CommandEECscGYhHI872CP_13service_tests
FNDA:0,_RINvMNtCs6qhVEmoZJ2z_10async_nats5errorINtB3_5ErrorNtNtB5_6client14FlushErrorKindE11with_sourceNtNtNtNtCskNaXoohSNNl_5tokio4sync7oneshot5error9RecvErrorECscGYhHI872CP_13service_tests
FNDA:0,_RNCNvXs0_NtCs6qhVEmoZJ2z_10async_nats5errorINtB7_5ErrorNtB9_16ConnectErrorKindENtNtCs2CqrNpCrSUr_4core5error5Error6source0CscGYhHI872CP_13service_tests
FNDA:0,_RNvMNtCs6qhVEmoZJ2z_10async_nats5errorINtB2_5ErrorNtB4_16ConnectErrorKindE3newCscGYhHI872CP_13service_tests
FNDA:0,_RNvMNtCs6qhVEmoZJ2z_10async_nats5errorINtB2_5ErrorNtB4_16ConnectErrorKindE4kindCscGYhHI872CP_13service_tests
FNDA:0,_RNvXs0_NtCs6qhVEmoZJ2z_10async_nats5errorINtB5_5ErrorNtB7_16ConnectErrorKindENtNtCs2CqrNpCrSUr_4core5error5Error6sourceCscGYhHI872CP_13service_tests
FNDA:0,_RNvXs_NtCs6qhVEmoZJ2z_10async_nats5errorINtB4_5ErrorNtB6_16ConnectErrorKindENtNtCs2CqrNpCrSUr_4core3fmt7Display3fmtCscGYhHI872CP_13service_tests
FNDA:0,_RINvMNtCs6qhVEmoZJ2z_10async_nats5errorINtB3_5ErrorNtB5_16ConnectErrorKindE11with_sourceBB_ECs2VP52EYB5HS_9tls_tests
FNDA:0,_RINvMNtCs6qhVEmoZJ2z_10async_nats5errorINtB3_5ErrorNtB5_16ConnectErrorKindE11with_sourceNtB5_11ServerErrorECs2VP52EYB5HS_9tls_tests
FNDA:0,_RINvMNtCs6qhVEmoZJ2z_10async_nats5errorINtB3_5ErrorNtB5_16ConnectErrorKindE11with_sourceNtNtB5_7options9AuthErrorECs2VP52EYB5HS_9tls_tests
FNDA:0,_RINvMNtCs6qhVEmoZJ2z_10async_nats5errorINtB3_5ErrorNtB5_16ConnectErrorKindE11with_sourceNtNtCs1AhsD0INetT_5alloc6string6StringECs2VP52EYB5HS_9tls_tests
FNDA:0,_RINvMNtCs6qhVEmoZJ2z_10async_nats5errorINtB3_5ErrorNtB5_16ConnectErrorKindE11with_sourceNtNtCs8ONXqJnTXiZ_16rustls_pki_types11server_name19InvalidDnsNameErrorECs2VP52EYB5HS_9tls_tests
FNDA:1,_RINvMNtCs6qhVEmoZJ2z_10async_nats5errorINtB3_5ErrorNtB5_16ConnectErrorKindE11with_sourceReECs2VP52EYB5HS_9tls_tests
FNDA:0,_RINvMNtCs6qhVEmoZJ2z_10async_nats5errorINtB3_5ErrorNtNtB5_6client14FlushErrorKindE11with_sourceINtNtNtNtCskNaXoohSNNl_5tokio4sync4mpsc5error9SendErrorNtB5_7CommandEECs2VP52EYB5HS_9tls_tests
FNDA:0,_RINvMNtCs6qhVEmoZJ2z_10async_nats5errorINtB3_5ErrorNtNtB5_6client14FlushErrorKindE11with_sourceNtNtNtNtCskNaXoohSNNl_5tokio4sync7oneshot5error9RecvErrorECs2VP52EYB5HS_9tls_tests
FNDA:0,_RNCNvXs0_NtCs6qhVEmoZJ2z_10async_nats5errorINtB7_5ErrorNtB9_16ConnectErrorKindENtNtCs2CqrNpCrSUr_4core5error5Error6source0Cs2VP52EYB5HS_9tls_tests
FNDA:0,_RNvMNtCs6qhVEmoZJ2z_10async_nats5errorINtB2_5ErrorNtB4_16ConnectErrorKindE3newCs2VP52EYB5HS_9tls_tests
FNDA:0,_RNvMNtCs6qhVEmoZJ2z_10async_nats5errorINtB2_5ErrorNtB4_16ConnectErrorKindE4kindCs2VP52EYB5HS_9tls_tests
FNDA:0,_RNvXs0_NtCs6qhVEmoZJ2z_10async_nats5errorINtB5_5ErrorNtB7_16ConnectErrorKindENtNtCs2CqrNpCrSUr_4core5error5Error6sourceCs2VP52EYB5HS_9tls_tests
FNDA:0,_RNvXs_NtCs6qhVEmoZJ2z_10async_nats5errorINtB4_5ErrorNtB6_16ConnectErrorKindENtNtCs2CqrNpCrSUr_4core3fmt7Display3fmtCs2VP52EYB5HS_9tls_tests
FNF:13
FNH:11
DA:30,50103
DA:31,50103
DA:32,50103
DA:34,303
DA:35,303
DA:36,303
DA:38,303
DA:39,303
DA:40,303
DA:41,303
DA:42,303
DA:45,50160
DA:46,50160
DA:47,50160
DA:54,1
DA:55,1
DA:56,0
DA:58,1
DA:60,1
DA:67,0
DA:68,0
DA:69,0
DA:70,0
DA:71,0
DA:78,3
DA:79,3
DA:80,3
DA:98,1
DA:99,1
DA:100,1
DA:101,0
DA:103,1
DA:110,1
DA:111,1
DA:112,1
DA:113,1
DA:114,1
DA:117,1
DA:118,1
DA:119,1
DA:120,1
DA:121,1
DA:122,1
DA:125,1
DA:126,1
DA:127,1
DA:129,1
DA:130,1
DA:131,1
DA:134,1
DA:135,1
DA:136,1
DA:137,1
DA:140,1
DA:141,1
DA:142,1
DA:143,1
DA:144,1
BRF:0
BRH:0
LF:59
LH:51
end_of_record
SF:/Users/tomaszpietrek/coding/nats.rs/async-nats/src/header.rs
FN:170,_RINvMs2_NtCs1hbFQVFAImq_10async_nats6headerNtB6_9HeaderMap3getReEB8_
FN:146,_RINvMs2_NtCs1hbFQVFAImq_10async_nats6headerNtB6_9HeaderMap6appendNtB6_10HeaderNameNtB6_11HeaderValueEB8_
FN:146,_RINvMs2_NtCs1hbFQVFAImq_10async_nats6headerNtB6_9HeaderMap6appendReB11_EB8_
FN:130,_RINvMs2_NtCs1hbFQVFAImq_10async_nats6headerNtB6_9HeaderMap6insertNtB6_10HeaderNameNtB6_11HeaderValueEB8_
FN:130,_RINvMs2_NtCs1hbFQVFAImq_10async_nats6headerNtB6_9HeaderMap6insertReB11_EB8_
FN:130,_RINvMs2_NtCs1hbFQVFAImq_10async_nats6headerNtB6_9HeaderMap6insertReNtB6_11HeaderValueEB8_
FN:207,_RINvMs2_NtCs1hbFQVFAImq_10async_nats6headerNtB6_9HeaderMap7get_allReEB8_
FN:187,_RINvMs2_NtCs1hbFQVFAImq_10async_nats6headerNtB6_9HeaderMap8get_lastReEB8_
FN:53,_RINvXNtCs1hbFQVFAImq_10async_nats6headerNtB3_9HeaderMapINtNtNtNtCs2CqrNpCrSUr_4core4iter6traits7collect12FromIteratorTNtB3_10HeaderNameNtB3_11HeaderValueEE9from_iterAB1R_j1_EB5_
FN:649,_RINvXsy_NtCs1hbFQVFAImq_10async_nats6headerNtB6_10HeaderNameNtNtCs6INkh2lCEoF_5serde3ser9Serialize9serializeQINtNtCs3hMvov8GLbn_10serde_json3ser10SerializerQINtNtCs1AhsD0INetT_5alloc3vec3VechEEEB8_
FN:658,_RINvXsz_NtCs1hbFQVFAImq_10async_nats6headerNtB6_10HeaderNameNtNtCs6INkh2lCEoF_5serde2de11Deserialize11deserializeQINtNtCs3hMvov8GLbn_10serde_json2de12DeserializerNtNtB1T_4read7StrReadEEB8_
FN:173,_RNCINvMs2_NtCs1hbFQVFAImq_10async_nats6headerNtB8_9HeaderMap3getReE0Ba_
FN:211,_RNCINvMs2_NtCs1hbFQVFAImq_10async_nats6headerNtB8_9HeaderMap7get_allReE0Ba_
FN:190,_RNCINvMs2_NtCs1hbFQVFAImq_10async_nats6headerNtB8_9HeaderMap8get_lastReE0Ba_
FN:615,_RNCNvXsu_NtCs1hbFQVFAImq_10async_nats6headerNtB7_10HeaderNameNtNtNtCs2CqrNpCrSUr_4core3str6traits7FromStr8from_str0B9_
FN:75,_RNvXs0_NtCs1hbFQVFAImq_10async_nats6headerINtB5_6GetAllNtB5_11HeaderValueENtNtNtNtCs2CqrNpCrSUr_4core4iter6traits8iterator8Iterator4nextB7_
FN:63,_RNvMs_NtCs1hbFQVFAImq_10async_nats6headerNtB4_9HeaderMap4iter
FN:360,_RNvMsh_NtCs1hbFQVFAImq_10async_nats6headerNtB5_11HeaderValue3new
FN:256,_RNvXs4_NtCs1hbFQVFAImq_10async_nats6headerNtB5_11HeaderValueINtNtCs2CqrNpCrSUr_4core7convert5AsRefShE6as_ref
FN:262,_RNvXs5_NtCs1hbFQVFAImq_10async_nats6headerNtB5_11HeaderValueINtNtCs2CqrNpCrSUr_4core7convert5AsRefeE6as_ref
FN:268,_RNvXs6_NtCs1hbFQVFAImq_10async_nats6headerNtB5_11HeaderValueINtNtCs2CqrNpCrSUr_4core7convert4FromsE4from
FN:276,_RNvXs7_NtCs1hbFQVFAImq_10async_nats6headerNtB5_11HeaderValueINtNtCs2CqrNpCrSUr_4core7convert4FromlE4from
FN:284,_RNvXs8_NtCs1hbFQVFAImq_10async_nats6headerNtB5_11HeaderValueINtNtCs2CqrNpCrSUr_4core7convert4FromxE4from
FN:292,_RNvXs9_NtCs1hbFQVFAImq_10async_nats6headerNtB5_11HeaderValueINtNtCs2CqrNpCrSUr_4core7convert4FromiE4from
FN:300,_RNvXsa_NtCs1hbFQVFAImq_10async_nats6headerNtB5_11HeaderValueINtNtCs2CqrNpCrSUr_4core7convert4FromtE4from
FN:308,_RNvXsb_NtCs1hbFQVFAImq_10async_nats6headerNtB5_11HeaderValueINtNtCs2CqrNpCrSUr_4core7convert4FrommE4from
FN:316,_RNvXsc_NtCs1hbFQVFAImq_10async_nats6headerNtB5_11HeaderValueINtNtCs2CqrNpCrSUr_4core7convert4FromyE4from
FN:324,_RNvXsd_NtCs1hbFQVFAImq_10async_nats6headerNtB5_11HeaderValueINtNtCs2CqrNpCrSUr_4core7convert4FromjE4from
FN:346,_RNvXsf_NtCs1hbFQVFAImq_10async_nats6headerNtB5_11HeaderValueINtNtCs2CqrNpCrSUr_4core7convert4FromReE4from
FN:373,_RNvXsi_NtCs1hbFQVFAImq_10async_nats6headerNtB5_21ParseHeaderValueErrorNtNtCs2CqrNpCrSUr_4core3fmt7Display3fmt
FN:631,_RNvXsv_NtCs1hbFQVFAImq_10async_nats6headerNtB5_10HeaderNameNtNtCs2CqrNpCrSUr_4core3fmt7Display3fmt
FN:637,_RNvXsw_NtCs1hbFQVFAImq_10async_nats6headerNtB5_10HeaderNameINtNtCs2CqrNpCrSUr_4core7convert5AsRefShE6as_ref
FN:643,_RNvXsx_NtCs1hbFQVFAImq_10async_nats6headerNtB5_10HeaderNameINtNtCs2CqrNpCrSUr_4core7convert5AsRefeE6as_ref
FN:713,_RNvNtNtCs1hbFQVFAImq_10async_nats6header5testss_10get_string
FN:770,_RNvNtNtCs1hbFQVFAImq_10async_nats6header5testss_11parse_value
FN:825,_RNvNtNtCs1hbFQVFAImq_10async_nats6header5testss_14from_static_eq
FN:833,_RNvNtNtCs1hbFQVFAImq_10async_nats6header5testss_17header_name_serde
FN:777,_RNvNtNtCs1hbFQVFAImq_10async_nats6header5testss_17valid_header_name
FN:789,_RNvNtNtCs1hbFQVFAImq_10async_nats6header5testss_18dollar_header_name
FN:847,_RNvNtNtCs1hbFQVFAImq_10async_nats6header5testss_23header_name_from_string
FN:864,_RNvNtNtCs1hbFQVFAImq_10async_nats6header5testss_24header_value_from_string
FN:801,_RNvNtNtCs1hbFQVFAImq_10async_nats6header5testss_30invalid_header_name_with_space
FN:855,_RNvNtNtCs1hbFQVFAImq_10async_nats6header5testss_35header_value_from_string_with_trait
FN:813,_RNvNtNtCs1hbFQVFAImq_10async_nats6header5testss_38invalid_header_name_with_special_chars
FN:692,_RNvNtNtCs1hbFQVFAImq_10async_nats6header5testss_6append
FN:733,_RNvNtNtCs1hbFQVFAImq_10async_nats6header5testss_6insert
FN:759,_RNvNtNtCs1hbFQVFAImq_10async_nats6header5testss_8is_empty
FN:685,_RNvNtNtCs1hbFQVFAImq_10async_nats6header5testss_8try_from
FN:747,_RNvNtNtCs1hbFQVFAImq_10async_nats6header5testss_9serialize
FN:487,_RNvNtNtCs1hbFQVFAImq_10async_nats6header21standard_header_testss_8from_str
FN:396,_RNvXsl_NtCs1hbFQVFAImq_10async_nats6headerNtNtCs1AhsD0INetT_5alloc6string6StringNtB5_14IntoHeaderName16into_header_name
FN:422,_RNvXso_NtCs1hbFQVFAImq_10async_nats6headerNtNtCs1AhsD0INetT_5alloc6string6StringNtB5_15IntoHeaderValue17into_header_value
FN:114,_RNvMs1_NtCs1hbFQVFAImq_10async_nats6headerNtB5_9HeaderMap3len
FN:91,_RNvMs1_NtCs1hbFQVFAImq_10async_nats6headerNtB5_9HeaderMap3new
FN:110,_RNvMs1_NtCs1hbFQVFAImq_10async_nats6headerNtB5_9HeaderMap8is_empty
FN:217,_RNvMs2_NtCs1hbFQVFAImq_10async_nats6headerNtB5_9HeaderMap8to_bytes
FN:465,_RNvMsQ_NtCs1hbFQVFAImq_10async_nats6headerNtB5_14StandardHeader10from_bytes
FN:457,_RNvMsQ_NtCs1hbFQVFAImq_10async_nats6headerNtB5_14StandardHeader6as_strB7_
FN:364,_RNvMsh_NtCs1hbFQVFAImq_10async_nats6headerNtB5_11HeaderValue6as_str
FN:536,_RNvMsq_NtCs1hbFQVFAImq_10async_nats6headerNtB5_12CustomHeader11from_staticB7_
FN:543,_RNvMsq_NtCs1hbFQVFAImq_10async_nats6headerNtB5_12CustomHeader6as_strB7_
FN:589,_RNvMst_NtCs1hbFQVFAImq_10async_nats6headerNtB5_10HeaderName11from_staticB7_
FN:603,_RNvMst_NtCs1hbFQVFAImq_10async_nats6headerNtB5_10HeaderName6as_strB7_
FN:250,_RNvXs3_NtCs1hbFQVFAImq_10async_nats6headerNtB5_11HeaderValueNtNtCs2CqrNpCrSUr_4core3fmt7Display3fmt
FN:672,_RNvXsA_NtCs1hbFQVFAImq_10async_nats6headerNtB5_20ParseHeaderNameErrorNtNtCs2CqrNpCrSUr_4core3fmt7Display3fmt
FN:334,_RNvXse_NtCs1hbFQVFAImq_10async_nats6headerNtB5_11HeaderValueNtNtNtCs2CqrNpCrSUr_4core3str6traits7FromStr8from_str
FN:354,_RNvXsg_NtCs1hbFQVFAImq_10async_nats6headerNtB5_11HeaderValueINtNtCs2CqrNpCrSUr_4core7convert4FromNtNtCs1AhsD0INetT_5alloc6string6StringE4from
FN:388,_RNvXsk_NtCs1hbFQVFAImq_10async_nats6headerReNtB5_14IntoHeaderName16into_header_name
FN:404,_RNvXsm_NtCs1hbFQVFAImq_10async_nats6headerNtB5_10HeaderNameNtB5_14IntoHeaderName16into_header_name
FN:414,_RNvXsn_NtCs1hbFQVFAImq_10async_nats6headerReNtB5_15IntoHeaderValue17into_header_value
FN:428,_RNvXsp_NtCs1hbFQVFAImq_10async_nats6headerNtB5_11HeaderValueNtB5_15IntoHeaderValue17into_header_value
FN:550,_RNvXsr_NtCs1hbFQVFAImq_10async_nats6headerNtB5_12CustomHeaderINtNtCs2CqrNpCrSUr_4core7convert4FromNtNtCs1AhsD0INetT_5alloc6string6StringE4fromB7_
FN:559,_RNvXss_NtCs1hbFQVFAImq_10async_nats6headerNtB5_12CustomHeaderINtNtCs2CqrNpCrSUr_4core7convert4FromReE4fromB7_
FN:614,_RNvXsu_NtCs1hbFQVFAImq_10async_nats6headerNtB5_10HeaderNameNtNtNtCs2CqrNpCrSUr_4core3str6traits7FromStr8from_str
FN:146,_RINvMs2_NtCs6qhVEmoZJ2z_10async_nats6headerNtB6_9HeaderMap6appendReB11_ECsdpdgC16NPIW_12client_tests
FN:130,_RINvMs2_NtCs6qhVEmoZJ2z_10async_nats6headerNtB6_9HeaderMap6insertReNtB6_11HeaderValueECsdpdgC16NPIW_12client_tests
FN:207,_RINvMs2_NtCs6qhVEmoZJ2z_10async_nats6headerNtB6_9HeaderMap7get_allpEB8_
FN:53,_RINvXNtCs6qhVEmoZJ2z_10async_nats6headerNtB3_9HeaderMapINtNtNtNtCs2CqrNpCrSUr_4core4iter6traits7collect12FromIteratorTNtB3_10HeaderNameNtB3_11HeaderValueEE9from_iterpEB5_
FN:649,_RINvXsy_NtCs6qhVEmoZJ2z_10async_nats6headerNtB6_10HeaderNameNtNtCs6INkh2lCEoF_5serde3ser9Serialize9serializepEB8_
FN:211,_RNCINvMs2_NtCs6qhVEmoZJ2z_10async_nats6headerNtB8_9HeaderMap7get_allpE0Ba_
FN:536,_RNvMsq_NtCs6qhVEmoZJ2z_10async_nats6headerNtB5_12CustomHeader11from_staticB7_
FN:589,_RNvMst_NtCs6qhVEmoZJ2z_10async_nats6headerNtB5_10HeaderName11from_staticB7_
FN:75,_RNvXININtCs6qhVEmoZJ2z_10async_nats6headers0_0pEINtB5_6GetAllpENtNtNtNtCs2CqrNpCrSUr_4core4iter6traits8iterator8Iterator4nextB7_
FN:170,_RINvMs2_NtCs6qhVEmoZJ2z_10async_nats6headerNtB6_9HeaderMap3getNtB6_10HeaderNameEB8_
FN:170,_RINvMs2_NtCs6qhVEmoZJ2z_10async_nats6headerNtB6_9HeaderMap3getReEB8_
FN:146,_RINvMs2_NtCs6qhVEmoZJ2z_10async_nats6headerNtB6_9HeaderMap6appendNtB6_10HeaderNameNtB6_11HeaderValueEB8_
FN:130,_RINvMs2_NtCs6qhVEmoZJ2z_10async_nats6headerNtB6_9HeaderMap6insertNtB6_10HeaderNameNtB6_11HeaderValueEB8_
FN:130,_RINvMs2_NtCs6qhVEmoZJ2z_10async_nats6headerNtB6_9HeaderMap6insertNtB6_10HeaderNameNtNtCs1AhsD0INetT_5alloc6string6StringEB8_
FN:187,_RINvMs2_NtCs6qhVEmoZJ2z_10async_nats6headerNtB6_9HeaderMap8get_lastNtB6_10HeaderNameEB8_
FN:658,_RINvXsz_NtCs6qhVEmoZJ2z_10async_nats6headerNtB6_10HeaderNameNtNtCs6INkh2lCEoF_5serde2de11Deserialize11deserializeINtNtCs3hMvov8GLbn_10serde_json2de6MapKeyNtNtB1S_4read9SliceReadEEB8_
FN:173,_RNCINvMs2_NtCs6qhVEmoZJ2z_10async_nats6headerNtB8_9HeaderMap3getNtB8_10HeaderNameE0Ba_
FN:173,_RNCINvMs2_NtCs6qhVEmoZJ2z_10async_nats6headerNtB8_9HeaderMap3getReE0Ba_
FN:190,_RNCINvMs2_NtCs6qhVEmoZJ2z_10async_nats6headerNtB8_9HeaderMap8get_lastNtB8_10HeaderNameE0Ba_
FN:615,_RNCNvXsu_NtCs6qhVEmoZJ2z_10async_nats6headerNtB7_10HeaderNameNtNtNtCs2CqrNpCrSUr_4core3str6traits7FromStr8from_str0B9_
FN:396,_RNvXsl_NtCs6qhVEmoZJ2z_10async_nats6headerNtNtCs1AhsD0INetT_5alloc6string6StringNtB5_14IntoHeaderName16into_header_name
FN:422,_RNvXso_NtCs6qhVEmoZJ2z_10async_nats6headerNtNtCs1AhsD0INetT_5alloc6string6StringNtB5_15IntoHeaderValue17into_header_value
FN:114,_RNvMs1_NtCs6qhVEmoZJ2z_10async_nats6headerNtB5_9HeaderMap3len
FN:91,_RNvMs1_NtCs6qhVEmoZJ2z_10async_nats6headerNtB5_9HeaderMap3new
FN:110,_RNvMs1_NtCs6qhVEmoZJ2z_10async_nats6headerNtB5_9HeaderMap8is_empty
FN:217,_RNvMs2_NtCs6qhVEmoZJ2z_10async_nats6headerNtB5_9HeaderMap8to_bytes
FN:465,_RNvMsQ_NtCs6qhVEmoZJ2z_10async_nats6headerNtB5_14StandardHeader10from_bytes
FN:457,_RNvMsQ_NtCs6qhVEmoZJ2z_10async_nats6headerNtB5_14StandardHeader6as_strB7_
FN:63,_RNvMs_NtCs6qhVEmoZJ2z_10async_nats6headerNtB4_9HeaderMap4iter
FN:360,_RNvMsh_NtCs6qhVEmoZJ2z_10async_nats6headerNtB5_11HeaderValue3new
FN:364,_RNvMsh_NtCs6qhVEmoZJ2z_10async_nats6headerNtB5_11HeaderValue6as_str
FN:543,_RNvMsq_NtCs6qhVEmoZJ2z_10async_nats6headerNtB5_12CustomHeader6as_strB7_
FN:603,_RNvMst_NtCs6qhVEmoZJ2z_10async_nats6headerNtB5_10HeaderName6as_strB7_
FN:250,_RNvXs3_NtCs6qhVEmoZJ2z_10async_nats6headerNtB5_11HeaderValueNtNtCs2CqrNpCrSUr_4core3fmt7Display3fmt
FN:256,_RNvXs4_NtCs6qhVEmoZJ2z_10async_nats6headerNtB5_11HeaderValueINtNtCs2CqrNpCrSUr_4core7convert5AsRefShE6as_ref
FN:262,_RNvXs5_NtCs6qhVEmoZJ2z_10async_nats6headerNtB5_11HeaderValueINtNtCs2CqrNpCrSUr_4core7convert5AsRefeE6as_ref
FN:268,_RNvXs6_NtCs6qhVEmoZJ2z_10async_nats6headerNtB5_11HeaderValueINtNtCs2CqrNpCrSUr_4core7convert4FromsE4from
FN:276,_RNvXs7_NtCs6qhVEmoZJ2z_10async_nats6headerNtB5_11HeaderValueINtNtCs2CqrNpCrSUr_4core7convert4FromlE4from
FN:284,_RNvXs8_NtCs6qhVEmoZJ2z_10async_nats6headerNtB5_11HeaderValueINtNtCs2CqrNpCrSUr_4core7convert4FromxE4from
FN:292,_RNvXs9_NtCs6qhVEmoZJ2z_10async_nats6headerNtB5_11HeaderValueINtNtCs2CqrNpCrSUr_4core7convert4FromiE4from
FN:672,_RNvXsA_NtCs6qhVEmoZJ2z_10async_nats6headerNtB5_20ParseHeaderNameErrorNtNtCs2CqrNpCrSUr_4core3fmt7Display3fmt
FN:300,_RNvXsa_NtCs6qhVEmoZJ2z_10async_nats6headerNtB5_11HeaderValueINtNtCs2CqrNpCrSUr_4core7convert4FromtE4from
FN:308,_RNvXsb_NtCs6qhVEmoZJ2z_10async_nats6headerNtB5_11HeaderValueINtNtCs2CqrNpCrSUr_4core7convert4FrommE4from
FN:316,_RNvXsc_NtCs6qhVEmoZJ2z_10async_nats6headerNtB5_11HeaderValueINtNtCs2CqrNpCrSUr_4core7convert4FromyE4from
FN:324,_RNvXsd_NtCs6qhVEmoZJ2z_10async_nats6headerNtB5_11HeaderValueINtNtCs2CqrNpCrSUr_4core7convert4FromjE4from
FN:334,_RNvXse_NtCs6qhVEmoZJ2z_10async_nats6headerNtB5_11HeaderValueNtNtNtCs2CqrNpCrSUr_4core3str6traits7FromStr8from_str
FN:346,_RNvXsf_NtCs6qhVEmoZJ2z_10async_nats6headerNtB5_11HeaderValueINtNtCs2CqrNpCrSUr_4core7convert4FromReE4from
FN:354,_RNvXsg_NtCs6qhVEmoZJ2z_10async_nats6headerNtB5_11HeaderValueINtNtCs2CqrNpCrSUr_4core7convert4FromNtNtCs1AhsD0INetT_5alloc6string6StringE4from
FN:373,_RNvXsi_NtCs6qhVEmoZJ2z_10async_nats6headerNtB5_21ParseHeaderValueErrorNtNtCs2CqrNpCrSUr_4core3fmt7Display3fmt
FN:388,_RNvXsk_NtCs6qhVEmoZJ2z_10async_nats6headerReNtB5_14IntoHeaderName16into_header_name
FN:404,_RNvXsm_NtCs6qhVEmoZJ2z_10async_nats6headerNtB5_10HeaderNameNtB5_14IntoHeaderName16into_header_name
FN:414,_RNvXsn_NtCs6qhVEmoZJ2z_10async_nats6headerReNtB5_15IntoHeaderValue17into_header_value
FN:428,_RNvXsp_NtCs6qhVEmoZJ2z_10async_nats6headerNtB5_11HeaderValueNtB5_15IntoHeaderValue17into_header_value
FN:550,_RNvXsr_NtCs6qhVEmoZJ2z_10async_nats6headerNtB5_12CustomHeaderINtNtCs2CqrNpCrSUr_4core7convert4FromNtNtCs1AhsD0INetT_5alloc6string6StringE4fromB7_
FN:559,_RNvXss_NtCs6qhVEmoZJ2z_10async_nats6headerNtB5_12CustomHeaderINtNtCs2CqrNpCrSUr_4core7convert4FromReE4fromB7_
FN:614,_RNvXsu_NtCs6qhVEmoZJ2z_10async_nats6headerNtB5_10HeaderNameNtNtNtCs2CqrNpCrSUr_4core3str6traits7FromStr8from_str
FN:631,_RNvXsv_NtCs6qhVEmoZJ2z_10async_nats6headerNtB5_10HeaderNameNtNtCs2CqrNpCrSUr_4core3fmt7Display3fmt
FN:637,_RNvXsw_NtCs6qhVEmoZJ2z_10async_nats6headerNtB5_10HeaderNameINtNtCs2CqrNpCrSUr_4core7convert5AsRefShE6as_ref
FN:643,_RNvXsx_NtCs6qhVEmoZJ2z_10async_nats6headerNtB5_10HeaderNameINtNtCs2CqrNpCrSUr_4core7convert5AsRefeE6as_ref
FN:130,_RINvMs2_NtCs6qhVEmoZJ2z_10async_nats6headerNtB6_9HeaderMap6insertNtB6_10HeaderNameReECsbhX8fe0itkR_15jetstream_tests
FN:130,_RINvMs2_NtCs6qhVEmoZJ2z_10async_nats6headerNtB6_9HeaderMap6insertReNtB6_11HeaderValueECs98b7hshCa6M_8kv_tests
FN:146,_RINvMs2_NtCs6qhVEmoZJ2z_10async_nats6headerNtB6_9HeaderMap6appendReB11_ECsesyn6ELQ2kp_12object_store
FN:130,_RINvMs2_NtCs6qhVEmoZJ2z_10async_nats6headerNtB6_9HeaderMap6insertReNtB6_11HeaderValueECsesyn6ELQ2kp_12object_store
FN:649,_RINvXsy_NtCs6qhVEmoZJ2z_10async_nats6headerNtB6_10HeaderNameNtNtCs6INkh2lCEoF_5serde3ser9Serialize9serializeINtNtCs3hMvov8GLbn_10serde_json3ser16MapKeySerializerQINtNtCs1AhsD0INetT_5alloc3vec3VechENtB1L_16CompactFormatterEECsesyn6ELQ2kp_12object_store
FN:457,_RNvMsQ_NtCs6qhVEmoZJ2z_10async_nats6headerNtB5_14StandardHeader6as_strCsesyn6ELQ2kp_12object_store
FN:543,_RNvMsq_NtCs6qhVEmoZJ2z_10async_nats6headerNtB5_12CustomHeader6as_strCsesyn6ELQ2kp_12object_store
FN:603,_RNvMst_NtCs6qhVEmoZJ2z_10async_nats6headerNtB5_10HeaderName6as_strCsesyn6ELQ2kp_12object_store
FN:130,_RINvMs2_NtCs6qhVEmoZJ2z_10async_nats6headerNtB6_9HeaderMap6insertReB11_ECscGYhHI872CP_13service_tests
FNDA:4,_RINvMs2_NtCs1hbFQVFAImq_10async_nats6headerNtB6_9HeaderMap3getReEB8_
FNDA:2,_RINvMs2_NtCs1hbFQVFAImq_10async_nats6headerNtB6_9HeaderMap6appendNtB6_10HeaderNameNtB6_11HeaderValueEB8_
FNDA:8,_RINvMs2_NtCs1hbFQVFAImq_10async_nats6headerNtB6_9HeaderMap6appendReB11_EB8_
FNDA:9,_RINvMs2_NtCs1hbFQVFAImq_10async_nats6headerNtB6_9HeaderMap6insertNtB6_10HeaderNameNtB6_11HeaderValueEB8_
FNDA:4,_RINvMs2_NtCs1hbFQVFAImq_10async_nats6headerNtB6_9HeaderMap6insertReB11_EB8_
FNDA:1,_RINvMs2_NtCs1hbFQVFAImq_10async_nats6headerNtB6_9HeaderMap6insertReNtB6_11HeaderValueEB8_
FNDA:2,_RINvMs2_NtCs1hbFQVFAImq_10async_nats6headerNtB6_9HeaderMap7get_allReEB8_
FNDA:1,_RINvMs2_NtCs1hbFQVFAImq_10async_nats6headerNtB6_9HeaderMap8get_lastReEB8_
FNDA:3,_RINvXNtCs1hbFQVFAImq_10async_nats6headerNtB3_9HeaderMapINtNtNtNtCs2CqrNpCrSUr_4core4iter6traits7collect12FromIteratorTNtB3_10HeaderNameNtB3_11HeaderValueEE9from_iterAB1R_j1_EB5_
FNDA:1,_RINvXsy_NtCs1hbFQVFAImq_10async_nats6headerNtB6_10HeaderNameNtNtCs6INkh2lCEoF_5serde3ser9Serialize9serializeQINtNtCs3hMvov8GLbn_10serde_json3ser10SerializerQINtNtCs1AhsD0INetT_5alloc3vec3VechEEEB8_
FNDA:1,_RINvXsz_NtCs1hbFQVFAImq_10async_nats6headerNtB6_10HeaderNameNtNtCs6INkh2lCEoF_5serde2de11Deserialize11deserializeQINtNtCs3hMvov8GLbn_10serde_json2de12DeserializerNtNtB1T_4read7StrReadEEB8_
FNDA:4,_RNCINvMs2_NtCs1hbFQVFAImq_10async_nats6headerNtB8_9HeaderMap3getReE0Ba_
FNDA:2,_RNCINvMs2_NtCs1hbFQVFAImq_10async_nats6headerNtB8_9HeaderMap7get_allReE0Ba_
FNDA:1,_RNCINvMs2_NtCs1hbFQVFAImq_10async_nats6headerNtB8_9HeaderMap8get_lastReE0Ba_
FNDA:330,_RNCNvXsu_NtCs1hbFQVFAImq_10async_nats6headerNtB7_10HeaderNameNtNtNtCs2CqrNpCrSUr_4core3str6traits7FromStr8from_str0B9_
FNDA:5,_RNvXs0_NtCs1hbFQVFAImq_10async_nats6headerINtB5_6GetAllNtB5_11HeaderValueENtNtNtNtCs2CqrNpCrSUr_4core4iter6traits8iterator8Iterator4nextB7_
FNDA:0,_RNvMs_NtCs1hbFQVFAImq_10async_nats6headerNtB4_9HeaderMap4iter
FNDA:0,_RNvMsh_NtCs1hbFQVFAImq_10async_nats6headerNtB5_11HeaderValue3new
FNDA:0,_RNvXs4_NtCs1hbFQVFAImq_10async_nats6headerNtB5_11HeaderValueINtNtCs2CqrNpCrSUr_4core7convert5AsRefShE6as_ref
FNDA:0,_RNvXs5_NtCs1hbFQVFAImq_10async_nats6headerNtB5_11HeaderValueINtNtCs2CqrNpCrSUr_4core7convert5AsRefeE6as_ref
FNDA:0,_RNvXs6_NtCs1hbFQVFAImq_10async_nats6headerNtB5_11HeaderValueINtNtCs2CqrNpCrSUr_4core7convert4FromsE4from
FNDA:0,_RNvXs7_NtCs1hbFQVFAImq_10async_nats6headerNtB5_11HeaderValueINtNtCs2CqrNpCrSUr_4core7convert4FromlE4from
FNDA:0,_RNvXs8_NtCs1hbFQVFAImq_10async_nats6headerNtB5_11HeaderValueINtNtCs2CqrNpCrSUr_4core7convert4FromxE4from
FNDA:0,_RNvXs9_NtCs1hbFQVFAImq_10async_nats6headerNtB5_11HeaderValueINtNtCs2CqrNpCrSUr_4core7convert4FromiE4from
FNDA:0,_RNvXsa_NtCs1hbFQVFAImq_10async_nats6headerNtB5_11HeaderValueINtNtCs2CqrNpCrSUr_4core7convert4FromtE4from
FNDA:0,_RNvXsb_NtCs1hbFQVFAImq_10async_nats6headerNtB5_11HeaderValueINtNtCs2CqrNpCrSUr_4core7convert4FrommE4from
FNDA:0,_RNvXsc_NtCs1hbFQVFAImq_10async_nats6headerNtB5_11HeaderValueINtNtCs2CqrNpCrSUr_4core7convert4FromyE4from
FNDA:0,_RNvXsd_NtCs1hbFQVFAImq_10async_nats6headerNtB5_11HeaderValueINtNtCs2CqrNpCrSUr_4core7convert4FromjE4from
FNDA:0,_RNvXsf_NtCs1hbFQVFAImq_10async_nats6headerNtB5_11HeaderValueINtNtCs2CqrNpCrSUr_4core7convert4FromReE4from
FNDA:0,_RNvXsi_NtCs1hbFQVFAImq_10async_nats6headerNtB5_21ParseHeaderValueErrorNtNtCs2CqrNpCrSUr_4core3fmt7Display3fmt
FNDA:0,_RNvXsv_NtCs1hbFQVFAImq_10async_nats6headerNtB5_10HeaderNameNtNtCs2CqrNpCrSUr_4core3fmt7Display3fmt
FNDA:0,_RNvXsw_NtCs1hbFQVFAImq_10async_nats6headerNtB5_10HeaderNameINtNtCs2CqrNpCrSUr_4core7convert5AsRefShE6as_ref
FNDA:0,_RNvXsx_NtCs1hbFQVFAImq_10async_nats6headerNtB5_10HeaderNameINtNtCs2CqrNpCrSUr_4core7convert5AsRefeE6as_ref
FNDA:1,_RNvNtNtCs1hbFQVFAImq_10async_nats6header5testss_10get_string
FNDA:1,_RNvNtNtCs1hbFQVFAImq_10async_nats6header5testss_11parse_value
FNDA:1,_RNvNtNtCs1hbFQVFAImq_10async_nats6header5testss_14from_static_eq
FNDA:1,_RNvNtNtCs1hbFQVFAImq_10async_nats6header5testss_17header_name_serde
FNDA:1,_RNvNtNtCs1hbFQVFAImq_10async_nats6header5testss_17valid_header_name
FNDA:1,_RNvNtNtCs1hbFQVFAImq_10async_nats6header5testss_18dollar_header_name
FNDA:1,_RNvNtNtCs1hbFQVFAImq_10async_nats6header5testss_23header_name_from_string
FNDA:1,_RNvNtNtCs1hbFQVFAImq_10async_nats6header5testss_24header_value_from_string
FNDA:1,_RNvNtNtCs1hbFQVFAImq_10async_nats6header5testss_30invalid_header_name_with_space
FNDA:1,_RNvNtNtCs1hbFQVFAImq_10async_nats6header5testss_35header_value_from_string_with_trait
FNDA:1,_RNvNtNtCs1hbFQVFAImq_10async_nats6header5testss_38invalid_header_name_with_special_chars
FNDA:1,_RNvNtNtCs1hbFQVFAImq_10async_nats6header5testss_6append
FNDA:1,_RNvNtNtCs1hbFQVFAImq_10async_nats6header5testss_6insert
FNDA:1,_RNvNtNtCs1hbFQVFAImq_10async_nats6header5testss_8is_empty
FNDA:1,_RNvNtNtCs1hbFQVFAImq_10async_nats6header5testss_8try_from
FNDA:1,_RNvNtNtCs1hbFQVFAImq_10async_nats6header5testss_9serialize
FNDA:1,_RNvNtNtCs1hbFQVFAImq_10async_nats6header21standard_header_testss_8from_str
FNDA:1,_RNvXsl_NtCs1hbFQVFAImq_10async_nats6headerNtNtCs1AhsD0INetT_5alloc6string6StringNtB5_14IntoHeaderName16into_header_name
FNDA:3,_RNvXso_NtCs1hbFQVFAImq_10async_nats6headerNtNtCs1AhsD0INetT_5alloc6string6StringNtB5_15IntoHeaderValue17into_header_value
FNDA:0,_RNvMs1_NtCs1hbFQVFAImq_10async_nats6headerNtB5_9HeaderMap3len
FNDA:13,_RNvMs1_NtCs1hbFQVFAImq_10async_nats6headerNtB5_9HeaderMap3new
FNDA:4,_RNvMs1_NtCs1hbFQVFAImq_10async_nats6headerNtB5_9HeaderMap8is_empty
FNDA:2,_RNvMs2_NtCs1hbFQVFAImq_10async_nats6headerNtB5_9HeaderMap8to_bytes
FNDA:25,_RNvMsQ_NtCs1hbFQVFAImq_10async_nats6headerNtB5_14StandardHeader10from_bytes
FNDA:1,_RNvMsQ_NtCs1hbFQVFAImq_10async_nats6headerNtB5_14StandardHeader6as_strB7_
FNDA:7,_RNvMsh_NtCs1hbFQVFAImq_10async_nats6headerNtB5_11HeaderValue6as_str
FNDA:2,_RNvMsq_NtCs1hbFQVFAImq_10async_nats6headerNtB5_12CustomHeader11from_staticB7_
FNDA:5,_RNvMsq_NtCs1hbFQVFAImq_10async_nats6headerNtB5_12CustomHeader6as_strB7_
FNDA:3,_RNvMst_NtCs1hbFQVFAImq_10async_nats6headerNtB5_10HeaderName11from_staticB7_
FNDA:6,_RNvMst_NtCs1hbFQVFAImq_10async_nats6headerNtB5_10HeaderName6as_strB7_
FNDA:1,_RNvXs3_NtCs1hbFQVFAImq_10async_nats6headerNtB5_11HeaderValueNtNtCs2CqrNpCrSUr_4core3fmt7Display3fmt
FNDA:0,_RNvXsA_NtCs1hbFQVFAImq_10async_nats6headerNtB5_20ParseHeaderNameErrorNtNtCs2CqrNpCrSUr_4core3fmt7Display3fmt
FNDA:10,_RNvXse_NtCs1hbFQVFAImq_10async_nats6headerNtB5_11HeaderValueNtNtNtCs2CqrNpCrSUr_4core3str6traits7FromStr8from_str
FNDA:1,_RNvXsg_NtCs1hbFQVFAImq_10async_nats6headerNtB5_11HeaderValueINtNtCs2CqrNpCrSUr_4core7convert4FromNtNtCs1AhsD0INetT_5alloc6string6StringE4from
FNDA:20,_RNvXsk_NtCs1hbFQVFAImq_10async_nats6headerReNtB5_14IntoHeaderName16into_header_name
FNDA:11,_RNvXsm_NtCs1hbFQVFAImq_10async_nats6headerNtB5_10HeaderNameNtB5_14IntoHeaderName16into_header_name
FNDA:12,_RNvXsn_NtCs1hbFQVFAImq_10async_nats6headerReNtB5_15IntoHeaderValue17into_header_value
FNDA:12,_RNvXsp_NtCs1hbFQVFAImq_10async_nats6headerNtB5_11HeaderValueNtB5_15IntoHeaderValue17into_header_value
FNDA:1,_RNvXsr_NtCs1hbFQVFAImq_10async_nats6headerNtB5_12CustomHeaderINtNtCs2CqrNpCrSUr_4core7convert4FromNtNtCs1AhsD0INetT_5alloc6string6StringE4fromB7_
FNDA:27,_RNvXss_NtCs1hbFQVFAImq_10async_nats6headerNtB5_12CustomHeaderINtNtCs2CqrNpCrSUr_4core7convert4FromReE4fromB7_
FNDA:24,_RNvXsu_NtCs1hbFQVFAImq_10async_nats6headerNtB5_10HeaderNameNtNtNtCs2CqrNpCrSUr_4core3str6traits7FromStr8from_str
FNDA:1,_RINvMs2_NtCs6qhVEmoZJ2z_10async_nats6headerNtB6_9HeaderMap6appendReB11_ECsdpdgC16NPIW_12client_tests
FNDA:2,_RINvMs2_NtCs6qhVEmoZJ2z_10async_nats6headerNtB6_9HeaderMap6insertReNtB6_11HeaderValueECsdpdgC16NPIW_12client_tests
FNDA:0,_RINvMs2_NtCs6qhVEmoZJ2z_10async_nats6headerNtB6_9HeaderMap7get_allpEB8_
FNDA:0,_RINvXNtCs6qhVEmoZJ2z_10async_nats6headerNtB3_9HeaderMapINtNtNtNtCs2CqrNpCrSUr_4core4iter6traits7collect12FromIteratorTNtB3_10HeaderNameNtB3_11HeaderValueEE9from_iterpEB5_
FNDA:0,_RINvXsy_NtCs6qhVEmoZJ2z_10async_nats6headerNtB6_10HeaderNameNtNtCs6INkh2lCEoF_5serde3ser9Serialize9serializepEB8_
FNDA:0,_RNCINvMs2_NtCs6qhVEmoZJ2z_10async_nats6headerNtB8_9HeaderMap7get_allpE0Ba_
FNDA:0,_RNvMsq_NtCs6qhVEmoZJ2z_10async_nats6headerNtB5_12CustomHeader11from_staticB7_
FNDA:0,_RNvMst_NtCs6qhVEmoZJ2z_10async_nats6headerNtB5_10HeaderName11from_staticB7_
FNDA:0,_RNvXININtCs6qhVEmoZJ2z_10async_nats6headers0_0pEINtB5_6GetAllpENtNtNtNtCs2CqrNpCrSUr_4core4iter6traits8iterator8Iterator4nextB7_
FNDA:26,_RINvMs2_NtCs6qhVEmoZJ2z_10async_nats6headerNtB6_9HeaderMap3getNtB6_10HeaderNameEB8_
FNDA:278,_RINvMs2_NtCs6qhVEmoZJ2z_10async_nats6headerNtB6_9HeaderMap3getReEB8_
FNDA:1419,_RINvMs2_NtCs6qhVEmoZJ2z_10async_nats6headerNtB6_9HeaderMap6appendNtB6_10HeaderNameNtB6_11HeaderValueEB8_
FNDA:1474,_RINvMs2_NtCs6qhVEmoZJ2z_10async_nats6headerNtB6_9HeaderMap6insertNtB6_10HeaderNameNtB6_11HeaderValueEB8_
FNDA:1,_RINvMs2_NtCs6qhVEmoZJ2z_10async_nats6headerNtB6_9HeaderMap6insertNtB6_10HeaderNameNtNtCs1AhsD0INetT_5alloc6string6StringEB8_
FNDA:104,_RINvMs2_NtCs6qhVEmoZJ2z_10async_nats6headerNtB6_9HeaderMap8get_lastNtB6_10HeaderNameEB8_
FNDA:2,_RINvXsz_NtCs6qhVEmoZJ2z_10async_nats6headerNtB6_10HeaderNameNtNtCs6INkh2lCEoF_5serde2de11Deserialize11deserializeINtNtCs3hMvov8GLbn_10serde_json2de6MapKeyNtNtB1S_4read9SliceReadEEB8_
FNDA:6,_RNCINvMs2_NtCs6qhVEmoZJ2z_10async_nats6headerNtB8_9HeaderMap3getNtB8_10HeaderNameE0Ba_
FNDA:251,_RNCINvMs2_NtCs6qhVEmoZJ2z_10async_nats6headerNtB8_9HeaderMap3getReE0Ba_
FNDA:100,_RNCINvMs2_NtCs6qhVEmoZJ2z_10async_nats6headerNtB8_9HeaderMap8get_lastNtB8_10HeaderNameE0Ba_
FNDA:23361,_RNCNvXsu_NtCs6qhVEmoZJ2z_10async_nats6headerNtB7_10HeaderNameNtNtNtCs2CqrNpCrSUr_4core3str6traits7FromStr8from_str0B9_
FNDA:0,_RNvXsl_NtCs6qhVEmoZJ2z_10async_nats6headerNtNtCs1AhsD0INetT_5alloc6string6StringNtB5_14IntoHeaderName16into_header_name
FNDA:1420,_RNvXso_NtCs6qhVEmoZJ2z_10async_nats6headerNtNtCs1AhsD0INetT_5alloc6string6StringNtB5_15IntoHeaderValue17into_header_value
FNDA:3,_RNvMs1_NtCs6qhVEmoZJ2z_10async_nats6headerNtB5_9HeaderMap3len
FNDA:663,_RNvMs1_NtCs6qhVEmoZJ2z_10async_nats6headerNtB5_9HeaderMap3new
FNDA:202,_RNvMs1_NtCs6qhVEmoZJ2z_10async_nats6headerNtB5_9HeaderMap8is_empty
FNDA:83,_RNvMs2_NtCs6qhVEmoZJ2z_10async_nats6headerNtB5_9HeaderMap8to_bytes
FNDA:1463,_RNvMsQ_NtCs6qhVEmoZJ2z_10async_nats6headerNtB5_14StandardHeader10from_bytes
FNDA:27,_RNvMsQ_NtCs6qhVEmoZJ2z_10async_nats6headerNtB5_14StandardHeader6as_strB7_
FNDA:0,_RNvMs_NtCs6qhVEmoZJ2z_10async_nats6headerNtB4_9HeaderMap4iter
FNDA:0,_RNvMsh_NtCs6qhVEmoZJ2z_10async_nats6headerNtB5_11HeaderValue3new
FNDA:357,_RNvMsh_NtCs6qhVEmoZJ2z_10async_nats6headerNtB5_11HeaderValue6as_str
FNDA:71,_RNvMsq_NtCs6qhVEmoZJ2z_10async_nats6headerNtB5_12CustomHeader6as_strB7_
FNDA:98,_RNvMst_NtCs6qhVEmoZJ2z_10async_nats6headerNtB5_10HeaderName6as_strB7_
FNDA:1,_RNvXs3_NtCs6qhVEmoZJ2z_10async_nats6headerNtB5_11HeaderValueNtNtCs2CqrNpCrSUr_4core3fmt7Display3fmt
FNDA:0,_RNvXs4_NtCs6qhVEmoZJ2z_10async_nats6headerNtB5_11HeaderValueINtNtCs2CqrNpCrSUr_4core7convert5AsRefShE6as_ref
FNDA:0,_RNvXs5_NtCs6qhVEmoZJ2z_10async_nats6headerNtB5_11HeaderValueINtNtCs2CqrNpCrSUr_4core7convert5AsRefeE6as_ref
FNDA:0,_RNvXs6_NtCs6qhVEmoZJ2z_10async_nats6headerNtB5_11HeaderValueINtNtCs2CqrNpCrSUr_4core7convert4FromsE4from
FNDA:0,_RNvXs7_NtCs6qhVEmoZJ2z_10async_nats6headerNtB5_11HeaderValueINtNtCs2CqrNpCrSUr_4core7convert4FromlE4from
FNDA:0,_RNvXs8_NtCs6qhVEmoZJ2z_10async_nats6headerNtB5_11HeaderValueINtNtCs2CqrNpCrSUr_4core7convert4FromxE4from
FNDA:0,_RNvXs9_NtCs6qhVEmoZJ2z_10async_nats6headerNtB5_11HeaderValueINtNtCs2CqrNpCrSUr_4core7convert4FromiE4from
FNDA:0,_RNvXsA_NtCs6qhVEmoZJ2z_10async_nats6headerNtB5_20ParseHeaderNameErrorNtNtCs2CqrNpCrSUr_4core3fmt7Display3fmt
FNDA:0,_RNvXsa_NtCs6qhVEmoZJ2z_10async_nats6headerNtB5_11HeaderValueINtNtCs2CqrNpCrSUr_4core7convert4FromtE4from
FNDA:0,_RNvXsb_NtCs6qhVEmoZJ2z_10async_nats6headerNtB5_11HeaderValueINtNtCs2CqrNpCrSUr_4core7convert4FrommE4from
FNDA:20,_RNvXsc_NtCs6qhVEmoZJ2z_10async_nats6headerNtB5_11HeaderValueINtNtCs2CqrNpCrSUr_4core7convert4FromyE4from
FNDA:0,_RNvXsd_NtCs6qhVEmoZJ2z_10async_nats6headerNtB5_11HeaderValueINtNtCs2CqrNpCrSUr_4core7convert4FromjE4from
FNDA:96,_RNvXse_NtCs6qhVEmoZJ2z_10async_nats6headerNtB5_11HeaderValueNtNtNtCs2CqrNpCrSUr_4core3str6traits7FromStr8from_str
FNDA:15,_RNvXsf_NtCs6qhVEmoZJ2z_10async_nats6headerNtB5_11HeaderValueINtNtCs2CqrNpCrSUr_4core7convert4FromReE4from
FNDA:0,_RNvXsg_NtCs6qhVEmoZJ2z_10async_nats6headerNtB5_11HeaderValueINtNtCs2CqrNpCrSUr_4core7convert4FromNtNtCs1AhsD0INetT_5alloc6string6StringE4from
FNDA:0,_RNvXsi_NtCs6qhVEmoZJ2z_10async_nats6headerNtB5_21ParseHeaderValueErrorNtNtCs2CqrNpCrSUr_4core3fmt7Display3fmt
FNDA:350,_RNvXsk_NtCs6qhVEmoZJ2z_10async_nats6headerReNtB5_14IntoHeaderName16into_header_name
FNDA:3029,_RNvXsm_NtCs6qhVEmoZJ2z_10async_nats6headerNtB5_10HeaderNameNtB5_14IntoHeaderName16into_header_name
FNDA:9,_RNvXsn_NtCs6qhVEmoZJ2z_10async_nats6headerReNtB5_15IntoHeaderValue17into_header_value
FNDA:2961,_RNvXsp_NtCs6qhVEmoZJ2z_10async_nats6headerNtB5_11HeaderValueNtB5_15IntoHeaderValue17into_header_value
FNDA:0,_RNvXsr_NtCs6qhVEmoZJ2z_10async_nats6headerNtB5_12CustomHeaderINtNtCs2CqrNpCrSUr_4core7convert4FromNtNtCs1AhsD0INetT_5alloc6string6StringE4fromB7_
FNDA:886,_RNvXss_NtCs6qhVEmoZJ2z_10async_nats6headerNtB5_12CustomHeaderINtNtCs2CqrNpCrSUr_4core7convert4FromReE4fromB7_
FNDA:1463,_RNvXsu_NtCs6qhVEmoZJ2z_10async_nats6headerNtB5_10HeaderNameNtNtNtCs2CqrNpCrSUr_4core3str6traits7FromStr8from_str
FNDA:0,_RNvXsv_NtCs6qhVEmoZJ2z_10async_nats6headerNtB5_10HeaderNameNtNtCs2CqrNpCrSUr_4core3fmt7Display3fmt
FNDA:0,_RNvXsw_NtCs6qhVEmoZJ2z_10async_nats6headerNtB5_10HeaderNameINtNtCs2CqrNpCrSUr_4core7convert5AsRefShE6as_ref
FNDA:0,_RNvXsx_NtCs6qhVEmoZJ2z_10async_nats6headerNtB5_10HeaderNameINtNtCs2CqrNpCrSUr_4core7convert5AsRefeE6as_ref
FNDA:5,_RINvMs2_NtCs6qhVEmoZJ2z_10async_nats6headerNtB6_9HeaderMap6insertNtB6_10HeaderNameReECsbhX8fe0itkR_15jetstream_tests
FNDA:19,_RINvMs2_NtCs6qhVEmoZJ2z_10async_nats6headerNtB6_9HeaderMap6insertReNtB6_11HeaderValueECs98b7hshCa6M_8kv_tests
FNDA:1,_RINvMs2_NtCs6qhVEmoZJ2z_10async_nats6headerNtB6_9HeaderMap6appendReB11_ECsesyn6ELQ2kp_12object_store
FNDA:47,_RINvMs2_NtCs6qhVEmoZJ2z_10async_nats6headerNtB6_9HeaderMap6insertReNtB6_11HeaderValueECsesyn6ELQ2kp_12object_store
FNDA:1,_RINvXsy_NtCs6qhVEmoZJ2z_10async_nats6headerNtB6_10HeaderNameNtNtCs6INkh2lCEoF_5serde3ser9Serialize9serializeINtNtCs3hMvov8GLbn_10serde_json3ser16MapKeySerializerQINtNtCs1AhsD0INetT_5alloc3vec3VechENtB1L_16CompactFormatterEECsesyn6ELQ2kp_12object_store
FNDA:0,_RNvMsQ_NtCs6qhVEmoZJ2z_10async_nats6headerNtB5_14StandardHeader6as_strCsesyn6ELQ2kp_12object_store
FNDA:1,_RNvMsq_NtCs6qhVEmoZJ2z_10async_nats6headerNtB5_12CustomHeader6as_strCsesyn6ELQ2kp_12object_store
FNDA:1,_RNvMst_NtCs6qhVEmoZJ2z_10async_nats6headerNtB5_10HeaderName6as_strCsesyn6ELQ2kp_12object_store
FNDA:2,_RINvMs2_NtCs6qhVEmoZJ2z_10async_nats6headerNtB6_9HeaderMap6insertReB11_ECscGYhHI872CP_13service_tests
FNF:71
FNH:55
DA:53,3
DA:54,3
DA:55,6
DA:56,3
DA:57,3
DA:58,3
DA:59,3
DA:63,0
DA:64,0
DA:65,0
DA:75,5
DA:76,5
DA:77,5
DA:91,676
DA:92,676
DA:93,676
DA:110,206
DA:111,206
DA:112,206
DA:114,3
DA:115,3
DA:116,3
DA:130,1564
DA:131,1564
DA:132,1564
DA:133,1564
DA:146,1431
DA:147,1431
DA:148,1431
DA:149,1431
DA:150,14
DA:151,14
DA:152,14
DA:153,1417
DA:154,1417
DA:155,1417
DA:157,1431
DA:170,308
DA:171,308
DA:172,308
DA:173,308
DA:174,308
DA:187,105
DA:188,105
DA:189,105
DA:190,105
DA:191,105
DA:207,2
DA:208,2
DA:209,2
DA:210,2
DA:211,2
DA:212,2
DA:214,2
DA:215,2
DA:217,85
DA:218,85
DA:219,85
DA:220,185
DA:221,102
DA:222,102
DA:223,102
DA:224,102
DA:225,102
DA:226,102
DA:228,85
DA:229,85
DA:230,85
DA:250,2
DA:251,2
DA:252,2
DA:256,0
DA:257,0
DA:258,0
DA:262,0
DA:263,0
DA:264,0
DA:268,0
DA:269,0
DA:270,0
DA:271,0
DA:272,0
DA:276,0
DA:277,0
DA:278,0
DA:279,0
DA:280,0
DA:284,0
DA:285,0
DA:286,0
DA:287,0
DA:288,0
DA:292,0
DA:293,0
DA:294,0
DA:295,0
DA:296,0
DA:300,0
DA:301,0
DA:302,0
DA:303,0
DA:304,0
DA:308,0
DA:309,0
DA:310,0
DA:311,0
DA:312,0
DA:316,20
DA:317,20
DA:318,20
DA:319,20
DA:320,20
DA:324,0
DA:325,0
DA:326,0
DA:327,0
DA:328,0
DA:334,106
DA:335,106
DA:336,3
DA:337,103
DA:339,103
DA:340,103
DA:341,103
DA:342,106
DA:346,15
DA:347,15
DA:348,15
DA:349,15
DA:350,15
DA:354,1
DA:355,1
DA:356,1
DA:360,0
DA:361,0
DA:362,0
DA:364,364
DA:365,364
DA:366,364
DA:373,0
DA:374,0
DA:375,0
DA:376,0
DA:378,0
DA:388,370
DA:389,370
DA:390,370
DA:391,370
DA:392,370
DA:396,1
DA:397,1
DA:398,1
DA:399,1
DA:400,1
DA:404,3040
DA:405,3040
DA:406,3040
DA:414,21
DA:415,21
DA:416,21
DA:417,21
DA:418,21
DA:422,1423
DA:423,1423
DA:424,1423
DA:428,2973
DA:429,2973
DA:430,2973
DA:457,28
DA:458,28
DA:460,1
DA:463,28
DA:465,1488
DA:466,1488
DA:468,4
DA:470,545
DA:472,1488
DA:487,1
DA:488,15
DA:489,14
DA:490,14
DA:492,1
DA:536,2
DA:537,2
DA:538,2
DA:539,2
DA:540,2
DA:543,77
DA:544,77
DA:545,77
DA:550,1
DA:551,1
DA:552,1
DA:553,1
DA:554,1
DA:559,913
DA:560,913
DA:561,913
DA:562,913
DA:563,913
DA:589,3
DA:590,3
DA:591,1
DA:592,1
DA:593,1
DA:594,2
DA:596,2
DA:597,2
DA:598,2
DA:599,3
DA:603,105
DA:604,105
DA:605,28
DA:606,77
DA:608,105
DA:614,1487
DA:615,23691
DA:616,2
DA:617,1485
DA:619,1485
DA:620,942
DA:621,942
DA:622,942
DA:623,543
DA:624,543
DA:625,543
DA:627,1487
DA:631,0
DA:632,0
DA:633,0
DA:637,0
DA:638,0
DA:639,0
DA:643,0
DA:644,0
DA:645,0
DA:649,2
DA:650,2
DA:651,2
DA:653,2
DA:654,2
DA:658,3
DA:659,3
DA:660,3
DA:662,3
DA:663,3
DA:664,3
DA:665,3
DA:672,0
DA:673,0
DA:674,0
DA:685,1
DA:686,1
DA:687,1
DA:688,1
DA:689,1
DA:692,1
DA:693,1
DA:694,1
DA:695,1
DA:697,1
DA:699,1
DA:700,1
DA:701,1
DA:704,1
DA:705,1
DA:706,1
DA:709,1
DA:710,1
DA:713,1
DA:714,1
DA:715,1
DA:716,1
DA:718,1
DA:720,1
DA:721,1
DA:723,1
DA:724,1
DA:726,1
DA:728,1
DA:729,1
DA:730,1
DA:733,1
DA:734,1
DA:735,1
DA:737,1
DA:739,1
DA:740,1
DA:741,1
DA:743,1
DA:744,1
DA:747,1
DA:748,1
DA:749,1
DA:750,1
DA:751,1
DA:753,1
DA:755,1
DA:756,1
DA:759,1
DA:760,1
DA:761,1
DA:763,1
DA:764,1
DA:765,1
DA:766,1
DA:767,1
DA:770,1
DA:771,1
DA:772,1
DA:773,1
DA:774,1
DA:777,1
DA:778,1
DA:779,1
DA:781,1
DA:782,1
DA:783,0
DA:784,0
DA:786,1
DA:789,1
DA:790,1
DA:791,1
DA:793,1
DA:794,1
DA:795,0
DA:796,0
DA:798,1
DA:801,1
DA:802,1
DA:803,1
DA:805,1
DA:806,1
DA:807,0
DA:808,0
DA:810,1
DA:813,1
DA:814,1
DA:815,1
DA:817,1
DA:818,1
DA:819,0
DA:820,0
DA:822,1
DA:825,1
DA:826,1
DA:827,1
DA:829,1
DA:830,1
DA:833,1
DA:834,1
DA:835,1
DA:836,1
DA:839,1
DA:840,1
DA:841,1
DA:844,1
DA:847,1
DA:848,1
DA:849,1
DA:851,1
DA:852,1
DA:855,1
DA:856,1
DA:858,1
DA:860,1
DA:861,1
DA:864,1
DA:865,1
DA:867,1
DA:869,1
DA:870,1
BRF:0
BRH:0
LF:376
LH:304
end_of_record
SF:/Users/tomaszpietrek/coding/nats.rs/async-nats/src/jetstream/account.rs
FN:17,_RINvNtNtCs1hbFQVFAImq_10async_nats9jetstream7account16negative_as_nonepEB6_
FN:17,_RINvNtNtCs6qhVEmoZJ2z_10async_nats9jetstream7account16negative_as_nonepEB6_
FN:17,_RINvNtNtCs6qhVEmoZJ2z_10async_nats9jetstream7account16negative_as_noneINtNtNtNtCs6INkh2lCEoF_5serde9___private2de7content22ContentRefDeserializerNtNtCs3hMvov8GLbn_10serde_json5error5ErrorEECsbhX8fe0itkR_15jetstream_tests
FN:17,_RINvNtNtCs6qhVEmoZJ2z_10async_nats9jetstream7account16negative_as_noneINtNtNtNtCs6INkh2lCEoF_5serde9___private2de7content22ContentRefDeserializerNtNtCs3hMvov8GLbn_10serde_json5error5ErrorEECs98b7hshCa6M_8kv_tests
FNDA:0,_RINvNtNtCs1hbFQVFAImq_10async_nats9jetstream7account16negative_as_nonepEB6_
FNDA:0,_RINvNtNtCs6qhVEmoZJ2z_10async_nats9jetstream7account16negative_as_nonepEB6_
FNDA:10,_RINvNtNtCs6qhVEmoZJ2z_10async_nats9jetstream7account16negative_as_noneINtNtNtNtCs6INkh2lCEoF_5serde9___private2de7content22ContentRefDeserializerNtNtCs3hMvov8GLbn_10serde_json5error5ErrorEECsbhX8fe0itkR_15jetstream_tests
FNDA:165,_RINvNtNtCs6qhVEmoZJ2z_10async_nats9jetstream7account16negative_as_noneINtNtNtNtCs6INkh2lCEoF_5serde9___private2de7content22ContentRefDeserializerNtNtCs3hMvov8GLbn_10serde_json5error5ErrorEECs98b7hshCa6M_8kv_tests
FNF:1
FNH:1
DA:17,175
DA:18,175
DA:19,175
DA:21,175
DA:22,175
DA:23,175
DA:25,0
DA:27,175
BRF:0
BRH:0
LF:8
LH:7
end_of_record
SF:/Users/tomaszpietrek/coding/nats.rs/async-nats/src/jetstream/consumer/mod.rs
FN:498,_RINvNtNtCs1hbFQVFAImq_10async_nats9jetstream8consumer10is_defaultpEB6_
FN:549,_RINvNtNtCs1hbFQVFAImq_10async_nats9jetstream8consumer7backoffpEB6_
FN:503,_RINvNtNtNtCs1hbFQVFAImq_10async_nats9jetstream8consumer17sample_freq_deser11deserializeppEB8_
FN:523,_RINvNtNtNtCs1hbFQVFAImq_10async_nats9jetstream8consumer17sample_freq_deser9serializeppEB8_
FN:80,_RNCNvMs_NtNtCs1hbFQVFAImq_10async_nats9jetstream8consumerINtB6_8ConsumerpE4info0Ba_
FN:107,_RNCNvMs_NtNtCs1hbFQVFAImq_10async_nats9jetstream8consumerINtB6_8ConsumerpE8get_info0Ba_
FN:49,_RNvMNtNtCs1hbFQVFAImq_10async_nats9jetstream8consumerINtB2_8ConsumerpE3newB6_
FN:138,_RNvMs_NtNtCs1hbFQVFAImq_10async_nats9jetstream8consumerINtB4_8ConsumerpE11cached_infoB8_
FN:80,_RNvMs_NtNtCs1hbFQVFAImq_10async_nats9jetstream8consumerINtB4_8ConsumerpE4infoB8_
FN:107,_RNvMs_NtNtCs1hbFQVFAImq_10async_nats9jetstream8consumerINtB4_8ConsumerpE8get_infoB8_
FN:393,_RNvXs0_NtNtCs1hbFQVFAImq_10async_nats9jetstream8consumerNtB5_6ConfigINtNtCs2CqrNpCrSUr_4core7convert4FromRBS_E4from
FN:399,_RNvXs1_NtNtCs1hbFQVFAImq_10async_nats9jetstream8consumerNtB5_6ConfigINtNtCs2CqrNpCrSUr_4core7convert4FromReE4from
FN:408,_RNvXs2_NtNtCs1hbFQVFAImq_10async_nats9jetstream8consumerNtB5_6ConfigNtB5_18IntoConsumerConfig20into_consumer_config
FN:413,_RNvXs3_NtNtCs1hbFQVFAImq_10async_nats9jetstream8consumerRNtB5_6ConfigNtB5_18IntoConsumerConfig20into_consumer_config
FN:419,_RNvXs4_NtNtCs1hbFQVFAImq_10async_nats9jetstream8consumerNtB5_6ConfigNtB5_12FromConsumer24try_from_consumer_config
FN:539,_RNvXs5_NtNtCs1hbFQVFAImq_10async_nats9jetstream8consumerNtB5_15StreamErrorKindNtNtCs2CqrNpCrSUr_4core3fmt7Display3fmt
FN:80,_RNCNvMs_NtNtCs6qhVEmoZJ2z_10async_nats9jetstream8consumerINtB6_8ConsumerpE4info0Ba_
FN:138,_RNvMs_NtNtCs6qhVEmoZJ2z_10async_nats9jetstream8consumerINtB4_8ConsumerpE11cached_infoB8_
FN:80,_RNvMs_NtNtCs6qhVEmoZJ2z_10async_nats9jetstream8consumerINtB4_8ConsumerpE4infoB8_
FN:393,_RNvXs0_NtNtCs6qhVEmoZJ2z_10async_nats9jetstream8consumerNtB5_6ConfigINtNtCs2CqrNpCrSUr_4core7convert4FromRBS_E4from
FN:399,_RNvXs1_NtNtCs6qhVEmoZJ2z_10async_nats9jetstream8consumerNtB5_6ConfigINtNtCs2CqrNpCrSUr_4core7convert4FromReE4from
FN:408,_RNvXs2_NtNtCs6qhVEmoZJ2z_10async_nats9jetstream8consumerNtB5_6ConfigNtB5_18IntoConsumerConfig20into_consumer_config
FN:413,_RNvXs3_NtNtCs6qhVEmoZJ2z_10async_nats9jetstream8consumerRNtB5_6ConfigNtB5_18IntoConsumerConfig20into_consumer_config
FN:419,_RNvXs4_NtNtCs6qhVEmoZJ2z_10async_nats9jetstream8consumerNtB5_6ConfigNtB5_12FromConsumer24try_from_consumer_config
FN:539,_RNvXs5_NtNtCs6qhVEmoZJ2z_10async_nats9jetstream8consumerNtB5_15StreamErrorKindNtNtCs2CqrNpCrSUr_4core3fmt7Display3fmt
FN:503,_RINvNtNtNtCs6qhVEmoZJ2z_10async_nats9jetstream8consumer17sample_freq_deser11deserializehINtNtNtNtCs6INkh2lCEoF_5serde9___private2de7content22ContentRefDeserializerNtNtCs3hMvov8GLbn_10serde_json5error5ErrorEEB8_
FN:523,_RINvNtNtNtCs6qhVEmoZJ2z_10async_nats9jetstream8consumer17sample_freq_deser9serializehNtNtNtCs3hMvov8GLbn_10serde_json5value3ser10SerializerEB8_
FN:498,_RINvNtNtCs6qhVEmoZJ2z_10async_nats9jetstream8consumer10is_defaultINtNtCs1AhsD0INetT_5alloc3vec3VecNtNtB16_6string6StringEEB6_
FN:498,_RINvNtNtCs6qhVEmoZJ2z_10async_nats9jetstream8consumer10is_defaultINtNtCs1AhsD0INetT_5alloc3vec3VecNtNtCs2CqrNpCrSUr_4core4time8DurationEEB6_
FN:498,_RINvNtNtCs6qhVEmoZJ2z_10async_nats9jetstream8consumer10is_defaultINtNtNtNtCs4N3M0UGf3SB_3std11collections4hash3map7HashMapNtNtCs1AhsD0INetT_5alloc6string6StringB1W_EEB6_
FN:498,_RINvNtNtCs6qhVEmoZJ2z_10async_nats9jetstream8consumer10is_defaultNtB2_14PriorityPolicyEB6_
FN:498,_RINvNtNtCs6qhVEmoZJ2z_10async_nats9jetstream8consumer10is_defaultNtNtCs1AhsD0INetT_5alloc6string6StringEB6_
FN:498,_RINvNtNtCs6qhVEmoZJ2z_10async_nats9jetstream8consumer10is_defaultNtNtCs2CqrNpCrSUr_4core4time8DurationEB6_
FN:498,_RINvNtNtCs6qhVEmoZJ2z_10async_nats9jetstream8consumer10is_defaultbEB6_
FN:498,_RINvNtNtCs6qhVEmoZJ2z_10async_nats9jetstream8consumer10is_defaulthEB6_
FN:498,_RINvNtNtCs6qhVEmoZJ2z_10async_nats9jetstream8consumer10is_defaultjEB6_
FN:498,_RINvNtNtCs6qhVEmoZJ2z_10async_nats9jetstream8consumer10is_defaultxEB6_
FN:498,_RINvNtNtCs6qhVEmoZJ2z_10async_nats9jetstream8consumer10is_defaultyEB6_
FN:549,_RINvNtNtCs6qhVEmoZJ2z_10async_nats9jetstream8consumer7backoffINtNtB6_5error5ErrorNtNtB2_4pull25ConsumerRecreateErrorKindEEB6_
FN:549,_RINvNtNtCs6qhVEmoZJ2z_10async_nats9jetstream8consumer7backoffINtNtB6_5error5ErrorNtNtB2_4push25ConsumerRecreateErrorKindEEB6_
FN:549,_RINvNtNtCs6qhVEmoZJ2z_10async_nats9jetstream8consumer7backoffINtNtB6_5error5ErrorNtNtB4_7context21ConsumerInfoErrorKindEEB6_
FN:107,_RNCNvMs_NtNtCs6qhVEmoZJ2z_10async_nats9jetstream8consumerINtB6_8ConsumerNtNtB6_4pull6ConfigE8get_info0Ba_
FN:49,_RNvMNtNtCs6qhVEmoZJ2z_10async_nats9jetstream8consumerINtB2_8ConsumerNtNtB2_4pull13OrderedConfigE3newB6_
FN:49,_RNvMNtNtCs6qhVEmoZJ2z_10async_nats9jetstream8consumerINtB2_8ConsumerNtNtB2_4push13OrderedConfigE3newB6_
FN:107,_RNvMs_NtNtCs6qhVEmoZJ2z_10async_nats9jetstream8consumerINtB4_8ConsumerNtNtB4_4pull6ConfigE8get_infoB8_
FN:80,_RNCNvMs_NtNtCs6qhVEmoZJ2z_10async_nats9jetstream8consumerINtB6_8ConsumerNtB6_6ConfigE4info0CsbhX8fe0itkR_15jetstream_tests
FN:107,_RNCNvMs_NtNtCs6qhVEmoZJ2z_10async_nats9jetstream8consumerINtB6_8ConsumerNtB6_6ConfigE8get_info0CsbhX8fe0itkR_15jetstream_tests
FN:80,_RNCNvMs_NtNtCs6qhVEmoZJ2z_10async_nats9jetstream8consumerINtB6_8ConsumerNtNtB6_4pull6ConfigE4info0CsbhX8fe0itkR_15jetstream_tests
FN:49,_RNvMNtNtCs6qhVEmoZJ2z_10async_nats9jetstream8consumerINtB2_8ConsumerNtB2_6ConfigE3newCsbhX8fe0itkR_15jetstream_tests
FN:49,_RNvMNtNtCs6qhVEmoZJ2z_10async_nats9jetstream8consumerINtB2_8ConsumerNtNtB2_4pull6ConfigE3newCsbhX8fe0itkR_15jetstream_tests
FN:49,_RNvMNtNtCs6qhVEmoZJ2z_10async_nats9jetstream8consumerINtB2_8ConsumerNtNtB2_4push6ConfigE3newCsbhX8fe0itkR_15jetstream_tests
FN:80,_RNvMs_NtNtCs6qhVEmoZJ2z_10async_nats9jetstream8consumerINtB4_8ConsumerNtB4_6ConfigE4infoCsbhX8fe0itkR_15jetstream_tests
FN:107,_RNvMs_NtNtCs6qhVEmoZJ2z_10async_nats9jetstream8consumerINtB4_8ConsumerNtB4_6ConfigE8get_infoCsbhX8fe0itkR_15jetstream_tests
FN:138,_RNvMs_NtNtCs6qhVEmoZJ2z_10async_nats9jetstream8consumerINtB4_8ConsumerNtNtB4_4pull6ConfigE11cached_infoCsbhX8fe0itkR_15jetstream_tests
FN:80,_RNvMs_NtNtCs6qhVEmoZJ2z_10async_nats9jetstream8consumerINtB4_8ConsumerNtNtB4_4pull6ConfigE4infoCsbhX8fe0itkR_15jetstream_tests
FN:138,_RNvMs_NtNtCs6qhVEmoZJ2z_10async_nats9jetstream8consumerINtB4_8ConsumerNtNtB4_4push6ConfigE11cached_infoCsbhX8fe0itkR_15jetstream_tests
FN:138,_RNvMs_NtNtCs6qhVEmoZJ2z_10async_nats9jetstream8consumerINtB4_8ConsumerNtNtB4_4push13OrderedConfigE11cached_infoCs98b7hshCa6M_8kv_tests
FNDA:0,_RINvNtNtCs1hbFQVFAImq_10async_nats9jetstream8consumer10is_defaultpEB6_
FNDA:0,_RINvNtNtCs1hbFQVFAImq_10async_nats9jetstream8consumer7backoffpEB6_
FNDA:0,_RINvNtNtNtCs1hbFQVFAImq_10async_nats9jetstream8consumer17sample_freq_deser11deserializeppEB8_
FNDA:0,_RINvNtNtNtCs1hbFQVFAImq_10async_nats9jetstream8consumer17sample_freq_deser9serializeppEB8_
FNDA:0,_RNCNvMs_NtNtCs1hbFQVFAImq_10async_nats9jetstream8consumerINtB6_8ConsumerpE4info0Ba_
FNDA:0,_RNCNvMs_NtNtCs1hbFQVFAImq_10async_nats9jetstream8consumerINtB6_8ConsumerpE8get_info0Ba_
FNDA:0,_RNvMNtNtCs1hbFQVFAImq_10async_nats9jetstream8consumerINtB2_8ConsumerpE3newB6_
FNDA:0,_RNvMs_NtNtCs1hbFQVFAImq_10async_nats9jetstream8consumerINtB4_8ConsumerpE11cached_infoB8_
FNDA:0,_RNvMs_NtNtCs1hbFQVFAImq_10async_nats9jetstream8consumerINtB4_8ConsumerpE4infoB8_
FNDA:0,_RNvMs_NtNtCs1hbFQVFAImq_10async_nats9jetstream8consumerINtB4_8ConsumerpE8get_infoB8_
FNDA:0,_RNvXs0_NtNtCs1hbFQVFAImq_10async_nats9jetstream8consumerNtB5_6ConfigINtNtCs2CqrNpCrSUr_4core7convert4FromRBS_E4from
FNDA:0,_RNvXs1_NtNtCs1hbFQVFAImq_10async_nats9jetstream8consumerNtB5_6ConfigINtNtCs2CqrNpCrSUr_4core7convert4FromReE4from
FNDA:0,_RNvXs2_NtNtCs1hbFQVFAImq_10async_nats9jetstream8consumerNtB5_6ConfigNtB5_18IntoConsumerConfig20into_consumer_config
FNDA:0,_RNvXs3_NtNtCs1hbFQVFAImq_10async_nats9jetstream8consumerRNtB5_6ConfigNtB5_18IntoConsumerConfig20into_consumer_config
FNDA:0,_RNvXs4_NtNtCs1hbFQVFAImq_10async_nats9jetstream8consumerNtB5_6ConfigNtB5_12FromConsumer24try_from_consumer_config
FNDA:0,_RNvXs5_NtNtCs1hbFQVFAImq_10async_nats9jetstream8consumerNtB5_15StreamErrorKindNtNtCs2CqrNpCrSUr_4core3fmt7Display3fmt
FNDA:0,_RNCNvMs_NtNtCs6qhVEmoZJ2z_10async_nats9jetstream8consumerINtB6_8ConsumerpE4info0Ba_
FNDA:0,_RNvMs_NtNtCs6qhVEmoZJ2z_10async_nats9jetstream8consumerINtB4_8ConsumerpE11cached_infoB8_
FNDA:0,_RNvMs_NtNtCs6qhVEmoZJ2z_10async_nats9jetstream8consumerINtB4_8ConsumerpE4infoB8_
FNDA:0,_RNvXs0_NtNtCs6qhVEmoZJ2z_10async_nats9jetstream8consumerNtB5_6ConfigINtNtCs2CqrNpCrSUr_4core7convert4FromRBS_E4from
FNDA:0,_RNvXs1_NtNtCs6qhVEmoZJ2z_10async_nats9jetstream8consumerNtB5_6ConfigINtNtCs2CqrNpCrSUr_4core7convert4FromReE4from
FNDA:3,_RNvXs2_NtNtCs6qhVEmoZJ2z_10async_nats9jetstream8consumerNtB5_6ConfigNtB5_18IntoConsumerConfig20into_consumer_config
FNDA:0,_RNvXs3_NtNtCs6qhVEmoZJ2z_10async_nats9jetstream8consumerRNtB5_6ConfigNtB5_18IntoConsumerConfig20into_consumer_config
FNDA:3,_RNvXs4_NtNtCs6qhVEmoZJ2z_10async_nats9jetstream8consumerNtB5_6ConfigNtB5_12FromConsumer24try_from_consumer_config
FNDA:0,_RNvXs5_NtNtCs6qhVEmoZJ2z_10async_nats9jetstream8consumerNtB5_15StreamErrorKindNtNtCs2CqrNpCrSUr_4core3fmt7Display3fmt
FNDA:3,_RINvNtNtNtCs6qhVEmoZJ2z_10async_nats9jetstream8consumer17sample_freq_deser11deserializehINtNtNtNtCs6INkh2lCEoF_5serde9___private2de7content22ContentRefDeserializerNtNtCs3hMvov8GLbn_10serde_json5error5ErrorEEB8_
FNDA:2,_RINvNtNtNtCs6qhVEmoZJ2z_10async_nats9jetstream8consumer17sample_freq_deser9serializehNtNtNtCs3hMvov8GLbn_10serde_json5value3ser10SerializerEB8_
FNDA:3090,_RINvNtNtCs6qhVEmoZJ2z_10async_nats9jetstream8consumer10is_defaultINtNtCs1AhsD0INetT_5alloc3vec3VecNtNtB16_6string6StringEEB6_
FNDA:1545,_RINvNtNtCs6qhVEmoZJ2z_10async_nats9jetstream8consumer10is_defaultINtNtCs1AhsD0INetT_5alloc3vec3VecNtNtCs2CqrNpCrSUr_4core4time8DurationEEB6_
FNDA:1545,_RINvNtNtCs6qhVEmoZJ2z_10async_nats9jetstream8consumer10is_defaultINtNtNtNtCs4N3M0UGf3SB_3std11collections4hash3map7HashMapNtNtCs1AhsD0INetT_5alloc6string6StringB1W_EEB6_
FNDA:1545,_RINvNtNtCs6qhVEmoZJ2z_10async_nats9jetstream8consumer10is_defaultNtB2_14PriorityPolicyEB6_
FNDA:1545,_RINvNtNtCs6qhVEmoZJ2z_10async_nats9jetstream8consumer10is_defaultNtNtCs1AhsD0INetT_5alloc6string6StringEB6_
FNDA:6180,_RINvNtNtCs6qhVEmoZJ2z_10async_nats9jetstream8consumer10is_defaultNtNtCs2CqrNpCrSUr_4core4time8DurationEB6_
FNDA:4635,_RINvNtNtCs6qhVEmoZJ2z_10async_nats9jetstream8consumer10is_defaultbEB6_
FNDA:1545,_RINvNtNtCs6qhVEmoZJ2z_10async_nats9jetstream8consumer10is_defaulthEB6_
FNDA:1545,_RINvNtNtCs6qhVEmoZJ2z_10async_nats9jetstream8consumer10is_defaultjEB6_
FNDA:7725,_RINvNtNtCs6qhVEmoZJ2z_10async_nats9jetstream8consumer10is_defaultxEB6_
FNDA:1545,_RINvNtNtCs6qhVEmoZJ2z_10async_nats9jetstream8consumer10is_defaultyEB6_
FNDA:0,_RINvNtNtCs6qhVEmoZJ2z_10async_nats9jetstream8consumer7backoffINtNtB6_5error5ErrorNtNtB2_4pull25ConsumerRecreateErrorKindEEB6_
FNDA:0,_RINvNtNtCs6qhVEmoZJ2z_10async_nats9jetstream8consumer7backoffINtNtB6_5error5ErrorNtNtB2_4push25ConsumerRecreateErrorKindEEB6_
FNDA:0,_RINvNtNtCs6qhVEmoZJ2z_10async_nats9jetstream8consumer7backoffINtNtB6_5error5ErrorNtNtB4_7context21ConsumerInfoErrorKindEEB6_
FNDA:17,_RNCNvMs_NtNtCs6qhVEmoZJ2z_10async_nats9jetstream8consumerINtB6_8ConsumerNtNtB6_4pull6ConfigE8get_info0Ba_
FNDA:1,_RNvMNtNtCs6qhVEmoZJ2z_10async_nats9jetstream8consumerINtB2_8ConsumerNtNtB2_4pull13OrderedConfigE3newB6_
FNDA:44,_RNvMNtNtCs6qhVEmoZJ2z_10async_nats9jetstream8consumerINtB2_8ConsumerNtNtB2_4push13OrderedConfigE3newB6_
FNDA:17,_RNvMs_NtNtCs6qhVEmoZJ2z_10async_nats9jetstream8consumerINtB4_8ConsumerNtNtB4_4pull6ConfigE8get_infoB8_
FNDA:1,_RNCNvMs_NtNtCs6qhVEmoZJ2z_10async_nats9jetstream8consumerINtB6_8ConsumerNtB6_6ConfigE4info0CsbhX8fe0itkR_15jetstream_tests
FNDA:1,_RNCNvMs_NtNtCs6qhVEmoZJ2z_10async_nats9jetstream8consumerINtB6_8ConsumerNtB6_6ConfigE8get_info0CsbhX8fe0itkR_15jetstream_tests
FNDA:16,_RNCNvMs_NtNtCs6qhVEmoZJ2z_10async_nats9jetstream8consumerINtB6_8ConsumerNtNtB6_4pull6ConfigE4info0CsbhX8fe0itkR_15jetstream_tests
FNDA:3,_RNvMNtNtCs6qhVEmoZJ2z_10async_nats9jetstream8consumerINtB2_8ConsumerNtB2_6ConfigE3newCsbhX8fe0itkR_15jetstream_tests
FNDA:1496,_RNvMNtNtCs6qhVEmoZJ2z_10async_nats9jetstream8consumerINtB2_8ConsumerNtNtB2_4pull6ConfigE3newCsbhX8fe0itkR_15jetstream_tests
FNDA:18,_RNvMNtNtCs6qhVEmoZJ2z_10async_nats9jetstream8consumerINtB2_8ConsumerNtNtB2_4push6ConfigE3newCsbhX8fe0itkR_15jetstream_tests
FNDA:1,_RNvMs_NtNtCs6qhVEmoZJ2z_10async_nats9jetstream8consumerINtB4_8ConsumerNtB4_6ConfigE4infoCsbhX8fe0itkR_15jetstream_tests
FNDA:1,_RNvMs_NtNtCs6qhVEmoZJ2z_10async_nats9jetstream8consumerINtB4_8ConsumerNtB4_6ConfigE8get_infoCsbhX8fe0itkR_15jetstream_tests
FNDA:9,_RNvMs_NtNtCs6qhVEmoZJ2z_10async_nats9jetstream8consumerINtB4_8ConsumerNtNtB4_4pull6ConfigE11cached_infoCsbhX8fe0itkR_15jetstream_tests
FNDA:16,_RNvMs_NtNtCs6qhVEmoZJ2z_10async_nats9jetstream8consumerINtB4_8ConsumerNtNtB4_4pull6ConfigE4infoCsbhX8fe0itkR_15jetstream_tests
FNDA:2,_RNvMs_NtNtCs6qhVEmoZJ2z_10async_nats9jetstream8consumerINtB4_8ConsumerNtNtB4_4push6ConfigE11cached_infoCsbhX8fe0itkR_15jetstream_tests
FNDA:11,_RNvMs_NtNtCs6qhVEmoZJ2z_10async_nats9jetstream8consumerINtB4_8ConsumerNtNtB4_4push13OrderedConfigE11cached_infoCs98b7hshCa6M_8kv_tests
FNF:16
FNH:11
DA:49,1562
DA:50,1562
DA:51,1562
DA:52,1562
DA:53,1562
DA:54,1562
DA:55,1562
DA:80,17
DA:81,17
DA:82,17
DA:83,17
DA:84,17
DA:107,18
DA:108,18
DA:109,18
DA:110,0
DA:111,18
DA:113,18
DA:138,22
DA:139,22
DA:140,22
DA:393,0
DA:394,0
DA:395,0
DA:399,0
DA:400,0
DA:401,0
DA:402,0
DA:403,0
DA:404,0
DA:408,3
DA:409,3
DA:410,3
DA:413,0
DA:414,0
DA:415,0
DA:419,3
DA:420,3
DA:421,3
DA:423,3
DA:424,3
DA:498,32445
DA:499,32445
DA:500,32445
DA:503,3
DA:504,3
DA:505,3
DA:506,3
DA:507,3
DA:509,3
DA:511,3
DA:512,3
DA:514,2
DA:516,1
DA:517,0
DA:518,0
DA:519,0
DA:521,3
DA:523,2
DA:524,2
DA:525,2
DA:526,2
DA:528,2
DA:529,2
DA:539,0
DA:540,0
DA:541,0
DA:542,0
DA:544,0
DA:549,0
DA:550,0
DA:551,0
DA:553,0
DA:555,0
BRF:0
BRH:0
LF:76
LH:50
end_of_record
SF:/Users/tomaszpietrek/coding/nats.rs/async-nats/src/jetstream/consumer/pull.rs
FN:148,_RINvMNtNtNtCs1hbFQVFAImq_10async_nats9jetstream8consumer4pullINtB5_8ConsumerNtB3_6ConfigE13request_batchpEB9_
FN:1613,_RINvMsd_NtNtNtCs1hbFQVFAImq_10async_nats9jetstream8consumer4pullNtB6_13StreamBuilder5grouppEBc_
FN:2009,_RINvMse_NtNtNtCs1hbFQVFAImq_10async_nats9jetstream8consumer4pullNtB6_12FetchBuilder5grouppEBc_
FN:2355,_RINvMsf_NtNtNtCs1hbFQVFAImq_10async_nats9jetstream8consumer4pullNtB6_12BatchBuilder5grouppEBc_
FN:2476,_RINvNtNtNtCs1hbFQVFAImq_10async_nats9jetstream8consumer4pull10is_defaultpEB8_
FN:152,_RNCINvMNtNtNtCs1hbFQVFAImq_10async_nats9jetstream8consumer4pullINtB7_8ConsumerNtB5_6ConfigE13request_batchpE0Bb_
FN:160,_RNCNCINvMNtNtNtCs1hbFQVFAImq_10async_nats9jetstream8consumer4pullINtB9_8ConsumerNtB7_6ConfigE13request_batchpE00Bd_
FN:166,_RNCNCINvMNtNtNtCs1hbFQVFAImq_10async_nats9jetstream8consumer4pullINtB9_8ConsumerNtB7_6ConfigE13request_batchpE0s_0Bd_
FN:937,_RNCNCNCNvMs8_NtNtNtCs1hbFQVFAImq_10async_nats9jetstream8consumer4pullNtBb_6Stream6stream0s_00Bh_
FN:990,_RNCNCNCNvMs8_NtNtNtCs1hbFQVFAImq_10async_nats9jetstream8consumer4pullNtBb_6Stream6stream0s_0s2_0Bh_
FN:961,_RNCNCNCNvMs8_NtNtNtCs1hbFQVFAImq_10async_nats9jetstream8consumer4pullNtBb_6Stream6stream0s_0s4_0Bh_
FN:963,_RNCNCNCNvMs8_NtNtNtCs1hbFQVFAImq_10async_nats9jetstream8consumer4pullNtBb_6Stream6stream0s_0s5_0Bh_
FN:946,_RNCNCNCNvMs8_NtNtNtCs1hbFQVFAImq_10async_nats9jetstream8consumer4pullNtBb_6Stream6stream0s_0s_0Bh_
FN:587,_RNCNCNvMs2_NtNtNtCs1hbFQVFAImq_10async_nats9jetstream8consumer4pullINtBb_8ConsumerNtB9_13OrderedConfigE8messages00Bf_
FN:917,_RNCNCNvMs8_NtNtNtCs1hbFQVFAImq_10async_nats9jetstream8consumer4pullNtB9_6Stream6stream00Bf_
FN:931,_RNCNCNvMs8_NtNtNtCs1hbFQVFAImq_10async_nats9jetstream8consumer4pullNtB9_6Stream6stream0s_0Bf_
FN:350,_RNCNCNvMs_NtNtNtCs1hbFQVFAImq_10async_nats9jetstream8consumer4pullNtB8_5Batch5batch00Be_
FN:2800,_RNCNCNvNtNtNtCs1hbFQVFAImq_10async_nats9jetstream8consumer4pull24recreate_consumer_stream00Bb_
FN:2829,_RNCNCNvNtNtNtCs1hbFQVFAImq_10async_nats9jetstream8consumer4pull24recreate_consumer_stream0s0_0Bb_
FN:2830,_RNCNCNvNtNtNtCs1hbFQVFAImq_10async_nats9jetstream8consumer4pull24recreate_consumer_stream0s1_0Bb_
FN:2801,_RNCNCNvNtNtNtCs1hbFQVFAImq_10async_nats9jetstream8consumer4pull24recreate_consumer_stream0s_0Bb_
FN:467,_RNCNCNvXs1_NtNtNtCs1hbFQVFAImq_10async_nats9jetstream8consumer4pullNtB9_8SequenceNtNtCscxja3U2MsTJ_12futures_core6stream6Stream9poll_next00Bf_
FN:473,_RNCNCNvXs1_NtNtNtCs1hbFQVFAImq_10async_nats9jetstream8consumer4pullNtB9_8SequenceNtNtCscxja3U2MsTJ_12futures_core6stream6Stream9poll_next0s_0Bf_
FN:847,_RNCNCNvXs6_NtNtNtCs1hbFQVFAImq_10async_nats9jetstream8consumer4pullNtB9_7OrderedNtNtCscxja3U2MsTJ_12futures_core6stream6Stream9poll_nexts_00Bf_
FN:91,_RNCNvMNtNtNtCs1hbFQVFAImq_10async_nats9jetstream8consumer4pullINtB6_8ConsumerNtB4_6ConfigE8messages0Ba_
FN:324,_RNCNvMNtNtNtCs1hbFQVFAImq_10async_nats9jetstream8consumer4pullINtB6_8ConsumerNtB4_6ConfigE8sequence0Ba_
FN:554,_RNCNvMs2_NtNtNtCs1hbFQVFAImq_10async_nats9jetstream8consumer4pullINtB9_8ConsumerNtB7_13OrderedConfigE8messages0Bd_
FN:910,_RNCNvMs8_NtNtNtCs1hbFQVFAImq_10async_nats9jetstream8consumer4pullNtB7_6Stream6stream0Bd_
FN:345,_RNCNvMs_NtNtNtCs1hbFQVFAImq_10async_nats9jetstream8consumer4pullNtB6_5Batch5batch0Bc_
FN:1650,_RNCNvMsd_NtNtNtCs1hbFQVFAImq_10async_nats9jetstream8consumer4pullNtB7_13StreamBuilder8messages0Bd_
FN:2042,_RNCNvMse_NtNtNtCs1hbFQVFAImq_10async_nats9jetstream8consumer4pullNtB7_12FetchBuilder8messages0Bd_
FN:2427,_RNCNvMsf_NtNtNtCs1hbFQVFAImq_10async_nats9jetstream8consumer4pullNtB7_12BatchBuilder8messages0Bd_
FN:2760,_RNCNvNtNtNtCs1hbFQVFAImq_10async_nats9jetstream8consumer4pull24recreate_consumer_stream0B9_
FN:461,_RNCNvXs1_NtNtNtCs1hbFQVFAImq_10async_nats9jetstream8consumer4pullNtB7_8SequenceNtNtCscxja3U2MsTJ_12futures_core6stream6Stream9poll_next0Bd_
FN:499,_RNCNvXs1_NtNtNtCs1hbFQVFAImq_10async_nats9jetstream8consumer4pullNtB7_8SequenceNtNtCscxja3U2MsTJ_12futures_core6stream6Stream9poll_nexts0_0Bd_
FN:488,_RNCNvXs1_NtNtNtCs1hbFQVFAImq_10async_nats9jetstream8consumer4pullNtB7_8SequenceNtNtCscxja3U2MsTJ_12futures_core6stream6Stream9poll_nexts_0Bd_
FN:788,_RNCNvXs6_NtNtNtCs1hbFQVFAImq_10async_nats9jetstream8consumer4pullNtB7_7OrderedNtNtCscxja3U2MsTJ_12futures_core6stream6Stream9poll_next0Bd_
FN:846,_RNCNvXs6_NtNtNtCs1hbFQVFAImq_10async_nats9jetstream8consumer4pullNtB7_7OrderedNtNtCscxja3U2MsTJ_12futures_core6stream6Stream9poll_nexts_0Bd_
FN:1117,_RNCNvXsc_NtNtNtCs1hbFQVFAImq_10async_nats9jetstream8consumer4pullNtB7_6StreamNtNtCscxja3U2MsTJ_12futures_core6stream6Stream9poll_next0Bd_
FN:1201,_RNCNvXsc_NtNtNtCs1hbFQVFAImq_10async_nats9jetstream8consumer4pullNtB7_6StreamNtNtCscxja3U2MsTJ_12futures_core6stream6Stream9poll_nexts0_0Bd_
FN:1202,_RNCNvXsc_NtNtNtCs1hbFQVFAImq_10async_nats9jetstream8consumer4pullNtB7_6StreamNtNtCscxja3U2MsTJ_12futures_core6stream6Stream9poll_nexts1_0Bd_
FN:1209,_RNCNvXsc_NtNtNtCs1hbFQVFAImq_10async_nats9jetstream8consumer4pullNtB7_6StreamNtNtCscxja3U2MsTJ_12futures_core6stream6Stream9poll_nexts2_0Bd_
FN:1210,_RNCNvXsc_NtNtNtCs1hbFQVFAImq_10async_nats9jetstream8consumer4pullNtB7_6StreamNtNtCscxja3U2MsTJ_12futures_core6stream6Stream9poll_nexts3_0Bd_
FN:1211,_RNCNvXsc_NtNtNtCs1hbFQVFAImq_10async_nats9jetstream8consumer4pullNtB7_6StreamNtNtCscxja3U2MsTJ_12futures_core6stream6Stream9poll_nexts4_0Bd_
FN:1200,_RNCNvXsc_NtNtNtCs1hbFQVFAImq_10async_nats9jetstream8consumer4pullNtB7_6StreamNtNtCscxja3U2MsTJ_12futures_core6stream6Stream9poll_nexts_0Bd_
FN:264,_RNvMNtNtNtCs1hbFQVFAImq_10async_nats9jetstream8consumer4pullINtB4_8ConsumerNtB2_6ConfigE5batch
FN:219,_RNvMNtNtNtCs1hbFQVFAImq_10async_nats9jetstream8consumer4pullINtB4_8ConsumerNtB2_6ConfigE5fetch
FN:144,_RNvMNtNtNtCs1hbFQVFAImq_10async_nats9jetstream8consumer4pullINtB4_8ConsumerNtB2_6ConfigE6stream
FN:91,_RNvMNtNtNtCs1hbFQVFAImq_10async_nats9jetstream8consumer4pullINtB4_8ConsumerNtB2_6ConfigE8messages
FN:311,_RNvMNtNtNtCs1hbFQVFAImq_10async_nats9jetstream8consumer4pullINtB4_8ConsumerNtB2_6ConfigE8sequence
FN:554,_RNvMs2_NtNtNtCs1hbFQVFAImq_10async_nats9jetstream8consumer4pullINtB7_8ConsumerNtB5_13OrderedConfigE8messages
FN:907,_RNvMs8_NtNtNtCs1hbFQVFAImq_10async_nats9jetstream8consumer4pullNtB5_6Stream6stream
FN:345,_RNvMs_NtNtNtCs1hbFQVFAImq_10async_nats9jetstream8consumer4pullNtB4_5Batch5batch
FN:1525,_RNvMsd_NtNtNtCs1hbFQVFAImq_10async_nats9jetstream8consumer4pullNtB5_13StreamBuilder11min_pending
FN:1574,_RNvMsd_NtNtNtCs1hbFQVFAImq_10async_nats9jetstream8consumer4pullNtB5_13StreamBuilder15min_ack_pending
FN:1365,_RNvMsd_NtNtNtCs1hbFQVFAImq_10async_nats9jetstream8consumer4pullNtB5_13StreamBuilder19max_bytes_per_batch
FN:1407,_RNvMsd_NtNtNtCs1hbFQVFAImq_10async_nats9jetstream8consumer4pullNtB5_13StreamBuilder22max_messages_per_batch
FN:1313,_RNvMsd_NtNtNtCs1hbFQVFAImq_10async_nats9jetstream8consumer4pullNtB5_13StreamBuilder3new
FN:1484,_RNvMsd_NtNtNtCs1hbFQVFAImq_10async_nats9jetstream8consumer4pullNtB5_13StreamBuilder7expires
FN:1650,_RNvMsd_NtNtNtCs1hbFQVFAImq_10async_nats9jetstream8consumer4pullNtB5_13StreamBuilder8messages
FN:1533,_RNvMsd_NtNtNtCs1hbFQVFAImq_10async_nats9jetstream8consumer4pullNtB5_13StreamBuilder8priority
FN:1445,_RNvMsd_NtNtNtCs1hbFQVFAImq_10async_nats9jetstream8consumer4pullNtB5_13StreamBuilder9heartbeat
FN:1918,_RNvMse_NtNtNtCs1hbFQVFAImq_10async_nats9jetstream8consumer4pullNtB5_12FetchBuilder11min_pending
FN:1797,_RNvMse_NtNtNtCs1hbFQVFAImq_10async_nats9jetstream8consumer4pullNtB5_12FetchBuilder12max_messages
FN:1969,_RNvMse_NtNtNtCs1hbFQVFAImq_10async_nats9jetstream8consumer4pullNtB5_12FetchBuilder15min_ack_pending
FN:1715,_RNvMse_NtNtNtCs1hbFQVFAImq_10async_nats9jetstream8consumer4pullNtB5_12FetchBuilder3new
FN:1875,_RNvMse_NtNtNtCs1hbFQVFAImq_10async_nats9jetstream8consumer4pullNtB5_12FetchBuilder7expires
FN:2042,_RNvMse_NtNtNtCs1hbFQVFAImq_10async_nats9jetstream8consumer4pullNtB5_12FetchBuilder8messages
FN:1926,_RNvMse_NtNtNtCs1hbFQVFAImq_10async_nats9jetstream8consumer4pullNtB5_12FetchBuilder8priority
FN:1835,_RNvMse_NtNtNtCs1hbFQVFAImq_10async_nats9jetstream8consumer4pullNtB5_12FetchBuilder9heartbeat
FN:1760,_RNvMse_NtNtNtCs1hbFQVFAImq_10async_nats9jetstream8consumer4pullNtB5_12FetchBuilder9max_bytes
FN:2272,_RNvMsf_NtNtNtCs1hbFQVFAImq_10async_nats9jetstream8consumer4pullNtB5_12BatchBuilder11min_pending
FN:2191,_RNvMsf_NtNtNtCs1hbFQVFAImq_10async_nats9jetstream8consumer4pullNtB5_12BatchBuilder12max_messages
FN:2315,_RNvMsf_NtNtNtCs1hbFQVFAImq_10async_nats9jetstream8consumer4pullNtB5_12BatchBuilder15min_ack_pending
FN:2107,_RNvMsf_NtNtNtCs1hbFQVFAImq_10async_nats9jetstream8consumer4pullNtB5_12BatchBuilder3new
FN:2394,_RNvMsf_NtNtNtCs1hbFQVFAImq_10async_nats9jetstream8consumer4pullNtB5_12BatchBuilder7expires
FN:2427,_RNvMsf_NtNtNtCs1hbFQVFAImq_10async_nats9jetstream8consumer4pullNtB5_12BatchBuilder8messages
FN:2229,_RNvMsf_NtNtNtCs1hbFQVFAImq_10async_nats9jetstream8consumer4pullNtB5_12BatchBuilder9heartbeat
FN:2153,_RNvMsf_NtNtNtCs1hbFQVFAImq_10async_nats9jetstream8consumer4pullNtB5_12BatchBuilder9max_bytes
FN:2754,_RNvNtNtNtCs1hbFQVFAImq_10async_nats9jetstream8consumer4pull24recreate_consumer_stream
FN:369,_RNvXs0_NtNtNtCs1hbFQVFAImq_10async_nats9jetstream8consumer4pullNtB5_5BatchNtNtCscxja3U2MsTJ_12futures_core6stream6Stream9poll_next
FN:450,_RNvXs1_NtNtNtCs1hbFQVFAImq_10async_nats9jetstream8consumer4pullNtB5_8SequenceNtNtCscxja3U2MsTJ_12futures_core6stream6Stream9poll_next
FN:654,_RNvXs3_NtNtNtCs1hbFQVFAImq_10async_nats9jetstream8consumer4pullNtB5_6ConfigINtNtCs2CqrNpCrSUr_4core7convert4FromNtB5_13OrderedConfigE4from
FN:692,_RNvXs4_NtNtNtCs1hbFQVFAImq_10async_nats9jetstream8consumer4pullNtB5_13OrderedConfigNtB7_12FromConsumer24try_from_consumer_config
FN:720,_RNvXs5_NtNtNtCs1hbFQVFAImq_10async_nats9jetstream8consumer4pullNtB5_13OrderedConfigNtB7_18IntoConsumerConfig20into_consumer_config
FN:776,_RNvXs6_NtNtNtCs1hbFQVFAImq_10async_nats9jetstream8consumer4pullNtB5_7OrderedNtNtCscxja3U2MsTJ_12futures_core6stream6Stream9poll_next
FN:901,_RNvXs7_NtNtNtCs1hbFQVFAImq_10async_nats9jetstream8consumer4pullNtB5_6StreamNtNtNtCs2CqrNpCrSUr_4core3ops4drop4Drop4drop
FN:1030,_RNvXs9_NtNtNtCs1hbFQVFAImq_10async_nats9jetstream8consumer4pullNtB5_16OrderedErrorKindNtNtCs2CqrNpCrSUr_4core3fmt7Display3fmt
FN:1046,_RNvXsa_NtNtNtCs1hbFQVFAImq_10async_nats9jetstream8consumer4pullINtNtBb_5error5ErrorNtB5_16OrderedErrorKindEINtNtCs2CqrNpCrSUr_4core7convert4FromIB10_NtB5_17MessagesErrorKindEE4from
FN:1081,_RNvXsb_NtNtNtCs1hbFQVFAImq_10async_nats9jetstream8consumer4pullNtB5_17MessagesErrorKindNtNtCs2CqrNpCrSUr_4core3fmt7Display3fmt
FN:1098,_RNvXsc_NtNtNtCs1hbFQVFAImq_10async_nats9jetstream8consumer4pullNtB5_6StreamNtNtCscxja3U2MsTJ_12futures_core6stream6Stream9poll_next
FN:2594,_RNvXsg_NtNtNtCs1hbFQVFAImq_10async_nats9jetstream8consumer4pullRNtB5_6ConfigNtB7_18IntoConsumerConfig20into_consumer_config
FN:2600,_RNvXsh_NtNtNtCs1hbFQVFAImq_10async_nats9jetstream8consumer4pullNtB5_6ConfigNtB7_18IntoConsumerConfig20into_consumer_config
FN:2641,_RNvXsi_NtNtNtCs1hbFQVFAImq_10async_nats9jetstream8consumer4pullNtB5_6ConfigNtB7_12FromConsumer24try_from_consumer_config
FN:2691,_RNvXsj_NtNtNtCs1hbFQVFAImq_10async_nats9jetstream8consumer4pullNtB5_21BatchRequestErrorKindNtNtCs2CqrNpCrSUr_4core3fmt7Display3fmt
FN:2711,_RNvXsk_NtNtNtCs1hbFQVFAImq_10async_nats9jetstream8consumer4pullNtB5_14BatchErrorKindNtNtCs2CqrNpCrSUr_4core3fmt7Display3fmt
FN:2724,_RNvXsl_NtNtNtCs1hbFQVFAImq_10async_nats9jetstream8consumer4pullINtNtBb_5error5ErrorNtB5_14BatchErrorKindEINtNtCs2CqrNpCrSUr_4core7convert4FromNtNtBb_6client14SubscribeErrorE4from
FN:2730,_RNvXsm_NtNtNtCs1hbFQVFAImq_10async_nats9jetstream8consumer4pullINtNtBb_5error5ErrorNtB5_14BatchErrorKindEINtNtCs2CqrNpCrSUr_4core7convert4FromIB10_NtB5_21BatchRequestErrorKindEE4from
FN:2743,_RNvXsn_NtNtNtCs1hbFQVFAImq_10async_nats9jetstream8consumer4pullNtB5_25ConsumerRecreateErrorKindNtNtCs2CqrNpCrSUr_4core3fmt7Display3fmt
FN:907,_RNvMs8_NtNtNtCs6qhVEmoZJ2z_10async_nats9jetstream8consumer4pullNtB5_6Stream6stream
FN:345,_RNvMs_NtNtNtCs6qhVEmoZJ2z_10async_nats9jetstream8consumer4pullNtB4_5Batch5batch
FN:1525,_RNvMsd_NtNtNtCs6qhVEmoZJ2z_10async_nats9jetstream8consumer4pullNtB5_13StreamBuilder11min_pending
FN:1574,_RNvMsd_NtNtNtCs6qhVEmoZJ2z_10async_nats9jetstream8consumer4pullNtB5_13StreamBuilder15min_ack_pending
FN:1365,_RNvMsd_NtNtNtCs6qhVEmoZJ2z_10async_nats9jetstream8consumer4pullNtB5_13StreamBuilder19max_bytes_per_batch
FN:1407,_RNvMsd_NtNtNtCs6qhVEmoZJ2z_10async_nats9jetstream8consumer4pullNtB5_13StreamBuilder22max_messages_per_batch
FN:1313,_RNvMsd_NtNtNtCs6qhVEmoZJ2z_10async_nats9jetstream8consumer4pullNtB5_13StreamBuilder3new
FN:1484,_RNvMsd_NtNtNtCs6qhVEmoZJ2z_10async_nats9jetstream8consumer4pullNtB5_13StreamBuilder7expires
FN:1650,_RNvMsd_NtNtNtCs6qhVEmoZJ2z_10async_nats9jetstream8consumer4pullNtB5_13StreamBuilder8messages
FN:1533,_RNvMsd_NtNtNtCs6qhVEmoZJ2z_10async_nats9jetstream8consumer4pullNtB5_13StreamBuilder8priority
FN:1445,_RNvMsd_NtNtNtCs6qhVEmoZJ2z_10async_nats9jetstream8consumer4pullNtB5_13StreamBuilder9heartbeat
FN:1918,_RNvMse_NtNtNtCs6qhVEmoZJ2z_10async_nats9jetstream8consumer4pullNtB5_12FetchBuilder11min_pending
FN:1797,_RNvMse_NtNtNtCs6qhVEmoZJ2z_10async_nats9jetstream8consumer4pullNtB5_12FetchBuilder12max_messages
FN:1969,_RNvMse_NtNtNtCs6qhVEmoZJ2z_10async_nats9jetstream8consumer4pullNtB5_12FetchBuilder15min_ack_pending
FN:1715,_RNvMse_NtNtNtCs6qhVEmoZJ2z_10async_nats9jetstream8consumer4pullNtB5_12FetchBuilder3new
FN:1875,_RNvMse_NtNtNtCs6qhVEmoZJ2z_10async_nats9jetstream8consumer4pullNtB5_12FetchBuilder7expires
FN:2042,_RNvMse_NtNtNtCs6qhVEmoZJ2z_10async_nats9jetstream8consumer4pullNtB5_12FetchBuilder8messages
FN:1926,_RNvMse_NtNtNtCs6qhVEmoZJ2z_10async_nats9jetstream8consumer4pullNtB5_12FetchBuilder8priority
FN:1835,_RNvMse_NtNtNtCs6qhVEmoZJ2z_10async_nats9jetstream8consumer4pullNtB5_12FetchBuilder9heartbeat
FN:1760,_RNvMse_NtNtNtCs6qhVEmoZJ2z_10async_nats9jetstream8consumer4pullNtB5_12FetchBuilder9max_bytes
FN:2272,_RNvMsf_NtNtNtCs6qhVEmoZJ2z_10async_nats9jetstream8consumer4pullNtB5_12BatchBuilder11min_pending
FN:2191,_RNvMsf_NtNtNtCs6qhVEmoZJ2z_10async_nats9jetstream8consumer4pullNtB5_12BatchBuilder12max_messages
FN:2315,_RNvMsf_NtNtNtCs6qhVEmoZJ2z_10async_nats9jetstream8consumer4pullNtB5_12BatchBuilder15min_ack_pending
FN:2107,_RNvMsf_NtNtNtCs6qhVEmoZJ2z_10async_nats9jetstream8consumer4pullNtB5_12BatchBuilder3new
FN:2394,_RNvMsf_NtNtNtCs6qhVEmoZJ2z_10async_nats9jetstream8consumer4pullNtB5_12BatchBuilder7expires
FN:2427,_RNvMsf_NtNtNtCs6qhVEmoZJ2z_10async_nats9jetstream8consumer4pullNtB5_12BatchBuilder8messages
FN:2229,_RNvMsf_NtNtNtCs6qhVEmoZJ2z_10async_nats9jetstream8consumer4pullNtB5_12BatchBuilder9heartbeat
FN:2153,_RNvMsf_NtNtNtCs6qhVEmoZJ2z_10async_nats9jetstream8consumer4pullNtB5_12BatchBuilder9max_bytes
FN:2754,_RNvNtNtNtCs6qhVEmoZJ2z_10async_nats9jetstream8consumer4pull24recreate_consumer_stream
FN:369,_RNvXs0_NtNtNtCs6qhVEmoZJ2z_10async_nats9jetstream8consumer4pullNtB5_5BatchNtNtCscxja3U2MsTJ_12futures_core6stream6Stream9poll_next
FN:450,_RNvXs1_NtNtNtCs6qhVEmoZJ2z_10async_nats9jetstream8consumer4pullNtB5_8SequenceNtNtCscxja3U2MsTJ_12futures_core6stream6Stream9poll_next
FN:654,_RNvXs3_NtNtNtCs6qhVEmoZJ2z_10async_nats9jetstream8consumer4pullNtB5_6ConfigINtNtCs2CqrNpCrSUr_4core7convert4FromNtB5_13OrderedConfigE4from
FN:692,_RNvXs4_NtNtNtCs6qhVEmoZJ2z_10async_nats9jetstream8consumer4pullNtB5_13OrderedConfigNtB7_12FromConsumer24try_from_consumer_config
FN:720,_RNvXs5_NtNtNtCs6qhVEmoZJ2z_10async_nats9jetstream8consumer4pullNtB5_13OrderedConfigNtB7_18IntoConsumerConfig20into_consumer_config
FN:776,_RNvXs6_NtNtNtCs6qhVEmoZJ2z_10async_nats9jetstream8consumer4pullNtB5_7OrderedNtNtCscxja3U2MsTJ_12futures_core6stream6Stream9poll_next
FN:1030,_RNvXs9_NtNtNtCs6qhVEmoZJ2z_10async_nats9jetstream8consumer4pullNtB5_16OrderedErrorKindNtNtCs2CqrNpCrSUr_4core3fmt7Display3fmt
FN:1081,_RNvXsb_NtNtNtCs6qhVEmoZJ2z_10async_nats9jetstream8consumer4pullNtB5_17MessagesErrorKindNtNtCs2CqrNpCrSUr_4core3fmt7Display3fmt
FN:1098,_RNvXsc_NtNtNtCs6qhVEmoZJ2z_10async_nats9jetstream8consumer4pullNtB5_6StreamNtNtCscxja3U2MsTJ_12futures_core6stream6Stream9poll_next
FN:2594,_RNvXsg_NtNtNtCs6qhVEmoZJ2z_10async_nats9jetstream8consumer4pullRNtB5_6ConfigNtB7_18IntoConsumerConfig20into_consumer_config
FN:2600,_RNvXsh_NtNtNtCs6qhVEmoZJ2z_10async_nats9jetstream8consumer4pullNtB5_6ConfigNtB7_18IntoConsumerConfig20into_consumer_config
FN:2641,_RNvXsi_NtNtNtCs6qhVEmoZJ2z_10async_nats9jetstream8consumer4pullNtB5_6ConfigNtB7_12FromConsumer24try_from_consumer_config
FN:2691,_RNvXsj_NtNtNtCs6qhVEmoZJ2z_10async_nats9jetstream8consumer4pullNtB5_21BatchRequestErrorKindNtNtCs2CqrNpCrSUr_4core3fmt7Display3fmt
FN:2711,_RNvXsk_NtNtNtCs6qhVEmoZJ2z_10async_nats9jetstream8consumer4pullNtB5_14BatchErrorKindNtNtCs2CqrNpCrSUr_4core3fmt7Display3fmt
FN:2743,_RNvXsn_NtNtNtCs6qhVEmoZJ2z_10async_nats9jetstream8consumer4pullNtB5_25ConsumerRecreateErrorKindNtNtCs2CqrNpCrSUr_4core3fmt7Display3fmt
FN:148,_RINvMNtNtNtCs6qhVEmoZJ2z_10async_nats9jetstream8consumer4pullINtB5_8ConsumerNtB3_6ConfigE13request_batchpEB9_
FN:1613,_RINvMsd_NtNtNtCs6qhVEmoZJ2z_10async_nats9jetstream8consumer4pullNtB6_13StreamBuilder5grouppEBc_
FN:2009,_RINvMse_NtNtNtCs6qhVEmoZJ2z_10async_nats9jetstream8consumer4pullNtB6_12FetchBuilder5grouppEBc_
FN:2355,_RINvMsf_NtNtNtCs6qhVEmoZJ2z_10async_nats9jetstream8consumer4pullNtB6_12BatchBuilder5grouppEBc_
FN:152,_RNCINvMNtNtNtCs6qhVEmoZJ2z_10async_nats9jetstream8consumer4pullINtB7_8ConsumerNtB5_6ConfigE13request_batchpE0Bb_
FN:160,_RNCNCINvMNtNtNtCs6qhVEmoZJ2z_10async_nats9jetstream8consumer4pullINtB9_8ConsumerNtB7_6ConfigE13request_batchpE00Bd_
FN:166,_RNCNCINvMNtNtNtCs6qhVEmoZJ2z_10async_nats9jetstream8consumer4pullINtB9_8ConsumerNtB7_6ConfigE13request_batchpE0s_0Bd_
FN:587,_RNCNCNvMs2_NtNtNtCs6qhVEmoZJ2z_10async_nats9jetstream8consumer4pullINtBb_8ConsumerNtB9_13OrderedConfigE8messages00Bf_
FN:350,_RNCNCNvMs_NtNtNtCs6qhVEmoZJ2z_10async_nats9jetstream8consumer4pullNtB8_5Batch5batch00Be_
FN:91,_RNCNvMNtNtNtCs6qhVEmoZJ2z_10async_nats9jetstream8consumer4pullINtB6_8ConsumerNtB4_6ConfigE8messages0Ba_
FN:554,_RNCNvMs2_NtNtNtCs6qhVEmoZJ2z_10async_nats9jetstream8consumer4pullINtB9_8ConsumerNtB7_13OrderedConfigE8messages0Bd_
FN:345,_RNCNvMs_NtNtNtCs6qhVEmoZJ2z_10async_nats9jetstream8consumer4pullNtB6_5Batch5batch0Bc_
FN:1650,_RNCNvMsd_NtNtNtCs6qhVEmoZJ2z_10async_nats9jetstream8consumer4pullNtB7_13StreamBuilder8messages0Bd_
FN:2042,_RNCNvMse_NtNtNtCs6qhVEmoZJ2z_10async_nats9jetstream8consumer4pullNtB7_12FetchBuilder8messages0Bd_
FN:2427,_RNCNvMsf_NtNtNtCs6qhVEmoZJ2z_10async_nats9jetstream8consumer4pullNtB7_12BatchBuilder8messages0Bd_
FN:1046,_RNvXsa_NtNtNtCs6qhVEmoZJ2z_10async_nats9jetstream8consumer4pullINtNtBb_5error5ErrorNtB5_16OrderedErrorKindEINtNtCs2CqrNpCrSUr_4core7convert4FromIB10_NtB5_17MessagesErrorKindEE4from
FN:2724,_RNvXsl_NtNtNtCs6qhVEmoZJ2z_10async_nats9jetstream8consumer4pullINtNtBb_5error5ErrorNtB5_14BatchErrorKindEINtNtCs2CqrNpCrSUr_4core7convert4FromNtNtBb_6client14SubscribeErrorE4from
FN:2730,_RNvXsm_NtNtNtCs6qhVEmoZJ2z_10async_nats9jetstream8consumer4pullINtNtBb_5error5ErrorNtB5_14BatchErrorKindEINtNtCs2CqrNpCrSUr_4core7convert4FromIB10_NtB5_21BatchRequestErrorKindEE4from
FN:2476,_RINvNtNtNtCs6qhVEmoZJ2z_10async_nats9jetstream8consumer4pull10is_defaultNtNtCs2CqrNpCrSUr_4core4time8DurationEB8_
FN:2476,_RINvNtNtNtCs6qhVEmoZJ2z_10async_nats9jetstream8consumer4pull10is_defaultbEB8_
FN:937,_RNCNCNCNvMs8_NtNtNtCs6qhVEmoZJ2z_10async_nats9jetstream8consumer4pullNtBb_6Stream6stream0s_00Bh_
FN:990,_RNCNCNCNvMs8_NtNtNtCs6qhVEmoZJ2z_10async_nats9jetstream8consumer4pullNtBb_6Stream6stream0s_0s2_0Bh_
FN:961,_RNCNCNCNvMs8_NtNtNtCs6qhVEmoZJ2z_10async_nats9jetstream8consumer4pullNtBb_6Stream6stream0s_0s4_0Bh_
FN:963,_RNCNCNCNvMs8_NtNtNtCs6qhVEmoZJ2z_10async_nats9jetstream8consumer4pullNtBb_6Stream6stream0s_0s5_0Bh_
FN:946,_RNCNCNCNvMs8_NtNtNtCs6qhVEmoZJ2z_10async_nats9jetstream8consumer4pullNtBb_6Stream6stream0s_0s_0Bh_
FN:917,_RNCNCNvMs8_NtNtNtCs6qhVEmoZJ2z_10async_nats9jetstream8consumer4pullNtB9_6Stream6stream00Bf_
FN:931,_RNCNCNvMs8_NtNtNtCs6qhVEmoZJ2z_10async_nats9jetstream8consumer4pullNtB9_6Stream6stream0s_0Bf_
FN:2800,_RNCNCNvNtNtNtCs6qhVEmoZJ2z_10async_nats9jetstream8consumer4pull24recreate_consumer_stream00Bb_
FN:2829,_RNCNCNvNtNtNtCs6qhVEmoZJ2z_10async_nats9jetstream8consumer4pull24recreate_consumer_stream0s0_0Bb_
FN:2830,_RNCNCNvNtNtNtCs6qhVEmoZJ2z_10async_nats9jetstream8consumer4pull24recreate_consumer_stream0s1_0Bb_
FN:2801,_RNCNCNvNtNtNtCs6qhVEmoZJ2z_10async_nats9jetstream8consumer4pull24recreate_consumer_stream0s_0Bb_
FN:467,_RNCNCNvXs1_NtNtNtCs6qhVEmoZJ2z_10async_nats9jetstream8consumer4pullNtB9_8SequenceNtNtCscxja3U2MsTJ_12futures_core6stream6Stream9poll_next00Bf_
FN:473,_RNCNCNvXs1_NtNtNtCs6qhVEmoZJ2z_10async_nats9jetstream8consumer4pullNtB9_8SequenceNtNtCscxja3U2MsTJ_12futures_core6stream6Stream9poll_next0s_0Bf_
FN:847,_RNCNCNvXs6_NtNtNtCs6qhVEmoZJ2z_10async_nats9jetstream8consumer4pullNtB9_7OrderedNtNtCscxja3U2MsTJ_12futures_core6stream6Stream9poll_nexts_00Bf_
FN:324,_RNCNvMNtNtNtCs6qhVEmoZJ2z_10async_nats9jetstream8consumer4pullINtB6_8ConsumerNtB4_6ConfigE8sequence0Ba_
FN:910,_RNCNvMs8_NtNtNtCs6qhVEmoZJ2z_10async_nats9jetstream8consumer4pullNtB7_6Stream6stream0Bd_
FN:2760,_RNCNvNtNtNtCs6qhVEmoZJ2z_10async_nats9jetstream8consumer4pull24recreate_consumer_stream0B9_
FN:461,_RNCNvXs1_NtNtNtCs6qhVEmoZJ2z_10async_nats9jetstream8consumer4pullNtB7_8SequenceNtNtCscxja3U2MsTJ_12futures_core6stream6Stream9poll_next0Bd_
FN:499,_RNCNvXs1_NtNtNtCs6qhVEmoZJ2z_10async_nats9jetstream8consumer4pullNtB7_8SequenceNtNtCscxja3U2MsTJ_12futures_core6stream6Stream9poll_nexts0_0Bd_
FN:488,_RNCNvXs1_NtNtNtCs6qhVEmoZJ2z_10async_nats9jetstream8consumer4pullNtB7_8SequenceNtNtCscxja3U2MsTJ_12futures_core6stream6Stream9poll_nexts_0Bd_
FN:788,_RNCNvXs6_NtNtNtCs6qhVEmoZJ2z_10async_nats9jetstream8consumer4pullNtB7_7OrderedNtNtCscxja3U2MsTJ_12futures_core6stream6Stream9poll_next0Bd_
FN:846,_RNCNvXs6_NtNtNtCs6qhVEmoZJ2z_10async_nats9jetstream8consumer4pullNtB7_7OrderedNtNtCscxja3U2MsTJ_12futures_core6stream6Stream9poll_nexts_0Bd_
FN:1117,_RNCNvXsc_NtNtNtCs6qhVEmoZJ2z_10async_nats9jetstream8consumer4pullNtB7_6StreamNtNtCscxja3U2MsTJ_12futures_core6stream6Stream9poll_next0Bd_
FN:1201,_RNCNvXsc_NtNtNtCs6qhVEmoZJ2z_10async_nats9jetstream8consumer4pullNtB7_6StreamNtNtCscxja3U2MsTJ_12futures_core6stream6Stream9poll_nexts0_0Bd_
FN:1202,_RNCNvXsc_NtNtNtCs6qhVEmoZJ2z_10async_nats9jetstream8consumer4pullNtB7_6StreamNtNtCscxja3U2MsTJ_12futures_core6stream6Stream9poll_nexts1_0Bd_
FN:1209,_RNCNvXsc_NtNtNtCs6qhVEmoZJ2z_10async_nats9jetstream8consumer4pullNtB7_6StreamNtNtCscxja3U2MsTJ_12futures_core6stream6Stream9poll_nexts2_0Bd_
FN:1210,_RNCNvXsc_NtNtNtCs6qhVEmoZJ2z_10async_nats9jetstream8consumer4pullNtB7_6StreamNtNtCscxja3U2MsTJ_12futures_core6stream6Stream9poll_nexts3_0Bd_
FN:1211,_RNCNvXsc_NtNtNtCs6qhVEmoZJ2z_10async_nats9jetstream8consumer4pullNtB7_6StreamNtNtCscxja3U2MsTJ_12futures_core6stream6Stream9poll_nexts4_0Bd_
FN:1200,_RNCNvXsc_NtNtNtCs6qhVEmoZJ2z_10async_nats9jetstream8consumer4pullNtB7_6StreamNtNtCscxja3U2MsTJ_12futures_core6stream6Stream9poll_nexts_0Bd_
FN:264,_RNvMNtNtNtCs6qhVEmoZJ2z_10async_nats9jetstream8consumer4pullINtB4_8ConsumerNtB2_6ConfigE5batch
FN:219,_RNvMNtNtNtCs6qhVEmoZJ2z_10async_nats9jetstream8consumer4pullINtB4_8ConsumerNtB2_6ConfigE5fetch
FN:144,_RNvMNtNtNtCs6qhVEmoZJ2z_10async_nats9jetstream8consumer4pullINtB4_8ConsumerNtB2_6ConfigE6stream
FN:91,_RNvMNtNtNtCs6qhVEmoZJ2z_10async_nats9jetstream8consumer4pullINtB4_8ConsumerNtB2_6ConfigE8messages
FN:311,_RNvMNtNtNtCs6qhVEmoZJ2z_10async_nats9jetstream8consumer4pullINtB4_8ConsumerNtB2_6ConfigE8sequence
FN:554,_RNvMs2_NtNtNtCs6qhVEmoZJ2z_10async_nats9jetstream8consumer4pullINtB7_8ConsumerNtB5_13OrderedConfigE8messages
FN:901,_RNvXs7_NtNtNtCs6qhVEmoZJ2z_10async_nats9jetstream8consumer4pullNtB5_6StreamNtNtNtCs2CqrNpCrSUr_4core3ops4drop4Drop4drop
FN:148,_RINvMNtNtNtCs6qhVEmoZJ2z_10async_nats9jetstream8consumer4pullINtB5_8ConsumerNtB3_6ConfigE13request_batchNtB3_11BatchConfigECsbhX8fe0itkR_15jetstream_tests
FN:1613,_RINvMsd_NtNtNtCs6qhVEmoZJ2z_10async_nats9jetstream8consumer4pullNtB6_13StreamBuilder5groupReECsbhX8fe0itkR_15jetstream_tests
FN:152,_RNCINvMNtNtNtCs6qhVEmoZJ2z_10async_nats9jetstream8consumer4pullINtB7_8ConsumerNtB5_6ConfigE13request_batchNtB5_11BatchConfigE0CsbhX8fe0itkR_15jetstream_tests
FN:160,_RNCNCINvMNtNtNtCs6qhVEmoZJ2z_10async_nats9jetstream8consumer4pullINtB9_8ConsumerNtB7_6ConfigE13request_batchNtB7_11BatchConfigE00CsbhX8fe0itkR_15jetstream_tests
FN:166,_RNCNCINvMNtNtNtCs6qhVEmoZJ2z_10async_nats9jetstream8consumer4pullINtB9_8ConsumerNtB7_6ConfigE13request_batchNtB7_11BatchConfigE0s_0CsbhX8fe0itkR_15jetstream_tests
FN:587,_RNCNCNvMs2_NtNtNtCs6qhVEmoZJ2z_10async_nats9jetstream8consumer4pullINtBb_8ConsumerNtB9_13OrderedConfigE8messages00CsbhX8fe0itkR_15jetstream_tests
FN:350,_RNCNCNvMs_NtNtNtCs6qhVEmoZJ2z_10async_nats9jetstream8consumer4pullNtB8_5Batch5batch00CsbhX8fe0itkR_15jetstream_tests
FN:91,_RNCNvMNtNtNtCs6qhVEmoZJ2z_10async_nats9jetstream8consumer4pullINtB6_8ConsumerNtB4_6ConfigE8messages0CsbhX8fe0itkR_15jetstream_tests
FN:554,_RNCNvMs2_NtNtNtCs6qhVEmoZJ2z_10async_nats9jetstream8consumer4pullINtB9_8ConsumerNtB7_13OrderedConfigE8messages0CsbhX8fe0itkR_15jetstream_tests
FN:345,_RNCNvMs_NtNtNtCs6qhVEmoZJ2z_10async_nats9jetstream8consumer4pullNtB6_5Batch5batch0CsbhX8fe0itkR_15jetstream_tests
FN:1650,_RNCNvMsd_NtNtNtCs6qhVEmoZJ2z_10async_nats9jetstream8consumer4pullNtB7_13StreamBuilder8messages0CsbhX8fe0itkR_15jetstream_tests
FN:2042,_RNCNvMse_NtNtNtCs6qhVEmoZJ2z_10async_nats9jetstream8consumer4pullNtB7_12FetchBuilder8messages0CsbhX8fe0itkR_15jetstream_tests
FN:2427,_RNCNvMsf_NtNtNtCs6qhVEmoZJ2z_10async_nats9jetstream8consumer4pullNtB7_12BatchBuilder8messages0CsbhX8fe0itkR_15jetstream_tests
FNDA:0,_RINvMNtNtNtCs1hbFQVFAImq_10async_nats9jetstream8consumer4pullINtB5_8ConsumerNtB3_6ConfigE13request_batchpEB9_
FNDA:0,_RINvMsd_NtNtNtCs1hbFQVFAImq_10async_nats9jetstream8consumer4pullNtB6_13StreamBuilder5grouppEBc_
FNDA:0,_RINvMse_NtNtNtCs1hbFQVFAImq_10async_nats9jetstream8consumer4pullNtB6_12FetchBuilder5grouppEBc_
FNDA:0,_RINvMsf_NtNtNtCs1hbFQVFAImq_10async_nats9jetstream8consumer4pullNtB6_12BatchBuilder5grouppEBc_
FNDA:0,_RINvNtNtNtCs1hbFQVFAImq_10async_nats9jetstream8consumer4pull10is_defaultpEB8_
FNDA:0,_RNCINvMNtNtNtCs1hbFQVFAImq_10async_nats9jetstream8consumer4pullINtB7_8ConsumerNtB5_6ConfigE13request_batchpE0Bb_
FNDA:0,_RNCNCINvMNtNtNtCs1hbFQVFAImq_10async_nats9jetstream8consumer4pullINtB9_8ConsumerNtB7_6ConfigE13request_batchpE00Bd_
FNDA:0,_RNCNCINvMNtNtNtCs1hbFQVFAImq_10async_nats9jetstream8consumer4pullINtB9_8ConsumerNtB7_6ConfigE13request_batchpE0s_0Bd_
FNDA:0,_RNCNCNCNvMs8_NtNtNtCs1hbFQVFAImq_10async_nats9jetstream8consumer4pullNtBb_6Stream6stream0s_00Bh_
FNDA:0,_RNCNCNCNvMs8_NtNtNtCs1hbFQVFAImq_10async_nats9jetstream8consumer4pullNtBb_6Stream6stream0s_0s2_0Bh_
FNDA:0,_RNCNCNCNvMs8_NtNtNtCs1hbFQVFAImq_10async_nats9jetstream8consumer4pullNtBb_6Stream6stream0s_0s4_0Bh_
FNDA:0,_RNCNCNCNvMs8_NtNtNtCs1hbFQVFAImq_10async_nats9jetstream8consumer4pullNtBb_6Stream6stream0s_0s5_0Bh_
FNDA:0,_RNCNCNCNvMs8_NtNtNtCs1hbFQVFAImq_10async_nats9jetstream8consumer4pullNtBb_6Stream6stream0s_0s_0Bh_
FNDA:0,_RNCNCNvMs2_NtNtNtCs1hbFQVFAImq_10async_nats9jetstream8consumer4pullINtBb_8ConsumerNtB9_13OrderedConfigE8messages00Bf_
FNDA:0,_RNCNCNvMs8_NtNtNtCs1hbFQVFAImq_10async_nats9jetstream8consumer4pullNtB9_6Stream6stream00Bf_
FNDA:0,_RNCNCNvMs8_NtNtNtCs1hbFQVFAImq_10async_nats9jetstream8consumer4pullNtB9_6Stream6stream0s_0Bf_
FNDA:0,_RNCNCNvMs_NtNtNtCs1hbFQVFAImq_10async_nats9jetstream8consumer4pullNtB8_5Batch5batch00Be_
FNDA:0,_RNCNCNvNtNtNtCs1hbFQVFAImq_10async_nats9jetstream8consumer4pull24recreate_consumer_stream00Bb_
FNDA:0,_RNCNCNvNtNtNtCs1hbFQVFAImq_10async_nats9jetstream8consumer4pull24recreate_consumer_stream0s0_0Bb_
FNDA:0,_RNCNCNvNtNtNtCs1hbFQVFAImq_10async_nats9jetstream8consumer4pull24recreate_consumer_stream0s1_0Bb_
FNDA:0,_RNCNCNvNtNtNtCs1hbFQVFAImq_10async_nats9jetstream8consumer4pull24recreate_consumer_stream0s_0Bb_
FNDA:0,_RNCNCNvXs1_NtNtNtCs1hbFQVFAImq_10async_nats9jetstream8consumer4pullNtB9_8SequenceNtNtCscxja3U2MsTJ_12futures_core6stream6Stream9poll_next00Bf_
FNDA:0,_RNCNCNvXs1_NtNtNtCs1hbFQVFAImq_10async_nats9jetstream8consumer4pullNtB9_8SequenceNtNtCscxja3U2MsTJ_12futures_core6stream6Stream9poll_next0s_0Bf_
FNDA:0,_RNCNCNvXs6_NtNtNtCs1hbFQVFAImq_10async_nats9jetstream8consumer4pullNtB9_7OrderedNtNtCscxja3U2MsTJ_12futures_core6stream6Stream9poll_nexts_00Bf_
FNDA:0,_RNCNvMNtNtNtCs1hbFQVFAImq_10async_nats9jetstream8consumer4pullINtB6_8ConsumerNtB4_6ConfigE8messages0Ba_
FNDA:0,_RNCNvMNtNtNtCs1hbFQVFAImq_10async_nats9jetstream8consumer4pullINtB6_8ConsumerNtB4_6ConfigE8sequence0Ba_
FNDA:0,_RNCNvMs2_NtNtNtCs1hbFQVFAImq_10async_nats9jetstream8consumer4pullINtB9_8ConsumerNtB7_13OrderedConfigE8messages0Bd_
FNDA:0,_RNCNvMs8_NtNtNtCs1hbFQVFAImq_10async_nats9jetstream8consumer4pullNtB7_6Stream6stream0Bd_
FNDA:0,_RNCNvMs_NtNtNtCs1hbFQVFAImq_10async_nats9jetstream8consumer4pullNtB6_5Batch5batch0Bc_
FNDA:0,_RNCNvMsd_NtNtNtCs1hbFQVFAImq_10async_nats9jetstream8consumer4pullNtB7_13StreamBuilder8messages0Bd_
FNDA:0,_RNCNvMse_NtNtNtCs1hbFQVFAImq_10async_nats9jetstream8consumer4pullNtB7_12FetchBuilder8messages0Bd_
FNDA:0,_RNCNvMsf_NtNtNtCs1hbFQVFAImq_10async_nats9jetstream8consumer4pullNtB7_12BatchBuilder8messages0Bd_
FNDA:0,_RNCNvNtNtNtCs1hbFQVFAImq_10async_nats9jetstream8consumer4pull24recreate_consumer_stream0B9_
FNDA:0,_RNCNvXs1_NtNtNtCs1hbFQVFAImq_10async_nats9jetstream8consumer4pullNtB7_8SequenceNtNtCscxja3U2MsTJ_12futures_core6stream6Stream9poll_next0Bd_
FNDA:0,_RNCNvXs1_NtNtNtCs1hbFQVFAImq_10async_nats9jetstream8consumer4pullNtB7_8SequenceNtNtCscxja3U2MsTJ_12futures_core6stream6Stream9poll_nexts0_0Bd_
FNDA:0,_RNCNvXs1_NtNtNtCs1hbFQVFAImq_10async_nats9jetstream8consumer4pullNtB7_8SequenceNtNtCscxja3U2MsTJ_12futures_core6stream6Stream9poll_nexts_0Bd_
FNDA:0,_RNCNvXs6_NtNtNtCs1hbFQVFAImq_10async_nats9jetstream8consumer4pullNtB7_7OrderedNtNtCscxja3U2MsTJ_12futures_core6stream6Stream9poll_next0Bd_
FNDA:0,_RNCNvXs6_NtNtNtCs1hbFQVFAImq_10async_nats9jetstream8consumer4pullNtB7_7OrderedNtNtCscxja3U2MsTJ_12futures_core6stream6Stream9poll_nexts_0Bd_
FNDA:0,_RNCNvXsc_NtNtNtCs1hbFQVFAImq_10async_nats9jetstream8consumer4pullNtB7_6StreamNtNtCscxja3U2MsTJ_12futures_core6stream6Stream9poll_next0Bd_
FNDA:0,_RNCNvXsc_NtNtNtCs1hbFQVFAImq_10async_nats9jetstream8consumer4pullNtB7_6StreamNtNtCscxja3U2MsTJ_12futures_core6stream6Stream9poll_nexts0_0Bd_
FNDA:0,_RNCNvXsc_NtNtNtCs1hbFQVFAImq_10async_nats9jetstream8consumer4pullNtB7_6StreamNtNtCscxja3U2MsTJ_12futures_core6stream6Stream9poll_nexts1_0Bd_
FNDA:0,_RNCNvXsc_NtNtNtCs1hbFQVFAImq_10async_nats9jetstream8consumer4pullNtB7_6StreamNtNtCscxja3U2MsTJ_12futures_core6stream6Stream9poll_nexts2_0Bd_
FNDA:0,_RNCNvXsc_NtNtNtCs1hbFQVFAImq_10async_nats9jetstream8consumer4pullNtB7_6StreamNtNtCscxja3U2MsTJ_12futures_core6stream6Stream9poll_nexts3_0Bd_
FNDA:0,_RNCNvXsc_NtNtNtCs1hbFQVFAImq_10async_nats9jetstream8consumer4pullNtB7_6StreamNtNtCscxja3U2MsTJ_12futures_core6stream6Stream9poll_nexts4_0Bd_
FNDA:0,_RNCNvXsc_NtNtNtCs1hbFQVFAImq_10async_nats9jetstream8consumer4pullNtB7_6StreamNtNtCscxja3U2MsTJ_12futures_core6stream6Stream9poll_nexts_0Bd_
FNDA:0,_RNvMNtNtNtCs1hbFQVFAImq_10async_nats9jetstream8consumer4pullINtB4_8ConsumerNtB2_6ConfigE5batch
FNDA:0,_RNvMNtNtNtCs1hbFQVFAImq_10async_nats9jetstream8consumer4pullINtB4_8ConsumerNtB2_6ConfigE5fetch
FNDA:0,_RNvMNtNtNtCs1hbFQVFAImq_10async_nats9jetstream8consumer4pullINtB4_8ConsumerNtB2_6ConfigE6stream
FNDA:0,_RNvMNtNtNtCs1hbFQVFAImq_10async_nats9jetstream8consumer4pullINtB4_8ConsumerNtB2_6ConfigE8messages
FNDA:0,_RNvMNtNtNtCs1hbFQVFAImq_10async_nats9jetstream8consumer4pullINtB4_8ConsumerNtB2_6ConfigE8sequence
FNDA:0,_RNvMs2_NtNtNtCs1hbFQVFAImq_10async_nats9jetstream8consumer4pullINtB7_8ConsumerNtB5_13OrderedConfigE8messages
FNDA:0,_RNvMs8_NtNtNtCs1hbFQVFAImq_10async_nats9jetstream8consumer4pullNtB5_6Stream6stream
FNDA:0,_RNvMs_NtNtNtCs1hbFQVFAImq_10async_nats9jetstream8consumer4pullNtB4_5Batch5batch
FNDA:0,_RNvMsd_NtNtNtCs1hbFQVFAImq_10async_nats9jetstream8consumer4pullNtB5_13StreamBuilder11min_pending
FNDA:0,_RNvMsd_NtNtNtCs1hbFQVFAImq_10async_nats9jetstream8consumer4pullNtB5_13StreamBuilder15min_ack_pending
FNDA:0,_RNvMsd_NtNtNtCs1hbFQVFAImq_10async_nats9jetstream8consumer4pullNtB5_13StreamBuilder19max_bytes_per_batch
FNDA:0,_RNvMsd_NtNtNtCs1hbFQVFAImq_10async_nats9jetstream8consumer4pullNtB5_13StreamBuilder22max_messages_per_batch
FNDA:0,_RNvMsd_NtNtNtCs1hbFQVFAImq_10async_nats9jetstream8consumer4pullNtB5_13StreamBuilder3new
FNDA:0,_RNvMsd_NtNtNtCs1hbFQVFAImq_10async_nats9jetstream8consumer4pullNtB5_13StreamBuilder7expires
FNDA:0,_RNvMsd_NtNtNtCs1hbFQVFAImq_10async_nats9jetstream8consumer4pullNtB5_13StreamBuilder8messages
FNDA:0,_RNvMsd_NtNtNtCs1hbFQVFAImq_10async_nats9jetstream8consumer4pullNtB5_13StreamBuilder8priority
FNDA:0,_RNvMsd_NtNtNtCs1hbFQVFAImq_10async_nats9jetstream8consumer4pullNtB5_13StreamBuilder9heartbeat
FNDA:0,_RNvMse_NtNtNtCs1hbFQVFAImq_10async_nats9jetstream8consumer4pullNtB5_12FetchBuilder11min_pending
FNDA:0,_RNvMse_NtNtNtCs1hbFQVFAImq_10async_nats9jetstream8consumer4pullNtB5_12FetchBuilder12max_messages
FNDA:0,_RNvMse_NtNtNtCs1hbFQVFAImq_10async_nats9jetstream8consumer4pullNtB5_12FetchBuilder15min_ack_pending
FNDA:0,_RNvMse_NtNtNtCs1hbFQVFAImq_10async_nats9jetstream8consumer4pullNtB5_12FetchBuilder3new
FNDA:0,_RNvMse_NtNtNtCs1hbFQVFAImq_10async_nats9jetstream8consumer4pullNtB5_12FetchBuilder7expires
FNDA:0,_RNvMse_NtNtNtCs1hbFQVFAImq_10async_nats9jetstream8consumer4pullNtB5_12FetchBuilder8messages
FNDA:0,_RNvMse_NtNtNtCs1hbFQVFAImq_10async_nats9jetstream8consumer4pullNtB5_12FetchBuilder8priority
FNDA:0,_RNvMse_NtNtNtCs1hbFQVFAImq_10async_nats9jetstream8consumer4pullNtB5_12FetchBuilder9heartbeat
FNDA:0,_RNvMse_NtNtNtCs1hbFQVFAImq_10async_nats9jetstream8consumer4pullNtB5_12FetchBuilder9max_bytes
FNDA:0,_RNvMsf_NtNtNtCs1hbFQVFAImq_10async_nats9jetstream8consumer4pullNtB5_12BatchBuilder11min_pending
FNDA:0,_RNvMsf_NtNtNtCs1hbFQVFAImq_10async_nats9jetstream8consumer4pullNtB5_12BatchBuilder12max_messages
FNDA:0,_RNvMsf_NtNtNtCs1hbFQVFAImq_10async_nats9jetstream8consumer4pullNtB5_12BatchBuilder15min_ack_pending
FNDA:0,_RNvMsf_NtNtNtCs1hbFQVFAImq_10async_nats9jetstream8consumer4pullNtB5_12BatchBuilder3new
FNDA:0,_RNvMsf_NtNtNtCs1hbFQVFAImq_10async_nats9jetstream8consumer4pullNtB5_12BatchBuilder7expires
FNDA:0,_RNvMsf_NtNtNtCs1hbFQVFAImq_10async_nats9jetstream8consumer4pullNtB5_12BatchBuilder8messages
FNDA:0,_RNvMsf_NtNtNtCs1hbFQVFAImq_10async_nats9jetstream8consumer4pullNtB5_12BatchBuilder9heartbeat
FNDA:0,_RNvMsf_NtNtNtCs1hbFQVFAImq_10async_nats9jetstream8consumer4pullNtB5_12BatchBuilder9max_bytes
FNDA:0,_RNvNtNtNtCs1hbFQVFAImq_10async_nats9jetstream8consumer4pull24recreate_consumer_stream
FNDA:0,_RNvXs0_NtNtNtCs1hbFQVFAImq_10async_nats9jetstream8consumer4pullNtB5_5BatchNtNtCscxja3U2MsTJ_12futures_core6stream6Stream9poll_next
FNDA:0,_RNvXs1_NtNtNtCs1hbFQVFAImq_10async_nats9jetstream8consumer4pullNtB5_8SequenceNtNtCscxja3U2MsTJ_12futures_core6stream6Stream9poll_next
FNDA:0,_RNvXs3_NtNtNtCs1hbFQVFAImq_10async_nats9jetstream8consumer4pullNtB5_6ConfigINtNtCs2CqrNpCrSUr_4core7convert4FromNtB5_13OrderedConfigE4from
FNDA:0,_RNvXs4_NtNtNtCs1hbFQVFAImq_10async_nats9jetstream8consumer4pullNtB5_13OrderedConfigNtB7_12FromConsumer24try_from_consumer_config
FNDA:0,_RNvXs5_NtNtNtCs1hbFQVFAImq_10async_nats9jetstream8consumer4pullNtB5_13OrderedConfigNtB7_18IntoConsumerConfig20into_consumer_config
FNDA:0,_RNvXs6_NtNtNtCs1hbFQVFAImq_10async_nats9jetstream8consumer4pullNtB5_7OrderedNtNtCscxja3U2MsTJ_12futures_core6stream6Stream9poll_next
FNDA:0,_RNvXs7_NtNtNtCs1hbFQVFAImq_10async_nats9jetstream8consumer4pullNtB5_6StreamNtNtNtCs2CqrNpCrSUr_4core3ops4drop4Drop4drop
FNDA:0,_RNvXs9_NtNtNtCs1hbFQVFAImq_10async_nats9jetstream8consumer4pullNtB5_16OrderedErrorKindNtNtCs2CqrNpCrSUr_4core3fmt7Display3fmt
FNDA:0,_RNvXsa_NtNtNtCs1hbFQVFAImq_10async_nats9jetstream8consumer4pullINtNtBb_5error5ErrorNtB5_16OrderedErrorKindEINtNtCs2CqrNpCrSUr_4core7convert4FromIB10_NtB5_17MessagesErrorKindEE4from
FNDA:0,_RNvXsb_NtNtNtCs1hbFQVFAImq_10async_nats9jetstream8consumer4pullNtB5_17MessagesErrorKindNtNtCs2CqrNpCrSUr_4core3fmt7Display3fmt
FNDA:0,_RNvXsc_NtNtNtCs1hbFQVFAImq_10async_nats9jetstream8consumer4pullNtB5_6StreamNtNtCscxja3U2MsTJ_12futures_core6stream6Stream9poll_next
FNDA:0,_RNvXsg_NtNtNtCs1hbFQVFAImq_10async_nats9jetstream8consumer4pullRNtB5_6ConfigNtB7_18IntoConsumerConfig20into_consumer_config
FNDA:0,_RNvXsh_NtNtNtCs1hbFQVFAImq_10async_nats9jetstream8consumer4pullNtB5_6ConfigNtB7_18IntoConsumerConfig20into_consumer_config
FNDA:0,_RNvXsi_NtNtNtCs1hbFQVFAImq_10async_nats9jetstream8consumer4pullNtB5_6ConfigNtB7_12FromConsumer24try_from_consumer_config
FNDA:0,_RNvXsj_NtNtNtCs1hbFQVFAImq_10async_nats9jetstream8consumer4pullNtB5_21BatchRequestErrorKindNtNtCs2CqrNpCrSUr_4core3fmt7Display3fmt
FNDA:0,_RNvXsk_NtNtNtCs1hbFQVFAImq_10async_nats9jetstream8consumer4pullNtB5_14BatchErrorKindNtNtCs2CqrNpCrSUr_4core3fmt7Display3fmt
FNDA:0,_RNvXsl_NtNtNtCs1hbFQVFAImq_10async_nats9jetstream8consumer4pullINtNtBb_5error5ErrorNtB5_14BatchErrorKindEINtNtCs2CqrNpCrSUr_4core7convert4FromNtNtBb_6client14SubscribeErrorE4from
FNDA:0,_RNvXsm_NtNtNtCs1hbFQVFAImq_10async_nats9jetstream8consumer4pullINtNtBb_5error5ErrorNtB5_14BatchErrorKindEINtNtCs2CqrNpCrSUr_4core7convert4FromIB10_NtB5_21BatchRequestErrorKindEE4from
FNDA:0,_RNvXsn_NtNtNtCs1hbFQVFAImq_10async_nats9jetstream8consumer4pullNtB5_25ConsumerRecreateErrorKindNtNtCs2CqrNpCrSUr_4core3fmt7Display3fmt
FNDA:21,_RNvMs8_NtNtNtCs6qhVEmoZJ2z_10async_nats9jetstream8consumer4pullNtB5_6Stream6stream
FNDA:105,_RNvMs_NtNtNtCs6qhVEmoZJ2z_10async_nats9jetstream8consumer4pullNtB4_5Batch5batch
FNDA:1,_RNvMsd_NtNtNtCs6qhVEmoZJ2z_10async_nats9jetstream8consumer4pullNtB5_13StreamBuilder11min_pending
FNDA:1,_RNvMsd_NtNtNtCs6qhVEmoZJ2z_10async_nats9jetstream8consumer4pullNtB5_13StreamBuilder15min_ack_pending
FNDA:1,_RNvMsd_NtNtNtCs6qhVEmoZJ2z_10async_nats9jetstream8consumer4pullNtB5_13StreamBuilder19max_bytes_per_batch
FNDA:7,_RNvMsd_NtNtNtCs6qhVEmoZJ2z_10async_nats9jetstream8consumer4pullNtB5_13StreamBuilder22max_messages_per_batch
FNDA:12,_RNvMsd_NtNtNtCs6qhVEmoZJ2z_10async_nats9jetstream8consumer4pullNtB5_13StreamBuilder3new
FNDA:8,_RNvMsd_NtNtNtCs6qhVEmoZJ2z_10async_nats9jetstream8consumer4pullNtB5_13StreamBuilder7expires
FNDA:12,_RNvMsd_NtNtNtCs6qhVEmoZJ2z_10async_nats9jetstream8consumer4pullNtB5_13StreamBuilder8messages
FNDA:2,_RNvMsd_NtNtNtCs6qhVEmoZJ2z_10async_nats9jetstream8consumer4pullNtB5_13StreamBuilder8priority
FNDA:4,_RNvMsd_NtNtNtCs6qhVEmoZJ2z_10async_nats9jetstream8consumer4pullNtB5_13StreamBuilder9heartbeat
FNDA:0,_RNvMse_NtNtNtCs6qhVEmoZJ2z_10async_nats9jetstream8consumer4pullNtB5_12FetchBuilder11min_pending
FNDA:4,_RNvMse_NtNtNtCs6qhVEmoZJ2z_10async_nats9jetstream8consumer4pullNtB5_12FetchBuilder12max_messages
FNDA:0,_RNvMse_NtNtNtCs6qhVEmoZJ2z_10async_nats9jetstream8consumer4pullNtB5_12FetchBuilder15min_ack_pending
FNDA:4,_RNvMse_NtNtNtCs6qhVEmoZJ2z_10async_nats9jetstream8consumer4pullNtB5_12FetchBuilder3new
FNDA:0,_RNvMse_NtNtNtCs6qhVEmoZJ2z_10async_nats9jetstream8consumer4pullNtB5_12FetchBuilder7expires
FNDA:4,_RNvMse_NtNtNtCs6qhVEmoZJ2z_10async_nats9jetstream8consumer4pullNtB5_12FetchBuilder8messages
FNDA:0,_RNvMse_NtNtNtCs6qhVEmoZJ2z_10async_nats9jetstream8consumer4pullNtB5_12FetchBuilder8priority
FNDA:0,_RNvMse_NtNtNtCs6qhVEmoZJ2z_10async_nats9jetstream8consumer4pullNtB5_12FetchBuilder9heartbeat
FNDA:0,_RNvMse_NtNtNtCs6qhVEmoZJ2z_10async_nats9jetstream8consumer4pullNtB5_12FetchBuilder9max_bytes
FNDA:0,_RNvMsf_NtNtNtCs6qhVEmoZJ2z_10async_nats9jetstream8consumer4pullNtB5_12BatchBuilder11min_pending
FNDA:101,_RNvMsf_NtNtNtCs6qhVEmoZJ2z_10async_nats9jetstream8consumer4pullNtB5_12BatchBuilder12max_messages
FNDA:0,_RNvMsf_NtNtNtCs6qhVEmoZJ2z_10async_nats9jetstream8consumer4pullNtB5_12BatchBuilder15min_ack_pending
FNDA:101,_RNvMsf_NtNtNtCs6qhVEmoZJ2z_10async_nats9jetstream8consumer4pullNtB5_12BatchBuilder3new
FNDA:100,_RNvMsf_NtNtNtCs6qhVEmoZJ2z_10async_nats9jetstream8consumer4pullNtB5_12BatchBuilder7expires
FNDA:101,_RNvMsf_NtNtNtCs6qhVEmoZJ2z_10async_nats9jetstream8consumer4pullNtB5_12BatchBuilder8messages
FNDA:0,_RNvMsf_NtNtNtCs6qhVEmoZJ2z_10async_nats9jetstream8consumer4pullNtB5_12BatchBuilder9heartbeat
FNDA:0,_RNvMsf_NtNtNtCs6qhVEmoZJ2z_10async_nats9jetstream8consumer4pullNtB5_12BatchBuilder9max_bytes
FNDA:0,_RNvNtNtNtCs6qhVEmoZJ2z_10async_nats9jetstream8consumer4pull24recreate_consumer_stream
FNDA:2240,_RNvXs0_NtNtNtCs6qhVEmoZJ2z_10async_nats9jetstream8consumer4pullNtB5_5BatchNtNtCscxja3U2MsTJ_12futures_core6stream6Stream9poll_next
FNDA:0,_RNvXs1_NtNtNtCs6qhVEmoZJ2z_10async_nats9jetstream8consumer4pullNtB5_8SequenceNtNtCscxja3U2MsTJ_12futures_core6stream6Stream9poll_next
FNDA:1,_RNvXs3_NtNtNtCs6qhVEmoZJ2z_10async_nats9jetstream8consumer4pullNtB5_6ConfigINtNtCs2CqrNpCrSUr_4core7convert4FromNtB5_13OrderedConfigE4from
FNDA:1,_RNvXs4_NtNtNtCs6qhVEmoZJ2z_10async_nats9jetstream8consumer4pullNtB5_13OrderedConfigNtB7_12FromConsumer24try_from_consumer_config
FNDA:1,_RNvXs5_NtNtNtCs6qhVEmoZJ2z_10async_nats9jetstream8consumer4pullNtB5_13OrderedConfigNtB7_18IntoConsumerConfig20into_consumer_config
FNDA:1016,_RNvXs6_NtNtNtCs6qhVEmoZJ2z_10async_nats9jetstream8consumer4pullNtB5_7OrderedNtNtCscxja3U2MsTJ_12futures_core6stream6Stream9poll_next
FNDA:0,_RNvXs9_NtNtNtCs6qhVEmoZJ2z_10async_nats9jetstream8consumer4pullNtB5_16OrderedErrorKindNtNtCs2CqrNpCrSUr_4core3fmt7Display3fmt
FNDA:0,_RNvXsb_NtNtNtCs6qhVEmoZJ2z_10async_nats9jetstream8consumer4pullNtB5_17MessagesErrorKindNtNtCs2CqrNpCrSUr_4core3fmt7Display3fmt
FNDA:6090,_RNvXsc_NtNtNtCs6qhVEmoZJ2z_10async_nats9jetstream8consumer4pullNtB5_6StreamNtNtCscxja3U2MsTJ_12futures_core6stream6Stream9poll_next
FNDA:0,_RNvXsg_NtNtNtCs6qhVEmoZJ2z_10async_nats9jetstream8consumer4pullRNtB5_6ConfigNtB7_18IntoConsumerConfig20into_consumer_config
FNDA:1484,_RNvXsh_NtNtNtCs6qhVEmoZJ2z_10async_nats9jetstream8consumer4pullNtB5_6ConfigNtB7_18IntoConsumerConfig20into_consumer_config
FNDA:1496,_RNvXsi_NtNtNtCs6qhVEmoZJ2z_10async_nats9jetstream8consumer4pullNtB5_6ConfigNtB7_12FromConsumer24try_from_consumer_config
FNDA:0,_RNvXsj_NtNtNtCs6qhVEmoZJ2z_10async_nats9jetstream8consumer4pullNtB5_21BatchRequestErrorKindNtNtCs2CqrNpCrSUr_4core3fmt7Display3fmt
FNDA:0,_RNvXsk_NtNtNtCs6qhVEmoZJ2z_10async_nats9jetstream8consumer4pullNtB5_14BatchErrorKindNtNtCs2CqrNpCrSUr_4core3fmt7Display3fmt
FNDA:0,_RNvXsn_NtNtNtCs6qhVEmoZJ2z_10async_nats9jetstream8consumer4pullNtB5_25ConsumerRecreateErrorKindNtNtCs2CqrNpCrSUr_4core3fmt7Display3fmt
FNDA:0,_RINvMNtNtNtCs6qhVEmoZJ2z_10async_nats9jetstream8consumer4pullINtB5_8ConsumerNtB3_6ConfigE13request_batchpEB9_
FNDA:0,_RINvMsd_NtNtNtCs6qhVEmoZJ2z_10async_nats9jetstream8consumer4pullNtB6_13StreamBuilder5grouppEBc_
FNDA:0,_RINvMse_NtNtNtCs6qhVEmoZJ2z_10async_nats9jetstream8consumer4pullNtB6_12FetchBuilder5grouppEBc_
FNDA:0,_RINvMsf_NtNtNtCs6qhVEmoZJ2z_10async_nats9jetstream8consumer4pullNtB6_12BatchBuilder5grouppEBc_
FNDA:0,_RNCINvMNtNtNtCs6qhVEmoZJ2z_10async_nats9jetstream8consumer4pullINtB7_8ConsumerNtB5_6ConfigE13request_batchpE0Bb_
FNDA:0,_RNCNCINvMNtNtNtCs6qhVEmoZJ2z_10async_nats9jetstream8consumer4pullINtB9_8ConsumerNtB7_6ConfigE13request_batchpE00Bd_
FNDA:0,_RNCNCINvMNtNtNtCs6qhVEmoZJ2z_10async_nats9jetstream8consumer4pullINtB9_8ConsumerNtB7_6ConfigE13request_batchpE0s_0Bd_
FNDA:0,_RNCNCNvMs2_NtNtNtCs6qhVEmoZJ2z_10async_nats9jetstream8consumer4pullINtBb_8ConsumerNtB9_13OrderedConfigE8messages00Bf_
FNDA:0,_RNCNCNvMs_NtNtNtCs6qhVEmoZJ2z_10async_nats9jetstream8consumer4pullNtB8_5Batch5batch00Be_
FNDA:0,_RNCNvMNtNtNtCs6qhVEmoZJ2z_10async_nats9jetstream8consumer4pullINtB6_8ConsumerNtB4_6ConfigE8messages0Ba_
FNDA:0,_RNCNvMs2_NtNtNtCs6qhVEmoZJ2z_10async_nats9jetstream8consumer4pullINtB9_8ConsumerNtB7_13OrderedConfigE8messages0Bd_
FNDA:0,_RNCNvMs_NtNtNtCs6qhVEmoZJ2z_10async_nats9jetstream8consumer4pullNtB6_5Batch5batch0Bc_
FNDA:0,_RNCNvMsd_NtNtNtCs6qhVEmoZJ2z_10async_nats9jetstream8consumer4pullNtB7_13StreamBuilder8messages0Bd_
FNDA:0,_RNCNvMse_NtNtNtCs6qhVEmoZJ2z_10async_nats9jetstream8consumer4pullNtB7_12FetchBuilder8messages0Bd_
FNDA:0,_RNCNvMsf_NtNtNtCs6qhVEmoZJ2z_10async_nats9jetstream8consumer4pullNtB7_12BatchBuilder8messages0Bd_
FNDA:0,_RNvXsa_NtNtNtCs6qhVEmoZJ2z_10async_nats9jetstream8consumer4pullINtNtBb_5error5ErrorNtB5_16OrderedErrorKindEINtNtCs2CqrNpCrSUr_4core7convert4FromIB10_NtB5_17MessagesErrorKindEE4from
FNDA:0,_RNvXsl_NtNtNtCs6qhVEmoZJ2z_10async_nats9jetstream8consumer4pullINtNtBb_5error5ErrorNtB5_14BatchErrorKindEINtNtCs2CqrNpCrSUr_4core7convert4FromNtNtBb_6client14SubscribeErrorE4from
FNDA:0,_RNvXsm_NtNtNtCs6qhVEmoZJ2z_10async_nats9jetstream8consumer4pullINtNtBb_5error5ErrorNtB5_14BatchErrorKindEINtNtCs2CqrNpCrSUr_4core7convert4FromIB10_NtB5_21BatchRequestErrorKindEE4from
FNDA:730,_RINvNtNtNtCs6qhVEmoZJ2z_10async_nats9jetstream8consumer4pull10is_defaultNtNtCs2CqrNpCrSUr_4core4time8DurationEB8_
FNDA:730,_RINvNtNtNtCs6qhVEmoZJ2z_10async_nats9jetstream8consumer4pull10is_defaultbEB8_
FNDA:299,_RNCNCNCNvMs8_NtNtNtCs6qhVEmoZJ2z_10async_nats9jetstream8consumer4pullNtBb_6Stream6stream0s_00Bh_
FNDA:0,_RNCNCNCNvMs8_NtNtNtCs6qhVEmoZJ2z_10async_nats9jetstream8consumer4pullNtBb_6Stream6stream0s_0s2_0Bh_
FNDA:1,_RNCNCNCNvMs8_NtNtNtCs6qhVEmoZJ2z_10async_nats9jetstream8consumer4pullNtBb_6Stream6stream0s_0s4_0Bh_
FNDA:0,_RNCNCNCNvMs8_NtNtNtCs6qhVEmoZJ2z_10async_nats9jetstream8consumer4pullNtBb_6Stream6stream0s_0s5_0Bh_
FNDA:0,_RNCNCNCNvMs8_NtNtNtCs6qhVEmoZJ2z_10async_nats9jetstream8consumer4pullNtBb_6Stream6stream0s_0s_0Bh_
FNDA:0,_RNCNCNvMs8_NtNtNtCs6qhVEmoZJ2z_10async_nats9jetstream8consumer4pullNtB9_6Stream6stream00Bf_
FNDA:21,_RNCNCNvMs8_NtNtNtCs6qhVEmoZJ2z_10async_nats9jetstream8consumer4pullNtB9_6Stream6stream0s_0Bf_
FNDA:0,_RNCNCNvNtNtNtCs6qhVEmoZJ2z_10async_nats9jetstream8consumer4pull24recreate_consumer_stream00Bb_
FNDA:0,_RNCNCNvNtNtNtCs6qhVEmoZJ2z_10async_nats9jetstream8consumer4pull24recreate_consumer_stream0s0_0Bb_
FNDA:0,_RNCNCNvNtNtNtCs6qhVEmoZJ2z_10async_nats9jetstream8consumer4pull24recreate_consumer_stream0s1_0Bb_
FNDA:0,_RNCNCNvNtNtNtCs6qhVEmoZJ2z_10async_nats9jetstream8consumer4pull24recreate_consumer_stream0s_0Bb_
FNDA:0,_RNCNCNvXs1_NtNtNtCs6qhVEmoZJ2z_10async_nats9jetstream8consumer4pullNtB9_8SequenceNtNtCscxja3U2MsTJ_12futures_core6stream6Stream9poll_next00Bf_
FNDA:0,_RNCNCNvXs1_NtNtNtCs6qhVEmoZJ2z_10async_nats9jetstream8consumer4pullNtB9_8SequenceNtNtCscxja3U2MsTJ_12futures_core6stream6Stream9poll_next0s_0Bf_
FNDA:0,_RNCNCNvXs6_NtNtNtCs6qhVEmoZJ2z_10async_nats9jetstream8consumer4pullNtB9_7OrderedNtNtCscxja3U2MsTJ_12futures_core6stream6Stream9poll_nexts_00Bf_
FNDA:0,_RNCNvMNtNtNtCs6qhVEmoZJ2z_10async_nats9jetstream8consumer4pullINtB6_8ConsumerNtB4_6ConfigE8sequence0Ba_
FNDA:21,_RNCNvMs8_NtNtNtCs6qhVEmoZJ2z_10async_nats9jetstream8consumer4pullNtB7_6Stream6stream0Bd_
FNDA:0,_RNCNvNtNtNtCs6qhVEmoZJ2z_10async_nats9jetstream8consumer4pull24recreate_consumer_stream0B9_
FNDA:0,_RNCNvXs1_NtNtNtCs6qhVEmoZJ2z_10async_nats9jetstream8consumer4pullNtB7_8SequenceNtNtCscxja3U2MsTJ_12futures_core6stream6Stream9poll_next0Bd_
FNDA:0,_RNCNvXs1_NtNtNtCs6qhVEmoZJ2z_10async_nats9jetstream8consumer4pullNtB7_8SequenceNtNtCscxja3U2MsTJ_12futures_core6stream6Stream9poll_nexts0_0Bd_
FNDA:0,_RNCNvXs1_NtNtNtCs6qhVEmoZJ2z_10async_nats9jetstream8consumer4pullNtB7_8SequenceNtNtCscxja3U2MsTJ_12futures_core6stream6Stream9poll_nexts_0Bd_
FNDA:0,_RNCNvXs6_NtNtNtCs6qhVEmoZJ2z_10async_nats9jetstream8consumer4pullNtB7_7OrderedNtNtCscxja3U2MsTJ_12futures_core6stream6Stream9poll_next0Bd_
FNDA:0,_RNCNvXs6_NtNtNtCs6qhVEmoZJ2z_10async_nats9jetstream8consumer4pullNtB7_7OrderedNtNtCscxja3U2MsTJ_12futures_core6stream6Stream9poll_nexts_0Bd_
FNDA:3553,_RNCNvXsc_NtNtNtCs6qhVEmoZJ2z_10async_nats9jetstream8consumer4pullNtB7_6StreamNtNtCscxja3U2MsTJ_12futures_core6stream6Stream9poll_next0Bd_
FNDA:120,_RNCNvXsc_NtNtNtCs6qhVEmoZJ2z_10async_nats9jetstream8consumer4pullNtB7_6StreamNtNtCscxja3U2MsTJ_12futures_core6stream6Stream9poll_nexts0_0Bd_
FNDA:0,_RNCNvXsc_NtNtNtCs6qhVEmoZJ2z_10async_nats9jetstream8consumer4pullNtB7_6StreamNtNtCscxja3U2MsTJ_12futures_core6stream6Stream9poll_nexts1_0Bd_
FNDA:120,_RNCNvXsc_NtNtNtCs6qhVEmoZJ2z_10async_nats9jetstream8consumer4pullNtB7_6StreamNtNtCscxja3U2MsTJ_12futures_core6stream6Stream9poll_nexts2_0Bd_
FNDA:120,_RNCNvXsc_NtNtNtCs6qhVEmoZJ2z_10async_nats9jetstream8consumer4pullNtB7_6StreamNtNtCscxja3U2MsTJ_12futures_core6stream6Stream9poll_nexts3_0Bd_
FNDA:0,_RNCNvXsc_NtNtNtCs6qhVEmoZJ2z_10async_nats9jetstream8consumer4pullNtB7_6StreamNtNtCscxja3U2MsTJ_12futures_core6stream6Stream9poll_nexts4_0Bd_
FNDA:120,_RNCNvXsc_NtNtNtCs6qhVEmoZJ2z_10async_nats9jetstream8consumer4pullNtB7_6StreamNtNtCscxja3U2MsTJ_12futures_core6stream6Stream9poll_nexts_0Bd_
FNDA:101,_RNvMNtNtNtCs6qhVEmoZJ2z_10async_nats9jetstream8consumer4pullINtB4_8ConsumerNtB2_6ConfigE5batch
FNDA:4,_RNvMNtNtNtCs6qhVEmoZJ2z_10async_nats9jetstream8consumer4pullINtB4_8ConsumerNtB2_6ConfigE5fetch
FNDA:12,_RNvMNtNtNtCs6qhVEmoZJ2z_10async_nats9jetstream8consumer4pullINtB4_8ConsumerNtB2_6ConfigE6stream
FNDA:8,_RNvMNtNtNtCs6qhVEmoZJ2z_10async_nats9jetstream8consumer4pullINtB4_8ConsumerNtB2_6ConfigE8messages
FNDA:0,_RNvMNtNtNtCs6qhVEmoZJ2z_10async_nats9jetstream8consumer4pullINtB4_8ConsumerNtB2_6ConfigE8sequence
FNDA:1,_RNvMs2_NtNtNtCs6qhVEmoZJ2z_10async_nats9jetstream8consumer4pullINtB7_8ConsumerNtB5_13OrderedConfigE8messages
FNDA:21,_RNvXs7_NtNtNtCs6qhVEmoZJ2z_10async_nats9jetstream8consumer4pullNtB5_6StreamNtNtNtCs2CqrNpCrSUr_4core3ops4drop4Drop4drop
FNDA:109,_RINvMNtNtNtCs6qhVEmoZJ2z_10async_nats9jetstream8consumer4pullINtB5_8ConsumerNtB3_6ConfigE13request_batchNtB3_11BatchConfigECsbhX8fe0itkR_15jetstream_tests
FNDA:4,_RINvMsd_NtNtNtCs6qhVEmoZJ2z_10async_nats9jetstream8consumer4pullNtB6_13StreamBuilder5groupReECsbhX8fe0itkR_15jetstream_tests
FNDA:109,_RNCINvMNtNtNtCs6qhVEmoZJ2z_10async_nats9jetstream8consumer4pullINtB7_8ConsumerNtB5_6ConfigE13request_batchNtB5_11BatchConfigE0CsbhX8fe0itkR_15jetstream_tests
FNDA:0,_RNCNCINvMNtNtNtCs6qhVEmoZJ2z_10async_nats9jetstream8consumer4pullINtB9_8ConsumerNtB7_6ConfigE13request_batchNtB7_11BatchConfigE00CsbhX8fe0itkR_15jetstream_tests
FNDA:0,_RNCNCINvMNtNtNtCs6qhVEmoZJ2z_10async_nats9jetstream8consumer4pullINtB9_8ConsumerNtB7_6ConfigE13request_batchNtB7_11BatchConfigE0s_0CsbhX8fe0itkR_15jetstream_tests
FNDA:0,_RNCNCNvMs2_NtNtNtCs6qhVEmoZJ2z_10async_nats9jetstream8consumer4pullINtBb_8ConsumerNtB9_13OrderedConfigE8messages00CsbhX8fe0itkR_15jetstream_tests
FNDA:101,_RNCNCNvMs_NtNtNtCs6qhVEmoZJ2z_10async_nats9jetstream8consumer4pullNtB8_5Batch5batch00CsbhX8fe0itkR_15jetstream_tests
FNDA:8,_RNCNvMNtNtNtCs6qhVEmoZJ2z_10async_nats9jetstream8consumer4pullINtB6_8ConsumerNtB4_6ConfigE8messages0CsbhX8fe0itkR_15jetstream_tests
FNDA:1,_RNCNvMs2_NtNtNtCs6qhVEmoZJ2z_10async_nats9jetstream8consumer4pullINtB9_8ConsumerNtB7_13OrderedConfigE8messages0CsbhX8fe0itkR_15jetstream_tests
FNDA:105,_RNCNvMs_NtNtNtCs6qhVEmoZJ2z_10async_nats9jetstream8consumer4pullNtB6_5Batch5batch0CsbhX8fe0itkR_15jetstream_tests
FNDA:12,_RNCNvMsd_NtNtNtCs6qhVEmoZJ2z_10async_nats9jetstream8consumer4pullNtB7_13StreamBuilder8messages0CsbhX8fe0itkR_15jetstream_tests
FNDA:4,_RNCNvMse_NtNtNtCs6qhVEmoZJ2z_10async_nats9jetstream8consumer4pullNtB7_12FetchBuilder8messages0CsbhX8fe0itkR_15jetstream_tests
FNDA:101,_RNCNvMsf_NtNtNtCs6qhVEmoZJ2z_10async_nats9jetstream8consumer4pullNtB7_12BatchBuilder8messages0CsbhX8fe0itkR_15jetstream_tests
FNF:99
FNH:52
DA:91,8
DA:92,8
DA:93,8
DA:94,8
DA:95,8
DA:96,8
DA:97,8
DA:98,8
DA:99,8
DA:100,8
DA:101,8
DA:102,8
DA:103,8
DA:104,8
DA:105,8
DA:106,8
DA:107,8
DA:108,8
DA:144,12
DA:145,12
DA:146,12
DA:148,109
DA:149,109
DA:150,109
DA:151,109
DA:152,109
DA:153,109
DA:154,109
DA:155,109
DA:159,109
DA:160,109
DA:162,109
DA:163,109
DA:164,109
DA:165,109
DA:166,109
DA:167,109
DA:168,109
DA:169,109
DA:219,4
DA:220,4
DA:221,4
DA:264,101
DA:265,101
DA:266,101
DA:311,0
DA:312,0
DA:313,0
DA:314,0
DA:318,0
DA:319,0
DA:320,0
DA:321,0
DA:322,0
DA:323,0
DA:324,0
DA:326,0
DA:327,0
DA:328,0
DA:329,0
DA:330,0
DA:331,0
DA:332,0
DA:333,0
DA:345,105
DA:346,105
DA:347,105
DA:348,105
DA:350,105
DA:351,101
DA:352,101
DA:354,101
DA:356,105
DA:357,105
DA:358,105
DA:359,105
DA:360,105
DA:361,105
DA:362,105
DA:363,105
DA:369,2240
DA:370,2240
DA:371,2240
DA:372,2240
DA:373,2240
DA:374,0
DA:375,2240
DA:376,2240
DA:377,1
DA:378,1
DA:379,2239
DA:380,2239
DA:381,2202
DA:383,0
DA:389,0
DA:390,0
DA:392,2202
DA:394,37
DA:395,2239
DA:396,1135
DA:397,1135
DA:399,101
DA:400,101
DA:401,101
DA:404,0
DA:405,0
DA:411,0
DA:412,0
DA:413,0
DA:416,1034
DA:417,1034
DA:418,1034
DA:419,1034
DA:420,1034
DA:421,1034
DA:423,0
DA:424,0
DA:425,0
DA:426,0
DA:427,0
DA:428,0
DA:429,0
DA:432,0
DA:434,1104
DA:436,2240
DA:450,0
DA:451,0
DA:452,0
DA:453,0
DA:454,0
DA:456,0
DA:457,0
DA:458,0
DA:459,0
DA:461,0
DA:462,0
DA:463,0
DA:464,0
DA:465,0
DA:466,0
DA:467,0
DA:469,0
DA:470,0
DA:471,0
DA:472,0
DA:473,0
DA:476,0
DA:477,0
DA:478,0
DA:479,0
DA:480,0
DA:481,0
DA:482,0
DA:483,0
DA:485,0
DA:486,0
DA:487,0
DA:488,0
DA:489,0
DA:490,0
DA:492,0
DA:496,0
DA:497,0
DA:498,0
DA:499,0
DA:500,0
DA:501,0
DA:503,0
DA:506,0
DA:554,1
DA:555,1
DA:556,1
DA:557,1
DA:558,1
DA:559,1
DA:560,1
DA:561,1
DA:562,1
DA:563,1
DA:564,1
DA:565,1
DA:566,1
DA:567,1
DA:568,1
DA:569,1
DA:570,1
DA:571,1
DA:572,1
DA:573,1
DA:574,1
DA:575,1
DA:581,1
DA:582,1
DA:583,1
DA:584,1
DA:585,1
DA:586,1
DA:587,1
DA:588,1
DA:589,1
DA:590,1
DA:592,1
DA:654,1
DA:655,1
DA:656,1
DA:657,1
DA:658,1
DA:659,1
DA:660,1
DA:661,1
DA:662,1
DA:663,1
DA:664,1
DA:665,1
DA:666,1
DA:667,1
DA:668,1
DA:669,1
DA:670,1
DA:671,1
DA:672,1
DA:673,1
DA:674,1
DA:675,1
DA:676,1
DA:677,1
DA:678,1
DA:679,1
DA:680,1
DA:681,1
DA:682,1
DA:683,1
DA:684,1
DA:685,1
DA:686,1
DA:687,1
DA:688,1
DA:692,1
DA:693,1
DA:694,1
DA:695,1
DA:696,1
DA:698,1
DA:699,1
DA:700,1
DA:701,1
DA:702,1
DA:703,1
DA:704,1
DA:705,1
DA:706,1
DA:707,1
DA:708,1
DA:709,1
DA:710,1
DA:711,1
DA:712,1
DA:713,1
DA:714,1
DA:715,1
DA:716,1
DA:720,1
DA:721,1
DA:722,1
DA:723,1
DA:724,1
DA:725,1
DA:726,1
DA:727,1
DA:728,1
DA:729,1
DA:730,1
DA:731,1
DA:732,1
DA:733,1
DA:734,1
DA:735,1
DA:736,1
DA:737,1
DA:738,1
DA:739,1
DA:740,1
DA:741,1
DA:742,1
DA:743,1
DA:744,1
DA:745,1
DA:746,1
DA:747,1
DA:748,1
DA:749,1
DA:750,1
DA:751,1
DA:752,1
DA:753,1
DA:754,1
DA:755,1
DA:756,1
DA:757,1
DA:758,1
DA:776,1016
DA:777,1016
DA:778,1016
DA:779,1016
DA:780,1016
DA:782,1016
DA:783,1016
DA:784,1000
DA:785,1000
DA:786,1000
DA:787,1000
DA:788,1000
DA:789,0
DA:790,0
DA:791,1000
DA:792,0
DA:793,0
DA:796,1000
DA:797,0
DA:798,0
DA:799,0
DA:801,0
DA:802,0
DA:804,1000
DA:805,1000
DA:806,1000
DA:809,0
DA:813,0
DA:814,0
DA:815,0
DA:816,0
DA:817,0
DA:818,0
DA:821,0
DA:822,0
DA:823,0
DA:824,0
DA:828,0
DA:832,0
DA:834,16
DA:836,0
DA:838,16
DA:839,0
DA:840,0
DA:841,0
DA:842,0
DA:843,0
DA:844,0
DA:845,0
DA:846,0
DA:847,0
DA:848,0
DA:849,0
DA:850,0
DA:851,0
DA:852,0
DA:853,0
DA:855,0
DA:856,0
DA:857,0
DA:858,0
DA:859,0
DA:861,16
DA:863,16
DA:864,0
DA:865,0
DA:866,0
DA:867,0
DA:868,0
DA:869,0
DA:871,0
DA:872,0
DA:873,0
DA:874,0
DA:875,0
DA:878,0
DA:880,16
DA:881,16
DA:882,1016
DA:901,21
DA:902,21
DA:903,21
DA:907,21
DA:908,21
DA:909,21
DA:910,21
DA:911,21
DA:912,21
DA:913,21
DA:914,21
DA:915,21
DA:916,21
DA:917,21
DA:918,21
DA:919,21
DA:923,21
DA:924,21
DA:925,21
DA:926,21
DA:927,21
DA:928,21
DA:929,21
DA:930,21
DA:931,21
DA:932,21
DA:935,299
DA:936,299
DA:937,299
DA:938,299
DA:939,3
DA:941,296
DA:942,296
DA:943,296
DA:945,299
DA:946,299
DA:949,299
DA:950,299
DA:952,299
DA:953,299
DA:954,23
DA:955,23
DA:956,22
DA:957,22
DA:958,1
DA:959,1
DA:961,1
DA:962,1
DA:963,1
DA:964,1
DA:965,1
DA:966,0
DA:967,1
DA:969,0
DA:970,0
DA:971,0
DA:972,0
DA:976,299
DA:977,299
DA:978,1
DA:979,1
DA:982,256
DA:983,256
DA:984,256
DA:985,256
DA:986,256
DA:987,256
DA:989,256
DA:990,256
DA:991,0
DA:992,0
DA:993,0
DA:994,256
DA:995,256
DA:996,256
DA:1001,21
DA:1002,21
DA:1003,21
DA:1004,21
DA:1005,21
DA:1006,21
DA:1007,21
DA:1008,21
DA:1009,21
DA:1010,21
DA:1011,21
DA:1012,21
DA:1013,21
DA:1014,21
DA:1015,21
DA:1030,0
DA:1031,0
DA:1032,0
DA:1033,0
DA:1034,0
DA:1035,0
DA:1036,0
DA:1037,0
DA:1038,0
DA:1040,0
DA:1046,0
DA:1047,0
DA:1049,0
DA:1052,0
DA:1054,0
DA:1055,0
DA:1056,0
DA:1057,0
DA:1059,0
DA:1061,0
DA:1062,0
DA:1063,0
DA:1064,0
DA:1065,0
DA:1067,0
DA:1081,0
DA:1082,0
DA:1083,0
DA:1084,0
DA:1085,0
DA:1086,0
DA:1087,0
DA:1088,0
DA:1090,0
DA:1098,6090
DA:1099,6090
DA:1100,6090
DA:1101,6090
DA:1102,6090
DA:1103,21
DA:1104,21
DA:1105,0
DA:1106,21
DA:1107,6069
DA:1108,6090
DA:1109,2
DA:1110,6088
DA:1112,6088
DA:1113,3655
DA:1114,3655
DA:1115,3655
DA:1116,3655
DA:1117,3655
DA:1118,3655
DA:1121,1
DA:1122,1
DA:1123,1
DA:1124,1
DA:1126,3654
DA:1128,2433
DA:1131,6474
DA:1132,6474
DA:1133,5849
DA:1134,2330
DA:1135,847
DA:1137,254
DA:1138,254
DA:1139,254
DA:1140,6220
DA:1142,6474
DA:1143,256
DA:1144,256
DA:1145,256
DA:1146,256
DA:1147,256
DA:1148,256
DA:1149,1
DA:1150,1
DA:1151,255
DA:1152,255
DA:1153,255
DA:1154,255
DA:1155,256
DA:1156,256
DA:1158,0
DA:1159,0
DA:1160,0
DA:1161,0
DA:1162,0
DA:1165,0
DA:1168,6218
DA:1172,6218
DA:1173,6218
DA:1174,4767
DA:1175,4767
DA:1176,4767
DA:1177,4767
DA:1179,121
DA:1181,121
DA:1182,1
DA:1183,1
DA:1184,1
DA:1185,1
DA:1186,120
DA:1188,120
DA:1190,0
DA:1191,0
DA:1192,0
DA:1193,0
DA:1194,120
DA:1197,120
DA:1198,120
DA:1199,120
DA:1200,120
DA:1201,120
DA:1202,120
DA:1203,0
DA:1204,0
DA:1206,120
DA:1207,120
DA:1208,120
DA:1209,120
DA:1210,120
DA:1211,120
DA:1212,0
DA:1213,0
DA:1215,120
DA:1216,0
DA:1219,120
DA:1220,120
DA:1221,120
DA:1222,120
DA:1223,120
DA:1224,120
DA:1228,11
DA:1229,11
DA:1233,4633
DA:1234,4633
DA:1235,4633
DA:1236,4633
DA:1237,4633
DA:1238,4633
DA:1239,4633
DA:1240,4633
DA:1243,1
DA:1244,1
DA:1245,1
DA:1246,1
DA:1248,1
DA:1249,1
DA:1250,1
DA:1251,1
DA:1252,1
DA:1253,1
DA:1254,1
DA:1255,1
DA:1256,1
DA:1259,0
DA:1263,1451
DA:1264,1451
DA:1268,6090
DA:1313,12
DA:1314,12
DA:1315,12
DA:1316,12
DA:1317,12
DA:1318,12
DA:1319,12
DA:1320,12
DA:1321,12
DA:1322,12
DA:1323,12
DA:1324,12
DA:1325,12
DA:1326,12
DA:1365,1
DA:1366,1
DA:1367,1
DA:1368,1
DA:1407,7
DA:1408,7
DA:1409,7
DA:1410,7
DA:1445,4
DA:1446,4
DA:1447,4
DA:1448,4
DA:1484,8
DA:1485,8
DA:1486,8
DA:1487,8
DA:1525,1
DA:1526,1
DA:1527,1
DA:1528,1
DA:1533,2
DA:1534,2
DA:1535,2
DA:1536,2
DA:1574,1
DA:1575,1
DA:1576,1
DA:1577,1
DA:1613,4
DA:1614,4
DA:1615,4
DA:1616,4
DA:1650,12
DA:1651,12
DA:1652,12
DA:1653,12
DA:1654,12
DA:1655,12
DA:1656,12
DA:1657,12
DA:1658,12
DA:1659,12
DA:1660,12
DA:1661,12
DA:1662,12
DA:1663,12
DA:1664,12
DA:1665,12
DA:1666,12
DA:1667,12
DA:1715,4
DA:1716,4
DA:1717,4
DA:1718,4
DA:1719,4
DA:1720,4
DA:1721,4
DA:1722,4
DA:1723,4
DA:1724,4
DA:1725,4
DA:1726,4
DA:1760,0
DA:1761,0
DA:1762,0
DA:1763,0
DA:1797,4
DA:1798,4
DA:1799,4
DA:1800,4
DA:1835,0
DA:1836,0
DA:1837,0
DA:1838,0
DA:1875,0
DA:1876,0
DA:1877,0
DA:1878,0
DA:1918,0
DA:1919,0
DA:1920,0
DA:1921,0
DA:1926,0
DA:1927,0
DA:1928,0
DA:1929,0
DA:1969,0
DA:1970,0
DA:1971,0
DA:1972,0
DA:2009,0
DA:2010,0
DA:2011,0
DA:2012,0
DA:2042,4
DA:2043,4
DA:2044,4
DA:2045,4
DA:2046,4
DA:2047,4
DA:2048,4
DA:2049,4
DA:2050,4
DA:2051,4
DA:2052,4
DA:2053,4
DA:2054,4
DA:2055,4
DA:2056,4
DA:2057,4
DA:2058,4
DA:2059,4
DA:2107,101
DA:2108,101
DA:2109,101
DA:2110,101
DA:2111,101
DA:2112,101
DA:2113,101
DA:2114,101
DA:2115,101
DA:2116,101
DA:2117,101
DA:2118,101
DA:2153,0
DA:2154,0
DA:2155,0
DA:2156,0
DA:2191,101
DA:2192,101
DA:2193,101
DA:2194,101
DA:2229,0
DA:2230,0
DA:2231,0
DA:2232,0
DA:2272,0
DA:2273,0
DA:2274,0
DA:2275,0
DA:2315,0
DA:2316,0
DA:2317,0
DA:2318,0
DA:2355,0
DA:2356,0
DA:2357,0
DA:2358,0
DA:2394,100
DA:2395,100
DA:2396,100
DA:2397,100
DA:2427,101
DA:2428,101
DA:2429,101
DA:2430,101
DA:2431,101
DA:2432,101
DA:2433,101
DA:2434,101
DA:2435,101
DA:2436,101
DA:2437,101
DA:2438,101
DA:2439,101
DA:2440,101
DA:2441,101
DA:2476,1460
DA:2477,1460
DA:2478,1460
DA:2594,0
DA:2595,0
DA:2596,0
DA:2600,1484
DA:2601,1484
DA:2602,1484
DA:2603,1484
DA:2604,1484
DA:2605,1484
DA:2606,1484
DA:2607,1484
DA:2608,1484
DA:2609,1484
DA:2610,1484
DA:2611,1484
DA:2612,1484
DA:2613,1484
DA:2614,1484
DA:2615,1484
DA:2616,1484
DA:2617,1484
DA:2618,1484
DA:2619,1484
DA:2620,1484
DA:2621,1484
DA:2622,1484
DA:2623,1484
DA:2624,1484
DA:2625,1484
DA:2626,1484
DA:2627,1484
DA:2628,1484
DA:2629,1484
DA:2630,1484
DA:2631,1484
DA:2632,1484
DA:2633,1484
DA:2634,1484
DA:2635,1484
DA:2636,1484
DA:2637,1484
DA:2638,1484
DA:2641,1496
DA:2642,1496
DA:2643,0
DA:2644,0
DA:2645,0
DA:2646,1496
DA:2647,1496
DA:2648,1496
DA:2649,1496
DA:2650,1496
DA:2651,1496
DA:2652,1496
DA:2653,1496
DA:2654,1496
DA:2655,1496
DA:2656,1496
DA:2657,1496
DA:2658,1496
DA:2659,1496
DA:2660,1496
DA:2661,1496
DA:2662,1496
DA:2663,1496
DA:2664,1496
DA:2665,1496
DA:2666,1496
DA:2667,1496
DA:2668,1496
DA:2669,1496
DA:2670,1496
DA:2671,1496
DA:2672,1496
DA:2673,1496
DA:2674,1496
DA:2675,1496
DA:2676,1496
DA:2677,1496
DA:2678,1496
DA:2679,1496
DA:2680,1496
DA:2691,0
DA:2692,0
DA:2693,0
DA:2694,0
DA:2695,0
DA:2697,0
DA:2711,0
DA:2712,0
DA:2713,0
DA:2714,0
DA:2715,0
DA:2716,0
DA:2718,0
DA:2724,0
DA:2725,0
DA:2726,0
DA:2730,0
DA:2731,0
DA:2732,0
DA:2743,0
DA:2744,0
DA:2745,0
DA:2746,0
DA:2747,0
DA:2749,0
DA:2754,0
DA:2755,0
DA:2756,0
DA:2757,0
DA:2758,0
DA:2759,0
DA:2760,0
DA:2761,0
DA:2762,0
DA:2768,0
DA:2769,0
DA:2770,0
DA:2772,0
DA:2773,0
DA:2774,0
DA:2775,0
DA:2776,0
DA:2777,0
DA:2779,0
DA:2780,0
DA:2781,0
DA:2783,0
DA:2784,0
DA:2785,0
DA:2788,0
DA:2789,0
DA:2790,0
DA:2791,0
DA:2792,0
DA:2793,0
DA:2794,0
DA:2795,0
DA:2796,0
DA:2797,0
DA:2798,0
DA:2799,0
DA:2800,0
DA:2801,0
DA:2803,0
DA:2804,0
DA:2805,0
DA:2806,0
DA:2807,0
DA:2809,0
DA:2810,0
DA:2811,0
DA:2812,0
DA:2813,0
DA:2814,0
DA:2815,0
DA:2816,0
DA:2817,0
DA:2818,0
DA:2819,0
DA:2820,0
DA:2821,0
DA:2822,0
DA:2823,0
DA:2824,0
DA:2825,0
DA:2826,0
DA:2827,0
DA:2828,0
DA:2829,0
DA:2830,0
DA:2831,0
DA:2832,0
DA:2833,0
BRF:0
BRH:0
LF:1030
LH:664
end_of_record
SF:/Users/tomaszpietrek/coding/nats.rs/async-nats/src/jetstream/consumer/push.rs
FN:379,_RINvNtNtNtCs1hbFQVFAImq_10async_nats9jetstream8consumer4push10is_defaultpEB8_
FN:99,_RNCNCNvMNtNtNtCs1hbFQVFAImq_10async_nats9jetstream8consumer4pushINtB8_8ConsumerNtB6_6ConfigE8messages00Bc_
FN:105,_RNCNCNvMNtNtNtCs1hbFQVFAImq_10async_nats9jetstream8consumer4pushINtB8_8ConsumerNtB6_6ConfigE8messages0s_0Bc_
FN:512,_RNCNCNvMs5_NtNtNtCs1hbFQVFAImq_10async_nats9jetstream8consumer4pushINtBb_8ConsumerNtB9_13OrderedConfigE8messages00Bf_
FN:884,_RNCNCNvNtNtNtCs1hbFQVFAImq_10async_nats9jetstream8consumer4push27recreate_ephemeral_consumer00Bb_
FN:885,_RNCNCNvNtNtNtCs1hbFQVFAImq_10async_nats9jetstream8consumer4push27recreate_ephemeral_consumer0s_0Bb_
FN:849,_RNCNCNvNtNtNtCs1hbFQVFAImq_10async_nats9jetstream8consumer4push34recreate_consumer_and_subscription00Bb_
FN:629,_RNCNCNvXs6_NtNtNtCs1hbFQVFAImq_10async_nats9jetstream8consumer4pushNtB9_7OrderedNtNtCscxja3U2MsTJ_12futures_core6stream6Stream9poll_nexts0_00Bf_
FN:640,_RNCNCNvXs6_NtNtNtCs1hbFQVFAImq_10async_nats9jetstream8consumer4pushNtB9_7OrderedNtNtCscxja3U2MsTJ_12futures_core6stream6Stream9poll_nexts0_0s_0Bf_
FN:92,_RNCNvMNtNtNtCs1hbFQVFAImq_10async_nats9jetstream8consumer4pushINtB6_8ConsumerNtB4_6ConfigE8messages0Ba_
FN:506,_RNCNvMs5_NtNtNtCs1hbFQVFAImq_10async_nats9jetstream8consumer4pushINtB9_8ConsumerNtB7_13OrderedConfigE8messages0Bd_
FN:861,_RNCNvNtNtNtCs1hbFQVFAImq_10async_nats9jetstream8consumer4push27recreate_ephemeral_consumer0B9_
FN:841,_RNCNvNtNtNtCs1hbFQVFAImq_10async_nats9jetstream8consumer4push34recreate_consumer_and_subscription0B9_
FN:558,_RNCNvXs6_NtNtNtCs1hbFQVFAImq_10async_nats9jetstream8consumer4pushNtB7_7OrderedNtNtCscxja3U2MsTJ_12futures_core6stream6Stream9poll_next0Bd_
FN:628,_RNCNvXs6_NtNtNtCs1hbFQVFAImq_10async_nats9jetstream8consumer4pushNtB7_7OrderedNtNtCscxja3U2MsTJ_12futures_core6stream6Stream9poll_nexts0_0Bd_
FN:655,_RNCNvXs6_NtNtNtCs1hbFQVFAImq_10async_nats9jetstream8consumer4pushNtB7_7OrderedNtNtCscxja3U2MsTJ_12futures_core6stream6Stream9poll_nexts1_0Bd_
FN:677,_RNCNvXs6_NtNtNtCs1hbFQVFAImq_10async_nats9jetstream8consumer4pushNtB7_7OrderedNtNtCscxja3U2MsTJ_12futures_core6stream6Stream9poll_nexts2_0Bd_
FN:698,_RNCNvXs6_NtNtNtCs1hbFQVFAImq_10async_nats9jetstream8consumer4pushNtB7_7OrderedNtNtCscxja3U2MsTJ_12futures_core6stream6Stream9poll_nexts3_0Bd_
FN:715,_RNCNvXs6_NtNtNtCs1hbFQVFAImq_10async_nats9jetstream8consumer4pushNtB7_7OrderedNtNtCscxja3U2MsTJ_12futures_core6stream6Stream9poll_nexts4_0Bd_
FN:598,_RNCNvXs6_NtNtNtCs1hbFQVFAImq_10async_nats9jetstream8consumer4pushNtB7_7OrderedNtNtCscxja3U2MsTJ_12futures_core6stream6Stream9poll_nexts_0Bd_
FN:132,_RNCNvXs_NtNtNtCs1hbFQVFAImq_10async_nats9jetstream8consumer4pushNtB6_8MessagesNtNtCscxja3U2MsTJ_12futures_core6stream6Stream9poll_next0Bc_
FN:154,_RNCNvXs_NtNtNtCs1hbFQVFAImq_10async_nats9jetstream8consumer4pushNtB6_8MessagesNtNtCscxja3U2MsTJ_12futures_core6stream6Stream9poll_nexts_0Bc_
FN:92,_RNvMNtNtNtCs1hbFQVFAImq_10async_nats9jetstream8consumer4pushINtB4_8ConsumerNtB2_6ConfigE8messages
FN:506,_RNvMs5_NtNtNtCs1hbFQVFAImq_10async_nats9jetstream8consumer4pushINtB7_8ConsumerNtB5_13OrderedConfigE8messages
FN:856,_RNvNtNtNtCs1hbFQVFAImq_10async_nats9jetstream8consumer4push27recreate_ephemeral_consumer
FN:836,_RNvNtNtNtCs1hbFQVFAImq_10async_nats9jetstream8consumer4push34recreate_consumer_and_subscription
FN:293,_RNvXs0_NtNtNtCs1hbFQVFAImq_10async_nats9jetstream8consumer4pushNtB5_6ConfigNtB7_12FromConsumer24try_from_consumer_config
FN:334,_RNvXs1_NtNtNtCs1hbFQVFAImq_10async_nats9jetstream8consumer4pushNtB5_6ConfigNtB7_18IntoConsumerConfig20into_consumer_config
FN:375,_RNvXs2_NtNtNtCs1hbFQVFAImq_10async_nats9jetstream8consumer4pushRNtB5_6ConfigNtB7_18IntoConsumerConfig20into_consumer_config
FN:433,_RNvXs3_NtNtNtCs1hbFQVFAImq_10async_nats9jetstream8consumer4pushNtB5_13OrderedConfigNtB7_12FromConsumer24try_from_consumer_config
FN:464,_RNvXs4_NtNtNtCs1hbFQVFAImq_10async_nats9jetstream8consumer4pushNtB5_13OrderedConfigNtB7_18IntoConsumerConfig20into_consumer_config
FN:550,_RNvXs6_NtNtNtCs1hbFQVFAImq_10async_nats9jetstream8consumer4pushNtB5_7OrderedNtNtCscxja3U2MsTJ_12futures_core6stream6Stream9poll_next
FN:761,_RNvXs7_NtNtNtCs1hbFQVFAImq_10async_nats9jetstream8consumer4pushNtB5_16OrderedErrorKindNtNtCs2CqrNpCrSUr_4core3fmt7Display3fmt
FN:775,_RNvXs8_NtNtNtCs1hbFQVFAImq_10async_nats9jetstream8consumer4pushINtNtBb_5error5ErrorNtB5_16OrderedErrorKindEINtNtCs2CqrNpCrSUr_4core7convert4FromIB10_NtB5_17MessagesErrorKindEE4from
FN:803,_RNvXs9_NtNtNtCs1hbFQVFAImq_10async_nats9jetstream8consumer4pushNtB5_17MessagesErrorKindNtNtCs2CqrNpCrSUr_4core3fmt7Display3fmt
FN:127,_RNvXs_NtNtNtCs1hbFQVFAImq_10async_nats9jetstream8consumer4pushNtB4_8MessagesNtNtCscxja3U2MsTJ_12futures_core6stream6Stream9poll_next
FN:824,_RNvXsa_NtNtNtCs1hbFQVFAImq_10async_nats9jetstream8consumer4pushNtB5_25ConsumerRecreateErrorKindNtNtCs2CqrNpCrSUr_4core3fmt7Display3fmt
FN:379,_RINvNtNtNtCs6qhVEmoZJ2z_10async_nats9jetstream8consumer4push10is_defaultpEB8_
FN:99,_RNCNCNvMNtNtNtCs6qhVEmoZJ2z_10async_nats9jetstream8consumer4pushINtB8_8ConsumerNtB6_6ConfigE8messages00Bc_
FN:105,_RNCNCNvMNtNtNtCs6qhVEmoZJ2z_10async_nats9jetstream8consumer4pushINtB8_8ConsumerNtB6_6ConfigE8messages0s_0Bc_
FN:92,_RNCNvMNtNtNtCs6qhVEmoZJ2z_10async_nats9jetstream8consumer4pushINtB6_8ConsumerNtB4_6ConfigE8messages0Ba_
FN:775,_RNvXs8_NtNtNtCs6qhVEmoZJ2z_10async_nats9jetstream8consumer4pushINtNtBb_5error5ErrorNtB5_16OrderedErrorKindEINtNtCs2CqrNpCrSUr_4core7convert4FromIB10_NtB5_17MessagesErrorKindEE4from
FN:856,_RNvNtNtNtCs6qhVEmoZJ2z_10async_nats9jetstream8consumer4push27recreate_ephemeral_consumer
FN:836,_RNvNtNtNtCs6qhVEmoZJ2z_10async_nats9jetstream8consumer4push34recreate_consumer_and_subscription
FN:293,_RNvXs0_NtNtNtCs6qhVEmoZJ2z_10async_nats9jetstream8consumer4pushNtB5_6ConfigNtB7_12FromConsumer24try_from_consumer_config
FN:334,_RNvXs1_NtNtNtCs6qhVEmoZJ2z_10async_nats9jetstream8consumer4pushNtB5_6ConfigNtB7_18IntoConsumerConfig20into_consumer_config
FN:375,_RNvXs2_NtNtNtCs6qhVEmoZJ2z_10async_nats9jetstream8consumer4pushRNtB5_6ConfigNtB7_18IntoConsumerConfig20into_consumer_config
FN:433,_RNvXs3_NtNtNtCs6qhVEmoZJ2z_10async_nats9jetstream8consumer4pushNtB5_13OrderedConfigNtB7_12FromConsumer24try_from_consumer_config
FN:464,_RNvXs4_NtNtNtCs6qhVEmoZJ2z_10async_nats9jetstream8consumer4pushNtB5_13OrderedConfigNtB7_18IntoConsumerConfig20into_consumer_config
FN:550,_RNvXs6_NtNtNtCs6qhVEmoZJ2z_10async_nats9jetstream8consumer4pushNtB5_7OrderedNtNtCscxja3U2MsTJ_12futures_core6stream6Stream9poll_next
FN:761,_RNvXs7_NtNtNtCs6qhVEmoZJ2z_10async_nats9jetstream8consumer4pushNtB5_16OrderedErrorKindNtNtCs2CqrNpCrSUr_4core3fmt7Display3fmt
FN:803,_RNvXs9_NtNtNtCs6qhVEmoZJ2z_10async_nats9jetstream8consumer4pushNtB5_17MessagesErrorKindNtNtCs2CqrNpCrSUr_4core3fmt7Display3fmt
FN:127,_RNvXs_NtNtNtCs6qhVEmoZJ2z_10async_nats9jetstream8consumer4pushNtB4_8MessagesNtNtCscxja3U2MsTJ_12futures_core6stream6Stream9poll_next
FN:824,_RNvXsa_NtNtNtCs6qhVEmoZJ2z_10async_nats9jetstream8consumer4pushNtB5_25ConsumerRecreateErrorKindNtNtCs2CqrNpCrSUr_4core3fmt7Display3fmt
FN:512,_RNCNCNvMs5_NtNtNtCs6qhVEmoZJ2z_10async_nats9jetstream8consumer4pushINtBb_8ConsumerNtB9_13OrderedConfigE8messages00Bf_
FN:884,_RNCNCNvNtNtNtCs6qhVEmoZJ2z_10async_nats9jetstream8consumer4push27recreate_ephemeral_consumer00Bb_
FN:885,_RNCNCNvNtNtNtCs6qhVEmoZJ2z_10async_nats9jetstream8consumer4push27recreate_ephemeral_consumer0s_0Bb_
FN:849,_RNCNCNvNtNtNtCs6qhVEmoZJ2z_10async_nats9jetstream8consumer4push34recreate_consumer_and_subscription00Bb_
FN:629,_RNCNCNvXs6_NtNtNtCs6qhVEmoZJ2z_10async_nats9jetstream8consumer4pushNtB9_7OrderedNtNtCscxja3U2MsTJ_12futures_core6stream6Stream9poll_nexts0_00Bf_
FN:640,_RNCNCNvXs6_NtNtNtCs6qhVEmoZJ2z_10async_nats9jetstream8consumer4pushNtB9_7OrderedNtNtCscxja3U2MsTJ_12futures_core6stream6Stream9poll_nexts0_0s_0Bf_
FN:506,_RNCNvMs5_NtNtNtCs6qhVEmoZJ2z_10async_nats9jetstream8consumer4pushINtB9_8ConsumerNtB7_13OrderedConfigE8messages0Bd_
FN:861,_RNCNvNtNtNtCs6qhVEmoZJ2z_10async_nats9jetstream8consumer4push27recreate_ephemeral_consumer0B9_
FN:841,_RNCNvNtNtNtCs6qhVEmoZJ2z_10async_nats9jetstream8consumer4push34recreate_consumer_and_subscription0B9_
FN:558,_RNCNvXs6_NtNtNtCs6qhVEmoZJ2z_10async_nats9jetstream8consumer4pushNtB7_7OrderedNtNtCscxja3U2MsTJ_12futures_core6stream6Stream9poll_next0Bd_
FN:628,_RNCNvXs6_NtNtNtCs6qhVEmoZJ2z_10async_nats9jetstream8consumer4pushNtB7_7OrderedNtNtCscxja3U2MsTJ_12futures_core6stream6Stream9poll_nexts0_0Bd_
FN:655,_RNCNvXs6_NtNtNtCs6qhVEmoZJ2z_10async_nats9jetstream8consumer4pushNtB7_7OrderedNtNtCscxja3U2MsTJ_12futures_core6stream6Stream9poll_nexts1_0Bd_
FN:677,_RNCNvXs6_NtNtNtCs6qhVEmoZJ2z_10async_nats9jetstream8consumer4pushNtB7_7OrderedNtNtCscxja3U2MsTJ_12futures_core6stream6Stream9poll_nexts2_0Bd_
FN:698,_RNCNvXs6_NtNtNtCs6qhVEmoZJ2z_10async_nats9jetstream8consumer4pushNtB7_7OrderedNtNtCscxja3U2MsTJ_12futures_core6stream6Stream9poll_nexts3_0Bd_
FN:715,_RNCNvXs6_NtNtNtCs6qhVEmoZJ2z_10async_nats9jetstream8consumer4pushNtB7_7OrderedNtNtCscxja3U2MsTJ_12futures_core6stream6Stream9poll_nexts4_0Bd_
FN:598,_RNCNvXs6_NtNtNtCs6qhVEmoZJ2z_10async_nats9jetstream8consumer4pushNtB7_7OrderedNtNtCscxja3U2MsTJ_12futures_core6stream6Stream9poll_nexts_0Bd_
FN:132,_RNCNvXs_NtNtNtCs6qhVEmoZJ2z_10async_nats9jetstream8consumer4pushNtB6_8MessagesNtNtCscxja3U2MsTJ_12futures_core6stream6Stream9poll_next0Bc_
FN:154,_RNCNvXs_NtNtNtCs6qhVEmoZJ2z_10async_nats9jetstream8consumer4pushNtB6_8MessagesNtNtCscxja3U2MsTJ_12futures_core6stream6Stream9poll_nexts_0Bc_
FN:92,_RNvMNtNtNtCs6qhVEmoZJ2z_10async_nats9jetstream8consumer4pushINtB4_8ConsumerNtB2_6ConfigE8messages
FN:506,_RNvMs5_NtNtNtCs6qhVEmoZJ2z_10async_nats9jetstream8consumer4pushINtB7_8ConsumerNtB5_13OrderedConfigE8messages
FN:99,_RNCNCNvMNtNtNtCs6qhVEmoZJ2z_10async_nats9jetstream8consumer4pushINtB8_8ConsumerNtB6_6ConfigE8messages00CsbhX8fe0itkR_15jetstream_tests
FN:105,_RNCNCNvMNtNtNtCs6qhVEmoZJ2z_10async_nats9jetstream8consumer4pushINtB8_8ConsumerNtB6_6ConfigE8messages0s_0CsbhX8fe0itkR_15jetstream_tests
FN:92,_RNCNvMNtNtNtCs6qhVEmoZJ2z_10async_nats9jetstream8consumer4pushINtB6_8ConsumerNtB4_6ConfigE8messages0CsbhX8fe0itkR_15jetstream_tests
FNDA:0,_RINvNtNtNtCs1hbFQVFAImq_10async_nats9jetstream8consumer4push10is_defaultpEB8_
FNDA:0,_RNCNCNvMNtNtNtCs1hbFQVFAImq_10async_nats9jetstream8consumer4pushINtB8_8ConsumerNtB6_6ConfigE8messages00Bc_
FNDA:0,_RNCNCNvMNtNtNtCs1hbFQVFAImq_10async_nats9jetstream8consumer4pushINtB8_8ConsumerNtB6_6ConfigE8messages0s_0Bc_
FNDA:0,_RNCNCNvMs5_NtNtNtCs1hbFQVFAImq_10async_nats9jetstream8consumer4pushINtBb_8ConsumerNtB9_13OrderedConfigE8messages00Bf_
FNDA:0,_RNCNCNvNtNtNtCs1hbFQVFAImq_10async_nats9jetstream8consumer4push27recreate_ephemeral_consumer00Bb_
FNDA:0,_RNCNCNvNtNtNtCs1hbFQVFAImq_10async_nats9jetstream8consumer4push27recreate_ephemeral_consumer0s_0Bb_
FNDA:0,_RNCNCNvNtNtNtCs1hbFQVFAImq_10async_nats9jetstream8consumer4push34recreate_consumer_and_subscription00Bb_
FNDA:0,_RNCNCNvXs6_NtNtNtCs1hbFQVFAImq_10async_nats9jetstream8consumer4pushNtB9_7OrderedNtNtCscxja3U2MsTJ_12futures_core6stream6Stream9poll_nexts0_00Bf_
FNDA:0,_RNCNCNvXs6_NtNtNtCs1hbFQVFAImq_10async_nats9jetstream8consumer4pushNtB9_7OrderedNtNtCscxja3U2MsTJ_12futures_core6stream6Stream9poll_nexts0_0s_0Bf_
FNDA:0,_RNCNvMNtNtNtCs1hbFQVFAImq_10async_nats9jetstream8consumer4pushINtB6_8ConsumerNtB4_6ConfigE8messages0Ba_
FNDA:0,_RNCNvMs5_NtNtNtCs1hbFQVFAImq_10async_nats9jetstream8consumer4pushINtB9_8ConsumerNtB7_13OrderedConfigE8messages0Bd_
FNDA:0,_RNCNvNtNtNtCs1hbFQVFAImq_10async_nats9jetstream8consumer4push27recreate_ephemeral_consumer0B9_
FNDA:0,_RNCNvNtNtNtCs1hbFQVFAImq_10async_nats9jetstream8consumer4push34recreate_consumer_and_subscription0B9_
FNDA:0,_RNCNvXs6_NtNtNtCs1hbFQVFAImq_10async_nats9jetstream8consumer4pushNtB7_7OrderedNtNtCscxja3U2MsTJ_12futures_core6stream6Stream9poll_next0Bd_
FNDA:0,_RNCNvXs6_NtNtNtCs1hbFQVFAImq_10async_nats9jetstream8consumer4pushNtB7_7OrderedNtNtCscxja3U2MsTJ_12futures_core6stream6Stream9poll_nexts0_0Bd_
FNDA:0,_RNCNvXs6_NtNtNtCs1hbFQVFAImq_10async_nats9jetstream8consumer4pushNtB7_7OrderedNtNtCscxja3U2MsTJ_12futures_core6stream6Stream9poll_nexts1_0Bd_
FNDA:0,_RNCNvXs6_NtNtNtCs1hbFQVFAImq_10async_nats9jetstream8consumer4pushNtB7_7OrderedNtNtCscxja3U2MsTJ_12futures_core6stream6Stream9poll_nexts2_0Bd_
FNDA:0,_RNCNvXs6_NtNtNtCs1hbFQVFAImq_10async_nats9jetstream8consumer4pushNtB7_7OrderedNtNtCscxja3U2MsTJ_12futures_core6stream6Stream9poll_nexts3_0Bd_
FNDA:0,_RNCNvXs6_NtNtNtCs1hbFQVFAImq_10async_nats9jetstream8consumer4pushNtB7_7OrderedNtNtCscxja3U2MsTJ_12futures_core6stream6Stream9poll_nexts4_0Bd_
FNDA:0,_RNCNvXs6_NtNtNtCs1hbFQVFAImq_10async_nats9jetstream8consumer4pushNtB7_7OrderedNtNtCscxja3U2MsTJ_12futures_core6stream6Stream9poll_nexts_0Bd_
FNDA:0,_RNCNvXs_NtNtNtCs1hbFQVFAImq_10async_nats9jetstream8consumer4pushNtB6_8MessagesNtNtCscxja3U2MsTJ_12futures_core6stream6Stream9poll_next0Bc_
FNDA:0,_RNCNvXs_NtNtNtCs1hbFQVFAImq_10async_nats9jetstream8consumer4pushNtB6_8MessagesNtNtCscxja3U2MsTJ_12futures_core6stream6Stream9poll_nexts_0Bc_
FNDA:0,_RNvMNtNtNtCs1hbFQVFAImq_10async_nats9jetstream8consumer4pushINtB4_8ConsumerNtB2_6ConfigE8messages
FNDA:0,_RNvMs5_NtNtNtCs1hbFQVFAImq_10async_nats9jetstream8consumer4pushINtB7_8ConsumerNtB5_13OrderedConfigE8messages
FNDA:0,_RNvNtNtNtCs1hbFQVFAImq_10async_nats9jetstream8consumer4push27recreate_ephemeral_consumer
FNDA:0,_RNvNtNtNtCs1hbFQVFAImq_10async_nats9jetstream8consumer4push34recreate_consumer_and_subscription
FNDA:0,_RNvXs0_NtNtNtCs1hbFQVFAImq_10async_nats9jetstream8consumer4pushNtB5_6ConfigNtB7_12FromConsumer24try_from_consumer_config
FNDA:0,_RNvXs1_NtNtNtCs1hbFQVFAImq_10async_nats9jetstream8consumer4pushNtB5_6ConfigNtB7_18IntoConsumerConfig20into_consumer_config
FNDA:0,_RNvXs2_NtNtNtCs1hbFQVFAImq_10async_nats9jetstream8consumer4pushRNtB5_6ConfigNtB7_18IntoConsumerConfig20into_consumer_config
FNDA:0,_RNvXs3_NtNtNtCs1hbFQVFAImq_10async_nats9jetstream8consumer4pushNtB5_13OrderedConfigNtB7_12FromConsumer24try_from_consumer_config
FNDA:0,_RNvXs4_NtNtNtCs1hbFQVFAImq_10async_nats9jetstream8consumer4pushNtB5_13OrderedConfigNtB7_18IntoConsumerConfig20into_consumer_config
FNDA:0,_RNvXs6_NtNtNtCs1hbFQVFAImq_10async_nats9jetstream8consumer4pushNtB5_7OrderedNtNtCscxja3U2MsTJ_12futures_core6stream6Stream9poll_next
FNDA:0,_RNvXs7_NtNtNtCs1hbFQVFAImq_10async_nats9jetstream8consumer4pushNtB5_16OrderedErrorKindNtNtCs2CqrNpCrSUr_4core3fmt7Display3fmt
FNDA:0,_RNvXs8_NtNtNtCs1hbFQVFAImq_10async_nats9jetstream8consumer4pushINtNtBb_5error5ErrorNtB5_16OrderedErrorKindEINtNtCs2CqrNpCrSUr_4core7convert4FromIB10_NtB5_17MessagesErrorKindEE4from
FNDA:0,_RNvXs9_NtNtNtCs1hbFQVFAImq_10async_nats9jetstream8consumer4pushNtB5_17MessagesErrorKindNtNtCs2CqrNpCrSUr_4core3fmt7Display3fmt
FNDA:0,_RNvXs_NtNtNtCs1hbFQVFAImq_10async_nats9jetstream8consumer4pushNtB4_8MessagesNtNtCscxja3U2MsTJ_12futures_core6stream6Stream9poll_next
FNDA:0,_RNvXsa_NtNtNtCs1hbFQVFAImq_10async_nats9jetstream8consumer4pushNtB5_25ConsumerRecreateErrorKindNtNtCs2CqrNpCrSUr_4core3fmt7Display3fmt
FNDA:0,_RINvNtNtNtCs6qhVEmoZJ2z_10async_nats9jetstream8consumer4push10is_defaultpEB8_
FNDA:0,_RNCNCNvMNtNtNtCs6qhVEmoZJ2z_10async_nats9jetstream8consumer4pushINtB8_8ConsumerNtB6_6ConfigE8messages00Bc_
FNDA:0,_RNCNCNvMNtNtNtCs6qhVEmoZJ2z_10async_nats9jetstream8consumer4pushINtB8_8ConsumerNtB6_6ConfigE8messages0s_0Bc_
FNDA:0,_RNCNvMNtNtNtCs6qhVEmoZJ2z_10async_nats9jetstream8consumer4pushINtB6_8ConsumerNtB4_6ConfigE8messages0Ba_
FNDA:0,_RNvXs8_NtNtNtCs6qhVEmoZJ2z_10async_nats9jetstream8consumer4pushINtNtBb_5error5ErrorNtB5_16OrderedErrorKindEINtNtCs2CqrNpCrSUr_4core7convert4FromIB10_NtB5_17MessagesErrorKindEE4from
FNDA:2,_RNvNtNtNtCs6qhVEmoZJ2z_10async_nats9jetstream8consumer4push27recreate_ephemeral_consumer
FNDA:2,_RNvNtNtNtCs6qhVEmoZJ2z_10async_nats9jetstream8consumer4push34recreate_consumer_and_subscription
FNDA:18,_RNvXs0_NtNtNtCs6qhVEmoZJ2z_10async_nats9jetstream8consumer4pushNtB5_6ConfigNtB7_12FromConsumer24try_from_consumer_config
FNDA:13,_RNvXs1_NtNtNtCs6qhVEmoZJ2z_10async_nats9jetstream8consumer4pushNtB5_6ConfigNtB7_18IntoConsumerConfig20into_consumer_config
FNDA:0,_RNvXs2_NtNtNtCs6qhVEmoZJ2z_10async_nats9jetstream8consumer4pushRNtB5_6ConfigNtB7_18IntoConsumerConfig20into_consumer_config
FNDA:44,_RNvXs3_NtNtNtCs6qhVEmoZJ2z_10async_nats9jetstream8consumer4pushNtB5_13OrderedConfigNtB7_12FromConsumer24try_from_consumer_config
FNDA:44,_RNvXs4_NtNtNtCs6qhVEmoZJ2z_10async_nats9jetstream8consumer4pushNtB5_13OrderedConfigNtB7_18IntoConsumerConfig20into_consumer_config
FNDA:60309,_RNvXs6_NtNtNtCs6qhVEmoZJ2z_10async_nats9jetstream8consumer4pushNtB5_7OrderedNtNtCscxja3U2MsTJ_12futures_core6stream6Stream9poll_next
FNDA:0,_RNvXs7_NtNtNtCs6qhVEmoZJ2z_10async_nats9jetstream8consumer4pushNtB5_16OrderedErrorKindNtNtCs2CqrNpCrSUr_4core3fmt7Display3fmt
FNDA:0,_RNvXs9_NtNtNtCs6qhVEmoZJ2z_10async_nats9jetstream8consumer4pushNtB5_17MessagesErrorKindNtNtCs2CqrNpCrSUr_4core3fmt7Display3fmt
FNDA:3049,_RNvXs_NtNtNtCs6qhVEmoZJ2z_10async_nats9jetstream8consumer4pushNtB4_8MessagesNtNtCscxja3U2MsTJ_12futures_core6stream6Stream9poll_next
FNDA:0,_RNvXsa_NtNtNtCs6qhVEmoZJ2z_10async_nats9jetstream8consumer4pushNtB5_25ConsumerRecreateErrorKindNtNtCs2CqrNpCrSUr_4core3fmt7Display3fmt
FNDA:0,_RNCNCNvMs5_NtNtNtCs6qhVEmoZJ2z_10async_nats9jetstream8consumer4pushINtBb_8ConsumerNtB9_13OrderedConfigE8messages00Bf_
FNDA:0,_RNCNCNvNtNtNtCs6qhVEmoZJ2z_10async_nats9jetstream8consumer4push27recreate_ephemeral_consumer00Bb_
FNDA:0,_RNCNCNvNtNtNtCs6qhVEmoZJ2z_10async_nats9jetstream8consumer4push27recreate_ephemeral_consumer0s_0Bb_
FNDA:0,_RNCNCNvNtNtNtCs6qhVEmoZJ2z_10async_nats9jetstream8consumer4push34recreate_consumer_and_subscription00Bb_
FNDA:2,_RNCNCNvXs6_NtNtNtCs6qhVEmoZJ2z_10async_nats9jetstream8consumer4pushNtB9_7OrderedNtNtCscxja3U2MsTJ_12futures_core6stream6Stream9poll_nexts0_00Bf_
FNDA:0,_RNCNCNvXs6_NtNtNtCs6qhVEmoZJ2z_10async_nats9jetstream8consumer4pushNtB9_7OrderedNtNtCscxja3U2MsTJ_12futures_core6stream6Stream9poll_nexts0_0s_0Bf_
FNDA:42,_RNCNvMs5_NtNtNtCs6qhVEmoZJ2z_10async_nats9jetstream8consumer4pushINtB9_8ConsumerNtB7_13OrderedConfigE8messages0Bd_
FNDA:2,_RNCNvNtNtNtCs6qhVEmoZJ2z_10async_nats9jetstream8consumer4push27recreate_ephemeral_consumer0B9_
FNDA:2,_RNCNvNtNtNtCs6qhVEmoZJ2z_10async_nats9jetstream8consumer4push34recreate_consumer_and_subscription0B9_
FNDA:58735,_RNCNvXs6_NtNtNtCs6qhVEmoZJ2z_10async_nats9jetstream8consumer4pushNtB7_7OrderedNtNtCscxja3U2MsTJ_12futures_core6stream6Stream9poll_next0Bd_
FNDA:2,_RNCNvXs6_NtNtNtCs6qhVEmoZJ2z_10async_nats9jetstream8consumer4pushNtB7_7OrderedNtNtCscxja3U2MsTJ_12futures_core6stream6Stream9poll_nexts0_0Bd_
FNDA:0,_RNCNvXs6_NtNtNtCs6qhVEmoZJ2z_10async_nats9jetstream8consumer4pushNtB7_7OrderedNtNtCscxja3U2MsTJ_12futures_core6stream6Stream9poll_nexts1_0Bd_
FNDA:0,_RNCNvXs6_NtNtNtCs6qhVEmoZJ2z_10async_nats9jetstream8consumer4pushNtB7_7OrderedNtNtCscxja3U2MsTJ_12futures_core6stream6Stream9poll_nexts2_0Bd_
FNDA:4,_RNCNvXs6_NtNtNtCs6qhVEmoZJ2z_10async_nats9jetstream8consumer4pushNtB7_7OrderedNtNtCscxja3U2MsTJ_12futures_core6stream6Stream9poll_nexts3_0Bd_
FNDA:0,_RNCNvXs6_NtNtNtCs6qhVEmoZJ2z_10async_nats9jetstream8consumer4pushNtB7_7OrderedNtNtCscxja3U2MsTJ_12futures_core6stream6Stream9poll_nexts4_0Bd_
FNDA:31,_RNCNvXs6_NtNtNtCs6qhVEmoZJ2z_10async_nats9jetstream8consumer4pushNtB7_7OrderedNtNtCscxja3U2MsTJ_12futures_core6stream6Stream9poll_nexts_0Bd_
FNDA:2002,_RNCNvXs_NtNtNtCs6qhVEmoZJ2z_10async_nats9jetstream8consumer4pushNtB6_8MessagesNtNtCscxja3U2MsTJ_12futures_core6stream6Stream9poll_next0Bc_
FNDA:0,_RNCNvXs_NtNtNtCs6qhVEmoZJ2z_10async_nats9jetstream8consumer4pushNtB6_8MessagesNtNtCscxja3U2MsTJ_12futures_core6stream6Stream9poll_nexts_0Bc_
FNDA:8,_RNvMNtNtNtCs6qhVEmoZJ2z_10async_nats9jetstream8consumer4pushINtB4_8ConsumerNtB2_6ConfigE8messages
FNDA:42,_RNvMs5_NtNtNtCs6qhVEmoZJ2z_10async_nats9jetstream8consumer4pushINtB7_8ConsumerNtB5_13OrderedConfigE8messages
FNDA:0,_RNCNCNvMNtNtNtCs6qhVEmoZJ2z_10async_nats9jetstream8consumer4pushINtB8_8ConsumerNtB6_6ConfigE8messages00CsbhX8fe0itkR_15jetstream_tests
FNDA:0,_RNCNCNvMNtNtNtCs6qhVEmoZJ2z_10async_nats9jetstream8consumer4pushINtB8_8ConsumerNtB6_6ConfigE8messages0s_0CsbhX8fe0itkR_15jetstream_tests
FNDA:8,_RNCNvMNtNtNtCs6qhVEmoZJ2z_10async_nats9jetstream8consumer4pushINtB6_8ConsumerNtB4_6ConfigE8messages0CsbhX8fe0itkR_15jetstream_tests
FNF:37
FNH:20
DA:92,8
DA:93,8
DA:94,8
DA:95,2
DA:96,2
DA:97,2
DA:98,2
DA:99,2
DA:101,6
DA:102,6
DA:103,6
DA:104,6
DA:105,6
DA:108,8
DA:109,8
DA:110,8
DA:111,8
DA:112,8
DA:113,8
DA:114,8
DA:127,3049
DA:128,3049
DA:129,2019
DA:130,2019
DA:131,2019
DA:132,2019
DA:133,2019
DA:136,1
DA:137,1
DA:138,1
DA:139,1
DA:141,2018
DA:143,1030
DA:145,3057
DA:146,3025
DA:147,3025
DA:148,3025
DA:149,3025
DA:151,9
DA:153,0
DA:154,0
DA:155,0
DA:156,0
DA:157,0
DA:158,0
DA:159,0
DA:160,9
DA:162,9
DA:165,0
DA:168,3016
DA:169,3016
DA:170,3016
DA:171,3016
DA:174,0
DA:177,32
DA:180,3049
DA:293,18
DA:294,18
DA:295,0
DA:296,0
DA:297,0
DA:298,18
DA:300,18
DA:301,18
DA:302,18
DA:303,18
DA:304,18
DA:305,18
DA:306,18
DA:307,18
DA:308,18
DA:309,18
DA:310,18
DA:311,18
DA:312,18
DA:313,18
DA:314,18
DA:315,18
DA:316,18
DA:317,18
DA:318,18
DA:319,18
DA:320,18
DA:321,18
DA:322,18
DA:323,18
DA:324,18
DA:325,18
DA:326,18
DA:327,18
DA:328,18
DA:329,18
DA:330,18
DA:334,13
DA:335,13
DA:336,13
DA:337,13
DA:338,13
DA:339,13
DA:340,13
DA:341,13
DA:342,13
DA:343,13
DA:344,13
DA:345,13
DA:346,13
DA:347,13
DA:348,13
DA:349,13
DA:350,13
DA:351,13
DA:352,13
DA:353,13
DA:354,13
DA:355,13
DA:356,13
DA:357,13
DA:358,13
DA:359,13
DA:360,13
DA:361,13
DA:362,13
DA:363,13
DA:364,13
DA:365,13
DA:366,13
DA:367,13
DA:368,13
DA:369,13
DA:370,13
DA:371,13
DA:372,13
DA:375,0
DA:376,0
DA:377,0
DA:379,0
DA:380,0
DA:381,0
DA:433,44
DA:434,44
DA:435,44
DA:436,44
DA:437,44
DA:439,44
DA:440,0
DA:441,0
DA:442,0
DA:443,44
DA:444,44
DA:445,44
DA:446,44
DA:447,44
DA:448,44
DA:449,44
DA:450,44
DA:451,44
DA:452,44
DA:453,44
DA:454,44
DA:455,44
DA:456,44
DA:457,44
DA:458,44
DA:459,44
DA:460,44
DA:464,44
DA:465,44
DA:466,44
DA:467,44
DA:468,44
DA:469,44
DA:470,44
DA:471,44
DA:472,44
DA:473,44
DA:474,44
DA:475,44
DA:476,44
DA:477,44
DA:478,44
DA:479,44
DA:480,44
DA:481,44
DA:482,44
DA:483,44
DA:484,44
DA:485,44
DA:486,44
DA:487,44
DA:488,44
DA:489,44
DA:490,44
DA:491,44
DA:492,44
DA:493,44
DA:494,44
DA:495,44
DA:496,44
DA:497,44
DA:498,44
DA:499,44
DA:500,44
DA:501,44
DA:502,44
DA:506,42
DA:507,42
DA:508,42
DA:509,42
DA:510,42
DA:511,42
DA:512,42
DA:514,42
DA:515,42
DA:517,42
DA:518,42
DA:519,42
DA:520,42
DA:521,42
DA:522,42
DA:523,42
DA:524,42
DA:525,42
DA:526,42
DA:527,42
DA:528,42
DA:529,42
DA:530,42
DA:550,60309
DA:554,60337
DA:555,60333
DA:556,60333
DA:557,60333
DA:558,60333
DA:559,58735
DA:560,58735
DA:561,60333
DA:562,60333
DA:564,0
DA:565,0
DA:566,0
DA:567,0
DA:568,60337
DA:570,60337
DA:573,87
DA:574,45
DA:578,45
DA:580,2
DA:581,2
DA:582,2
DA:585,2
DA:586,2
DA:587,2
DA:588,2
DA:590,41
DA:593,45
DA:596,42
DA:597,42
DA:598,42
DA:601,60250
DA:603,2
DA:604,2
DA:607,0
DA:608,0
DA:609,0
DA:610,0
DA:612,60248
DA:619,60335
DA:621,6
DA:622,2
DA:623,2
DA:624,2
DA:625,2
DA:626,2
DA:628,2
DA:629,2
DA:630,2
DA:631,2
DA:632,2
DA:633,2
DA:634,2
DA:636,2
DA:637,2
DA:638,2
DA:639,2
DA:640,2
DA:641,0
DA:642,0
DA:643,0
DA:645,0
DA:646,2
DA:647,4
DA:650,6
DA:651,6
DA:652,2
DA:653,2
DA:654,2
DA:655,2
DA:656,0
DA:657,0
DA:659,4
DA:661,0
DA:662,60329
DA:664,60331
DA:665,60331
DA:666,0
DA:667,58733
DA:668,58733
DA:669,58733
DA:671,26
DA:672,26
DA:673,22
DA:674,26
DA:676,22
DA:677,22
DA:678,0
DA:679,0
DA:680,0
DA:682,0
DA:684,22
DA:685,22
DA:687,22
DA:688,0
DA:689,0
DA:690,0
DA:691,22
DA:692,4
DA:693,0
DA:695,26
DA:696,4
DA:697,4
DA:698,4
DA:699,4
DA:700,4
DA:701,22
DA:702,26
DA:704,0
DA:705,0
DA:706,0
DA:709,58707
DA:710,58707
DA:711,58707
DA:712,58707
DA:713,58707
DA:715,58707
DA:716,0
DA:717,0
DA:718,58707
DA:719,0
DA:720,0
DA:723,58707
DA:724,58707
DA:726,0
DA:727,0
DA:728,0
DA:731,0
DA:732,0
DA:733,0
DA:734,0
DA:735,58707
DA:736,58707
DA:737,58707
DA:738,58707
DA:739,58707
DA:740,58707
DA:744,1598
DA:746,0
DA:748,60309
DA:761,0
DA:762,0
DA:763,0
DA:764,0
DA:765,0
DA:766,0
DA:767,0
DA:769,0
DA:775,0
DA:776,0
DA:778,0
DA:781,0
DA:784,0
DA:786,0
DA:787,0
DA:788,0
DA:789,0
DA:791,0
DA:803,0
DA:804,0
DA:805,0
DA:806,0
DA:807,0
DA:808,0
DA:810,0
DA:824,0
DA:825,0
DA:826,0
DA:827,0
DA:828,0
DA:829,0
DA:831,0
DA:836,2
DA:837,2
DA:838,2
DA:839,2
DA:840,2
DA:841,2
DA:842,2
DA:843,2
DA:845,2
DA:846,2
DA:847,2
DA:848,2
DA:849,2
DA:850,0
DA:851,0
DA:853,2
DA:854,2
DA:855,2
DA:856,2
DA:857,2
DA:858,2
DA:859,2
DA:860,2
DA:861,2
DA:862,2
DA:863,2
DA:864,0
DA:866,2
DA:867,2
DA:868,2
DA:872,2
DA:873,2
DA:874,2
DA:875,2
DA:876,2
DA:877,2
DA:878,2
DA:879,2
DA:880,2
DA:881,2
DA:882,2
DA:883,2
DA:884,2
DA:885,2
DA:887,2
DA:888,2
BRF:0
BRH:0
LF:470
LH:360
end_of_record
SF:/Users/tomaszpietrek/coding/nats.rs/async-nats/src/jetstream/context.rs
FN:189,_RINvMs2_NtNtCs1hbFQVFAImq_10async_nats9jetstream7contextINtB6_14ContextBuilderNtB6_3YesE10api_prefixpEBa_
FN:203,_RINvMs2_NtNtCs1hbFQVFAImq_10async_nats9jetstream7contextINtB6_14ContextBuilderNtB6_3YesE6domainpEBa_
FN:671,_RINvMs4_NtNtCs1hbFQVFAImq_10async_nats9jetstream7contextNtB6_7Context10get_streampEBa_
FN:361,_RINvMs4_NtNtCs1hbFQVFAImq_10async_nats9jetstream7contextNtB6_7Context11with_domainpEBa_
FN:354,_RINvMs4_NtNtCs1hbFQVFAImq_10async_nats9jetstream7contextNtB6_7Context11with_prefixpEBa_
FN:470,_RINvMs4_NtNtCs1hbFQVFAImq_10async_nats9jetstream7contextNtB6_7Context12send_publishpEBa_
FN:557,_RINvMs4_NtNtCs1hbFQVFAImq_10async_nats9jetstream7contextNtB6_7Context13create_streampEBa_
FN:770,_RINvMs4_NtNtCs1hbFQVFAImq_10async_nats9jetstream7contextNtB6_7Context13delete_streampEBa_
FN:999,_RINvMs4_NtNtCs1hbFQVFAImq_10async_nats9jetstream7contextNtB6_7Context13get_key_valuepEBa_
FN:822,_RINvMs4_NtNtCs1hbFQVFAImq_10async_nats9jetstream7contextNtB6_7Context13update_streampEBa_
FN:1208,_RINvMs4_NtNtCs1hbFQVFAImq_10async_nats9jetstream7contextNtB6_7Context16delete_key_valuepEBa_
FN:1619,_RINvMs4_NtNtCs1hbFQVFAImq_10async_nats9jetstream7contextNtB6_7Context16get_object_storepEBa_
FN:900,_RINvMs4_NtNtCs1hbFQVFAImq_10async_nats9jetstream7contextNtB6_7Context17stream_by_subjectpEBa_
FN:636,_RINvMs4_NtNtCs1hbFQVFAImq_10async_nats9jetstream7contextNtB6_7Context18get_stream_no_infopEBa_
FN:1654,_RINvMs4_NtNtCs1hbFQVFAImq_10async_nats9jetstream7contextNtB6_7Context19delete_object_storepEBa_
FN:721,_RINvMs4_NtNtCs1hbFQVFAImq_10async_nats9jetstream7contextNtB6_7Context20get_or_create_streampEBa_
FN:435,_RINvMs4_NtNtCs1hbFQVFAImq_10async_nats9jetstream7contextNtB6_7Context20publish_with_headerspEBa_
FN:1258,_RINvMs4_NtNtCs1hbFQVFAImq_10async_nats9jetstream7contextNtB6_7Context24get_consumer_from_streampppEBa_
FN:1366,_RINvMs4_NtNtCs1hbFQVFAImq_10async_nats9jetstream7contextNtB6_7Context25create_consumer_on_streamppEBa_
FN:1402,_RINvMs4_NtNtCs1hbFQVFAImq_10async_nats9jetstream7contextNtB6_7Context25update_consumer_on_streamppEBa_
FN:1317,_RINvMs4_NtNtCs1hbFQVFAImq_10async_nats9jetstream7contextNtB6_7Context27delete_consumer_from_streamppEBa_
FN:1452,_RINvMs4_NtNtCs1hbFQVFAImq_10async_nats9jetstream7contextNtB6_7Context32create_consumer_on_stream_actionppEBa_
FN:1439,_RINvMs4_NtNtCs1hbFQVFAImq_10async_nats9jetstream7contextNtB6_7Context32create_consumer_strict_on_streamppEBa_
FN:405,_RINvMs4_NtNtCs1hbFQVFAImq_10async_nats9jetstream7contextNtB6_7Context7publishpEBa_
FN:1513,_RINvMs4_NtNtCs1hbFQVFAImq_10async_nats9jetstream7contextNtB6_7Context7requestpppEBa_
FN:1667,_RINvXs5_NtNtCs1hbFQVFAImq_10async_nats9jetstream7contextNtB6_7ContextNtNtNtBa_6client6traits9Requester12send_requestpEBa_
FN:1677,_RINvXs6_NtNtCs1hbFQVFAImq_10async_nats9jetstream7contextNtB6_7ContextNtNtNtBa_6client6traits9Publisher18publish_with_replyppEBa_
FN:1701,_RINvXs8_NtNtCs1hbFQVFAImq_10async_nats9jetstream7contextNtB6_7ContextNtNtB6_6traits9Requester7requestpppEBa_
FN:1722,_RINvXsa_NtNtCs1hbFQVFAImq_10async_nats9jetstream7contextNtB6_7ContextNtNtB6_6traits9Publisher7publishpEBa_
FN:671,_RNCINvMs4_NtNtCs1hbFQVFAImq_10async_nats9jetstream7contextNtB8_7Context10get_streampE0Bc_
FN:474,_RNCINvMs4_NtNtCs1hbFQVFAImq_10async_nats9jetstream7contextNtB8_7Context12send_publishpE0Bc_
FN:563,_RNCINvMs4_NtNtCs1hbFQVFAImq_10async_nats9jetstream7contextNtB8_7Context13create_streampE0Bc_
FN:773,_RNCINvMs4_NtNtCs1hbFQVFAImq_10async_nats9jetstream7contextNtB8_7Context13delete_streampE0Bc_
FN:999,_RNCINvMs4_NtNtCs1hbFQVFAImq_10async_nats9jetstream7contextNtB8_7Context13get_key_valuepE0Bc_
FN:825,_RNCINvMs4_NtNtCs1hbFQVFAImq_10async_nats9jetstream7contextNtB8_7Context13update_streampE0Bc_
FN:1211,_RNCINvMs4_NtNtCs1hbFQVFAImq_10async_nats9jetstream7contextNtB8_7Context16delete_key_valuepE0Bc_
FN:1622,_RNCINvMs4_NtNtCs1hbFQVFAImq_10async_nats9jetstream7contextNtB8_7Context16get_object_storepE0Bc_
FN:903,_RNCINvMs4_NtNtCs1hbFQVFAImq_10async_nats9jetstream7contextNtB8_7Context17stream_by_subjectpE0Bc_
FN:639,_RNCINvMs4_NtNtCs1hbFQVFAImq_10async_nats9jetstream7contextNtB8_7Context18get_stream_no_infopE0Bc_
FN:1657,_RNCINvMs4_NtNtCs1hbFQVFAImq_10async_nats9jetstream7contextNtB8_7Context19delete_object_storepE0Bc_
FN:727,_RNCINvMs4_NtNtCs1hbFQVFAImq_10async_nats9jetstream7contextNtB8_7Context20get_or_create_streampE0Bc_
FN:440,_RNCINvMs4_NtNtCs1hbFQVFAImq_10async_nats9jetstream7contextNtB8_7Context20publish_with_headerspE0Bc_
FN:1267,_RNCINvMs4_NtNtCs1hbFQVFAImq_10async_nats9jetstream7contextNtB8_7Context24get_consumer_from_streampppE0Bc_
FN:1370,_RNCINvMs4_NtNtCs1hbFQVFAImq_10async_nats9jetstream7contextNtB8_7Context25create_consumer_on_streamppE0Bc_
FN:1406,_RNCINvMs4_NtNtCs1hbFQVFAImq_10async_nats9jetstream7contextNtB8_7Context25update_consumer_on_streamppE0Bc_
FN:1321,_RNCINvMs4_NtNtCs1hbFQVFAImq_10async_nats9jetstream7contextNtB8_7Context27delete_consumer_from_streamppE0Bc_
FN:1460,_RNCINvMs4_NtNtCs1hbFQVFAImq_10async_nats9jetstream7contextNtB8_7Context32create_consumer_on_stream_actionppE0Bc_
FN:1446,_RNCINvMs4_NtNtCs1hbFQVFAImq_10async_nats9jetstream7contextNtB8_7Context32create_consumer_strict_on_streamppE0Bc_
FN:409,_RNCINvMs4_NtNtCs1hbFQVFAImq_10async_nats9jetstream7contextNtB8_7Context7publishpE0Bc_
FN:1518,_RNCINvMs4_NtNtCs1hbFQVFAImq_10async_nats9jetstream7contextNtB8_7Context7requestpppE0Bc_
FN:685,_RNCNCINvMs4_NtNtCs1hbFQVFAImq_10async_nats9jetstream7contextNtBa_7Context10get_streampE00Be_
FN:481,_RNCNCINvMs4_NtNtCs1hbFQVFAImq_10async_nats9jetstream7contextNtBa_7Context12send_publishpE00Be_
FN:509,_RNCNCINvMs4_NtNtCs1hbFQVFAImq_10async_nats9jetstream7contextNtBa_7Context12send_publishpE0s0_0Be_
FN:512,_RNCNCINvMs4_NtNtCs1hbFQVFAImq_10async_nats9jetstream7contextNtBa_7Context12send_publishpE0s1_0Be_
FN:487,_RNCNCINvMs4_NtNtCs1hbFQVFAImq_10async_nats9jetstream7contextNtBa_7Context12send_publishpE0s_0Be_
FN:789,_RNCNCINvMs4_NtNtCs1hbFQVFAImq_10async_nats9jetstream7contextNtBa_7Context13delete_streampE00Be_
FN:1008,_RNCNCINvMs4_NtNtCs1hbFQVFAImq_10async_nats9jetstream7contextNtBa_7Context13get_key_valuepE00Be_
FN:1218,_RNCNCINvMs4_NtNtCs1hbFQVFAImq_10async_nats9jetstream7contextNtBa_7Context16delete_key_valuepE00Be_
FN:1633,_RNCNCINvMs4_NtNtCs1hbFQVFAImq_10async_nats9jetstream7contextNtBa_7Context16get_object_storepE00Be_
FN:1661,_RNCNCINvMs4_NtNtCs1hbFQVFAImq_10async_nats9jetstream7contextNtBa_7Context19delete_object_storepE00Be_
FN:1287,_RNCNCINvMs4_NtNtCs1hbFQVFAImq_10async_nats9jetstream7contextNtBa_7Context24get_consumer_from_streampppE00Be_
FN:1409,_RNCNCINvMs4_NtNtCs1hbFQVFAImq_10async_nats9jetstream7contextNtBa_7Context25update_consumer_on_streamppE00Be_
FN:1473,_RNCNCINvMs4_NtNtCs1hbFQVFAImq_10async_nats9jetstream7contextNtBa_7Context32create_consumer_on_stream_actionppE00Be_
FN:1487,_RNCNCINvMs4_NtNtCs1hbFQVFAImq_10async_nats9jetstream7contextNtBa_7Context32create_consumer_on_stream_actionppE0s0_0Be_
FN:1474,_RNCNCINvMs4_NtNtCs1hbFQVFAImq_10async_nats9jetstream7contextNtBa_7Context32create_consumer_on_stream_actionppE0s_0Be_
FN:1449,_RNCNCINvMs4_NtNtCs1hbFQVFAImq_10async_nats9jetstream7contextNtBa_7Context32create_consumer_strict_on_streamppE00Be_
FN:1522,_RNCNCINvMs4_NtNtCs1hbFQVFAImq_10async_nats9jetstream7contextNtBa_7Context7requestpppE00Be_
FN:1536,_RNCNCINvMs4_NtNtCs1hbFQVFAImq_10async_nats9jetstream7contextNtBa_7Context7requestpppE0s_0Be_
FN:1801,_RNCNCNCNvMsd_NtNtCs1hbFQVFAImq_10async_nats9jetstream7contextNtBb_16PublishAckFuture17next_with_timeout0s0_00Bf_
FN:117,_RNCNCNCNvNtNtCs1hbFQVFAImq_10async_nats9jetstream7context11spawn_acker000Bb_
FN:1066,_RNCNCNvMs4_NtNtCs1hbFQVFAImq_10async_nats9jetstream7contextNtB9_7Context16create_key_value00Bd_
FN:1073,_RNCNCNvMs4_NtNtCs1hbFQVFAImq_10async_nats9jetstream7contextNtB9_7Context16create_key_value0s_0Bd_
FN:1116,_RNCNCNvMs4_NtNtCs1hbFQVFAImq_10async_nats9jetstream7contextNtB9_7Context16update_key_value00Bd_
FN:1122,_RNCNCNvMs4_NtNtCs1hbFQVFAImq_10async_nats9jetstream7contextNtB9_7Context16update_key_value0s_0Bd_
FN:1596,_RNCNCNvMs4_NtNtCs1hbFQVFAImq_10async_nats9jetstream7contextNtB9_7Context19create_object_store00Bd_
FN:878,_RNCNCNvMs4_NtNtCs1hbFQVFAImq_10async_nats9jetstream7contextNtB9_7Context23create_or_update_stream00Bd_
FN:1170,_RNCNCNvMs4_NtNtCs1hbFQVFAImq_10async_nats9jetstream7contextNtB9_7Context26create_or_update_key_value00Bd_
FN:1176,_RNCNCNvMs4_NtNtCs1hbFQVFAImq_10async_nats9jetstream7contextNtB9_7Context26create_or_update_key_value0s_0Bd_
FN:1793,_RNCNCNvMsd_NtNtCs1hbFQVFAImq_10async_nats9jetstream7contextNtB9_16PublishAckFuture17next_with_timeout00Bd_
FN:1796,_RNCNCNvMsd_NtNtCs1hbFQVFAImq_10async_nats9jetstream7contextNtB9_16PublishAckFuture17next_with_timeout0s0_0Bd_
FN:1795,_RNCNCNvMsd_NtNtCs1hbFQVFAImq_10async_nats9jetstream7contextNtB9_16PublishAckFuture17next_with_timeout0s_0Bd_
FN:120,_RNCNCNvNtNtCs1hbFQVFAImq_10async_nats9jetstream7context11spawn_acker00B9_
FN:524,_RNCNvMs4_NtNtCs1hbFQVFAImq_10async_nats9jetstream7contextNtB7_7Context13query_account0Bb_
FN:346,_RNCNvMs4_NtNtCs1hbFQVFAImq_10async_nats9jetstream7contextNtB7_7Context13wait_for_acks0Bb_
FN:1060,_RNCNvMs4_NtNtCs1hbFQVFAImq_10async_nats9jetstream7contextNtB7_7Context16create_key_value0Bb_
FN:1106,_RNCNvMs4_NtNtCs1hbFQVFAImq_10async_nats9jetstream7contextNtB7_7Context16update_key_value0Bb_
FN:1562,_RNCNvMs4_NtNtCs1hbFQVFAImq_10async_nats9jetstream7contextNtB7_7Context19create_object_store0Bb_
FN:870,_RNCNvMs4_NtNtCs1hbFQVFAImq_10async_nats9jetstream7contextNtB7_7Context23create_or_update_stream0Bb_
FN:1160,_RNCNvMs4_NtNtCs1hbFQVFAImq_10async_nats9jetstream7contextNtB7_7Context26create_or_update_key_value0Bb_
FN:1790,_RNCNvMsd_NtNtCs1hbFQVFAImq_10async_nats9jetstream7contextNtB7_16PublishAckFuture17next_with_timeout0Bb_
FN:116,_RNCNvNtNtCs1hbFQVFAImq_10async_nats9jetstream7context11spawn_acker0B7_
FN:1867,_RNCNvXsf_NtNtCs1hbFQVFAImq_10async_nats9jetstream7contextNtB7_11StreamNamesNtNtCscxja3U2MsTJ_12futures_core6stream6Stream9poll_next0Bb_
FN:1894,_RNCNvXsf_NtNtCs1hbFQVFAImq_10async_nats9jetstream7contextNtB7_11StreamNamesNtNtCscxja3U2MsTJ_12futures_core6stream6Stream9poll_nexts_0Bb_
FN:1943,_RNCNvXsg_NtNtCs1hbFQVFAImq_10async_nats9jetstream7contextNtB7_7StreamsNtNtCscxja3U2MsTJ_12futures_core6stream6Stream9poll_next0Bb_
FN:1969,_RNCNvXsg_NtNtCs1hbFQVFAImq_10async_nats9jetstream7contextNtB7_7StreamsNtNtCscxja3U2MsTJ_12futures_core6stream6Stream9poll_nexts_0Bb_
FN:182,_RNvMs1_NtNtCs1hbFQVFAImq_10async_nats9jetstream7contextINtB5_14ContextBuilderNtB5_3YesE3new
FN:238,_RNvMs3_NtNtCs1hbFQVFAImq_10async_nats9jetstream7contextINtB5_14ContextBuilderpE11ack_timeoutB9_
FN:255,_RNvMs3_NtNtCs1hbFQVFAImq_10async_nats9jetstream7contextINtB5_14ContextBuilderpE16max_ack_inflightB9_
FN:291,_RNvMs3_NtNtCs1hbFQVFAImq_10async_nats9jetstream7contextINtB5_14ContextBuilderpE17concurrency_limitB9_
FN:274,_RNvMs3_NtNtCs1hbFQVFAImq_10async_nats9jetstream7contextINtB5_14ContextBuilderpE24backpressure_on_inflightB9_
FN:307,_RNvMs3_NtNtCs1hbFQVFAImq_10async_nats9jetstream7contextINtB5_14ContextBuilderpE5buildB9_
FN:221,_RNvMs3_NtNtCs1hbFQVFAImq_10async_nats9jetstream7contextINtB5_14ContextBuilderpE7timeoutB9_
FN:332,_RNvMs4_NtNtCs1hbFQVFAImq_10async_nats9jetstream7contextNtB5_7Context11set_timeout
FN:949,_RNvMs4_NtNtCs1hbFQVFAImq_10async_nats9jetstream7contextNtB5_7Context12stream_names
FN:524,_RNvMs4_NtNtCs1hbFQVFAImq_10async_nats9jetstream7contextNtB5_7Context13query_account
FN:346,_RNvMs4_NtNtCs1hbFQVFAImq_10async_nats9jetstream7contextNtB5_7Context13wait_for_acks
FN:1057,_RNvMs4_NtNtCs1hbFQVFAImq_10async_nats9jetstream7contextNtB5_7Context16create_key_value
FN:1103,_RNvMs4_NtNtCs1hbFQVFAImq_10async_nats9jetstream7contextNtB5_7Context16update_key_value
FN:1559,_RNvMs4_NtNtCs1hbFQVFAImq_10async_nats9jetstream7contextNtB5_7Context19create_object_store
FN:870,_RNvMs4_NtNtCs1hbFQVFAImq_10async_nats9jetstream7contextNtB5_7Context23create_or_update_stream
FN:1157,_RNvMs4_NtNtCs1hbFQVFAImq_10async_nats9jetstream7contextNtB5_7Context26create_or_update_key_value
FN:327,_RNvMs4_NtNtCs1hbFQVFAImq_10async_nats9jetstream7contextNtB5_7Context3new
FN:337,_RNvMs4_NtNtCs1hbFQVFAImq_10async_nats9jetstream7contextNtB5_7Context6client
FN:977,_RNvMs4_NtNtCs1hbFQVFAImq_10async_nats9jetstream7contextNtB5_7Context7streams
FN:1790,_RNvMsd_NtNtCs1hbFQVFAImq_10async_nats9jetstream7contextNtB5_16PublishAckFuture17next_with_timeout
FN:111,_RNvNtNtCs1hbFQVFAImq_10async_nats9jetstream7context11spawn_acker
FN:2400,_RNvNtNtCs1hbFQVFAImq_10async_nats9jetstream7context19kv_to_stream_config
FN:2343,_RNvNtNtCs1hbFQVFAImq_10async_nats9jetstream7context9map_to_kv
FN:167,_RNvXs0_NtNtCs1hbFQVFAImq_10async_nats9jetstream7contextINtB5_14ContextBuilderNtB5_3YesENtNtCs2CqrNpCrSUr_4core7default7Default7default
FN:1686,_RNvXs6_NtNtCs1hbFQVFAImq_10async_nats9jetstream7contextNtB5_7ContextNtNtNtB9_6client6traits9Publisher15publish_message
FN:1695,_RNvXs7_NtNtCs1hbFQVFAImq_10async_nats9jetstream7contextNtB5_7ContextNtNtB5_6traits14ClientProvider6client
FN:1716,_RNvXs9_NtNtCs1hbFQVFAImq_10async_nats9jetstream7contextNtB5_7ContextNtNtB5_6traits15TimeoutProvider7timeout
FN:1730,_RNvXsa_NtNtCs1hbFQVFAImq_10async_nats9jetstream7contextNtB5_7ContextNtNtB5_6traits9Publisher15publish_message
FN:1756,_RNvXsb_NtNtCs1hbFQVFAImq_10async_nats9jetstream7contextNtB5_16PublishErrorKindNtNtCs2CqrNpCrSUr_4core3fmt7Display3fmt
FN:1780,_RNvXsc_NtNtCs1hbFQVFAImq_10async_nats9jetstream7contextNtB5_16PublishAckFutureNtNtNtCs2CqrNpCrSUr_4core3ops4drop4Drop4drop
FN:1825,_RNvXse_NtNtCs1hbFQVFAImq_10async_nats9jetstream7contextNtB5_16PublishAckFutureNtNtNtCs2CqrNpCrSUr_4core6future11into_future10IntoFuture11into_future
FN:1858,_RNvXsf_NtNtCs1hbFQVFAImq_10async_nats9jetstream7contextNtB5_11StreamNamesNtNtCscxja3U2MsTJ_12futures_core6stream6Stream9poll_next
FN:1934,_RNvXsg_NtNtCs1hbFQVFAImq_10async_nats9jetstream7contextNtB5_7StreamsNtNtCscxja3U2MsTJ_12futures_core6stream6Stream9poll_next
FN:2008,_RNvXsh_NtNtCs1hbFQVFAImq_10async_nats9jetstream7contextNtB5_16RequestErrorKindNtNtCs2CqrNpCrSUr_4core3fmt7Display3fmt
FN:2020,_RNvXsi_NtNtCs1hbFQVFAImq_10async_nats9jetstream7contextINtNtB9_5error5ErrorNtB5_16RequestErrorKindEINtNtCs2CqrNpCrSUr_4core7convert4FromIBS_NtNtB9_6client16RequestErrorKindEE4from
FN:2036,_RNvXsj_NtNtCs1hbFQVFAImq_10async_nats9jetstream7contextINtNtB9_5error5ErrorNtB5_16RequestErrorKindEINtNtCs2CqrNpCrSUr_4core7convert4FromNtNtB7_6errors5ErrorE4from
FN:2056,_RNvXsk_NtNtCs1hbFQVFAImq_10async_nats9jetstream7contextNtB5_21ConsumerInfoErrorKindNtNtCs2CqrNpCrSUr_4core3fmt7Display3fmt
FN:2071,_RNvXsl_NtNtCs1hbFQVFAImq_10async_nats9jetstream7contextINtNtB9_5error5ErrorNtB5_21ConsumerInfoErrorKindEINtNtCs2CqrNpCrSUr_4core7convert4FromNtNtB7_6errors5ErrorE4from
FN:2086,_RNvXsm_NtNtCs1hbFQVFAImq_10async_nats9jetstream7contextINtNtB9_5error5ErrorNtB5_21ConsumerInfoErrorKindEINtNtCs2CqrNpCrSUr_4core7convert4FromIBS_NtB5_16RequestErrorKindEE4from
FN:2113,_RNvXsn_NtNtCs1hbFQVFAImq_10async_nats9jetstream7contextNtB5_21CreateStreamErrorKindNtNtCs2CqrNpCrSUr_4core3fmt7Display3fmt
FN:2131,_RNvXso_NtNtCs1hbFQVFAImq_10async_nats9jetstream7contextINtNtB9_5error5ErrorNtB5_21CreateStreamErrorKindEINtNtCs2CqrNpCrSUr_4core7convert4FromNtNtB7_6errors5ErrorE4from
FN:2142,_RNvXsp_NtNtCs1hbFQVFAImq_10async_nats9jetstream7contextINtNtB9_5error5ErrorNtB5_21CreateStreamErrorKindEINtNtCs2CqrNpCrSUr_4core7convert4FromIBS_NtB5_16RequestErrorKindEE4from
FN:2164,_RNvXsq_NtNtCs1hbFQVFAImq_10async_nats9jetstream7contextNtB5_18GetStreamErrorKindNtNtCs2CqrNpCrSUr_4core3fmt7Display3fmt
FN:2183,_RNvXsr_NtNtCs1hbFQVFAImq_10async_nats9jetstream7contextNtB5_24GetStreamByNameErrorKindNtNtCs2CqrNpCrSUr_4core3fmt7Display3fmt
FN:2209,_RNvXss_NtNtCs1hbFQVFAImq_10async_nats9jetstream7contextNtB5_17KeyValueErrorKindNtNtCs2CqrNpCrSUr_4core3fmt7Display3fmt
FN:2231,_RNvXst_NtNtCs1hbFQVFAImq_10async_nats9jetstream7contextNtB5_23CreateKeyValueErrorKindNtNtCs2CqrNpCrSUr_4core3fmt7Display3fmt
FN:2257,_RNvXsu_NtNtCs1hbFQVFAImq_10async_nats9jetstream7contextNtB5_23UpdateKeyValueErrorKindNtNtCs2CqrNpCrSUr_4core3fmt7Display3fmt
FN:2284,_RNvXsv_NtNtCs1hbFQVFAImq_10async_nats9jetstream7contextNtB5_20ObjectStoreErrorKindNtNtCs2CqrNpCrSUr_4core3fmt7Display3fmt
FN:2306,_RNvXsw_NtNtCs1hbFQVFAImq_10async_nats9jetstream7contextNtB5_16AccountErrorKindNtNtCs2CqrNpCrSUr_4core3fmt7Display3fmt
FN:2319,_RNvXsx_NtNtCs1hbFQVFAImq_10async_nats9jetstream7contextINtNtB9_5error5ErrorNtB5_16AccountErrorKindEINtNtCs2CqrNpCrSUr_4core7convert4FromIBS_NtB5_16RequestErrorKindEE4from
FN:2374,_RNvXsy_NtNtCs1hbFQVFAImq_10async_nats9jetstream7contextINtNtB9_5error5ErrorNtB5_23CreateKeyValueErrorKindEINtNtCs2CqrNpCrSUr_4core7convert4FromNtB5_21KvToStreamConfigErrorE4from
FN:2387,_RNvXsz_NtNtCs1hbFQVFAImq_10async_nats9jetstream7contextINtNtB9_5error5ErrorNtB5_23UpdateKeyValueErrorKindEINtNtCs2CqrNpCrSUr_4core7convert4FromNtB5_21KvToStreamConfigErrorE4from
FN:203,_RINvMs2_NtNtCs6qhVEmoZJ2z_10async_nats9jetstream7contextINtB6_14ContextBuilderNtB6_3YesE6domainpEBa_
FN:671,_RINvMs4_NtNtCs6qhVEmoZJ2z_10async_nats9jetstream7contextNtB6_7Context10get_streampEBa_
FN:361,_RINvMs4_NtNtCs6qhVEmoZJ2z_10async_nats9jetstream7contextNtB6_7Context11with_domainpEBa_
FN:557,_RINvMs4_NtNtCs6qhVEmoZJ2z_10async_nats9jetstream7contextNtB6_7Context13create_streampEBa_
FN:770,_RINvMs4_NtNtCs6qhVEmoZJ2z_10async_nats9jetstream7contextNtB6_7Context13delete_streampEBa_
FN:999,_RINvMs4_NtNtCs6qhVEmoZJ2z_10async_nats9jetstream7contextNtB6_7Context13get_key_valuepEBa_
FN:822,_RINvMs4_NtNtCs6qhVEmoZJ2z_10async_nats9jetstream7contextNtB6_7Context13update_streampEBa_
FN:1208,_RINvMs4_NtNtCs6qhVEmoZJ2z_10async_nats9jetstream7contextNtB6_7Context16delete_key_valuepEBa_
FN:1619,_RINvMs4_NtNtCs6qhVEmoZJ2z_10async_nats9jetstream7contextNtB6_7Context16get_object_storepEBa_
FN:900,_RINvMs4_NtNtCs6qhVEmoZJ2z_10async_nats9jetstream7contextNtB6_7Context17stream_by_subjectpEBa_
FN:636,_RINvMs4_NtNtCs6qhVEmoZJ2z_10async_nats9jetstream7contextNtB6_7Context18get_stream_no_infopEBa_
FN:1654,_RINvMs4_NtNtCs6qhVEmoZJ2z_10async_nats9jetstream7contextNtB6_7Context19delete_object_storepEBa_
FN:721,_RINvMs4_NtNtCs6qhVEmoZJ2z_10async_nats9jetstream7contextNtB6_7Context20get_or_create_streampEBa_
FN:435,_RINvMs4_NtNtCs6qhVEmoZJ2z_10async_nats9jetstream7contextNtB6_7Context20publish_with_headerspEBa_
FN:1258,_RINvMs4_NtNtCs6qhVEmoZJ2z_10async_nats9jetstream7contextNtB6_7Context24get_consumer_from_streampppEBa_
FN:1402,_RINvMs4_NtNtCs6qhVEmoZJ2z_10async_nats9jetstream7contextNtB6_7Context25update_consumer_on_streamppEBa_
FN:1439,_RINvMs4_NtNtCs6qhVEmoZJ2z_10async_nats9jetstream7contextNtB6_7Context32create_consumer_strict_on_streamppEBa_
FN:405,_RINvMs4_NtNtCs6qhVEmoZJ2z_10async_nats9jetstream7contextNtB6_7Context7publishpEBa_
FN:1667,_RINvXs5_NtNtCs6qhVEmoZJ2z_10async_nats9jetstream7contextNtB6_7ContextNtNtNtBa_6client6traits9Requester12send_requestpEBa_
FN:1677,_RINvXs6_NtNtCs6qhVEmoZJ2z_10async_nats9jetstream7contextNtB6_7ContextNtNtNtBa_6client6traits9Publisher18publish_with_replyppEBa_
FN:1701,_RINvXs8_NtNtCs6qhVEmoZJ2z_10async_nats9jetstream7contextNtB6_7ContextNtNtB6_6traits9Requester7requestpppEBa_
FN:1722,_RINvXsa_NtNtCs6qhVEmoZJ2z_10async_nats9jetstream7contextNtB6_7ContextNtNtB6_6traits9Publisher7publishpEBa_
FN:671,_RNCINvMs4_NtNtCs6qhVEmoZJ2z_10async_nats9jetstream7contextNtB8_7Context10get_streampE0Bc_
FN:474,_RNCINvMs4_NtNtCs6qhVEmoZJ2z_10async_nats9jetstream7contextNtB8_7Context12send_publishpE0Bc_
FN:563,_RNCINvMs4_NtNtCs6qhVEmoZJ2z_10async_nats9jetstream7contextNtB8_7Context13create_streampE0Bc_
FN:773,_RNCINvMs4_NtNtCs6qhVEmoZJ2z_10async_nats9jetstream7contextNtB8_7Context13delete_streampE0Bc_
FN:999,_RNCINvMs4_NtNtCs6qhVEmoZJ2z_10async_nats9jetstream7contextNtB8_7Context13get_key_valuepE0Bc_
FN:825,_RNCINvMs4_NtNtCs6qhVEmoZJ2z_10async_nats9jetstream7contextNtB8_7Context13update_streampE0Bc_
FN:1211,_RNCINvMs4_NtNtCs6qhVEmoZJ2z_10async_nats9jetstream7contextNtB8_7Context16delete_key_valuepE0Bc_
FN:1622,_RNCINvMs4_NtNtCs6qhVEmoZJ2z_10async_nats9jetstream7contextNtB8_7Context16get_object_storepE0Bc_
FN:903,_RNCINvMs4_NtNtCs6qhVEmoZJ2z_10async_nats9jetstream7contextNtB8_7Context17stream_by_subjectpE0Bc_
FN:639,_RNCINvMs4_NtNtCs6qhVEmoZJ2z_10async_nats9jetstream7contextNtB8_7Context18get_stream_no_infopE0Bc_
FN:1657,_RNCINvMs4_NtNtCs6qhVEmoZJ2z_10async_nats9jetstream7contextNtB8_7Context19delete_object_storepE0Bc_
FN:727,_RNCINvMs4_NtNtCs6qhVEmoZJ2z_10async_nats9jetstream7contextNtB8_7Context20get_or_create_streampE0Bc_
FN:440,_RNCINvMs4_NtNtCs6qhVEmoZJ2z_10async_nats9jetstream7contextNtB8_7Context20publish_with_headerspE0Bc_
FN:1267,_RNCINvMs4_NtNtCs6qhVEmoZJ2z_10async_nats9jetstream7contextNtB8_7Context24get_consumer_from_streampppE0Bc_
FN:1406,_RNCINvMs4_NtNtCs6qhVEmoZJ2z_10async_nats9jetstream7contextNtB8_7Context25update_consumer_on_streamppE0Bc_
FN:1446,_RNCINvMs4_NtNtCs6qhVEmoZJ2z_10async_nats9jetstream7contextNtB8_7Context32create_consumer_strict_on_streamppE0Bc_
FN:409,_RNCINvMs4_NtNtCs6qhVEmoZJ2z_10async_nats9jetstream7contextNtB8_7Context7publishpE0Bc_
FN:685,_RNCNCINvMs4_NtNtCs6qhVEmoZJ2z_10async_nats9jetstream7contextNtBa_7Context10get_streampE00Be_
FN:481,_RNCNCINvMs4_NtNtCs6qhVEmoZJ2z_10async_nats9jetstream7contextNtBa_7Context12send_publishpE00Be_
FN:509,_RNCNCINvMs4_NtNtCs6qhVEmoZJ2z_10async_nats9jetstream7contextNtBa_7Context12send_publishpE0s0_0Be_
FN:512,_RNCNCINvMs4_NtNtCs6qhVEmoZJ2z_10async_nats9jetstream7contextNtBa_7Context12send_publishpE0s1_0Be_
FN:487,_RNCNCINvMs4_NtNtCs6qhVEmoZJ2z_10async_nats9jetstream7contextNtBa_7Context12send_publishpE0s_0Be_
FN:789,_RNCNCINvMs4_NtNtCs6qhVEmoZJ2z_10async_nats9jetstream7contextNtBa_7Context13delete_streampE00Be_
FN:1008,_RNCNCINvMs4_NtNtCs6qhVEmoZJ2z_10async_nats9jetstream7contextNtBa_7Context13get_key_valuepE00Be_
FN:1218,_RNCNCINvMs4_NtNtCs6qhVEmoZJ2z_10async_nats9jetstream7contextNtBa_7Context16delete_key_valuepE00Be_
FN:1633,_RNCNCINvMs4_NtNtCs6qhVEmoZJ2z_10async_nats9jetstream7contextNtBa_7Context16get_object_storepE00Be_
FN:1661,_RNCNCINvMs4_NtNtCs6qhVEmoZJ2z_10async_nats9jetstream7contextNtBa_7Context19delete_object_storepE00Be_
FN:1287,_RNCNCINvMs4_NtNtCs6qhVEmoZJ2z_10async_nats9jetstream7contextNtBa_7Context24get_consumer_from_streampppE00Be_
FN:1409,_RNCNCINvMs4_NtNtCs6qhVEmoZJ2z_10async_nats9jetstream7contextNtBa_7Context25update_consumer_on_streamppE00Be_
FN:1449,_RNCNCINvMs4_NtNtCs6qhVEmoZJ2z_10async_nats9jetstream7contextNtBa_7Context32create_consumer_strict_on_streamppE00Be_
FN:1066,_RNCNCNvMs4_NtNtCs6qhVEmoZJ2z_10async_nats9jetstream7contextNtB9_7Context16create_key_value00Bd_
FN:1073,_RNCNCNvMs4_NtNtCs6qhVEmoZJ2z_10async_nats9jetstream7contextNtB9_7Context16create_key_value0s_0Bd_
FN:1116,_RNCNCNvMs4_NtNtCs6qhVEmoZJ2z_10async_nats9jetstream7contextNtB9_7Context16update_key_value00Bd_
FN:1122,_RNCNCNvMs4_NtNtCs6qhVEmoZJ2z_10async_nats9jetstream7contextNtB9_7Context16update_key_value0s_0Bd_
FN:1596,_RNCNCNvMs4_NtNtCs6qhVEmoZJ2z_10async_nats9jetstream7contextNtB9_7Context19create_object_store00Bd_
FN:878,_RNCNCNvMs4_NtNtCs6qhVEmoZJ2z_10async_nats9jetstream7contextNtB9_7Context23create_or_update_stream00Bd_
FN:1170,_RNCNCNvMs4_NtNtCs6qhVEmoZJ2z_10async_nats9jetstream7contextNtB9_7Context26create_or_update_key_value00Bd_
FN:1176,_RNCNCNvMs4_NtNtCs6qhVEmoZJ2z_10async_nats9jetstream7contextNtB9_7Context26create_or_update_key_value0s_0Bd_
FN:524,_RNCNvMs4_NtNtCs6qhVEmoZJ2z_10async_nats9jetstream7contextNtB7_7Context13query_account0Bb_
FN:346,_RNCNvMs4_NtNtCs6qhVEmoZJ2z_10async_nats9jetstream7contextNtB7_7Context13wait_for_acks0Bb_
FN:1060,_RNCNvMs4_NtNtCs6qhVEmoZJ2z_10async_nats9jetstream7contextNtB7_7Context16create_key_value0Bb_
FN:1106,_RNCNvMs4_NtNtCs6qhVEmoZJ2z_10async_nats9jetstream7contextNtB7_7Context16update_key_value0Bb_
FN:1562,_RNCNvMs4_NtNtCs6qhVEmoZJ2z_10async_nats9jetstream7contextNtB7_7Context19create_object_store0Bb_
FN:870,_RNCNvMs4_NtNtCs6qhVEmoZJ2z_10async_nats9jetstream7contextNtB7_7Context23create_or_update_stream0Bb_
FN:1160,_RNCNvMs4_NtNtCs6qhVEmoZJ2z_10async_nats9jetstream7contextNtB7_7Context26create_or_update_key_value0Bb_
FN:238,_RNvMs3_NtNtCs6qhVEmoZJ2z_10async_nats9jetstream7contextINtB5_14ContextBuilderpE11ack_timeoutB9_
FN:255,_RNvMs3_NtNtCs6qhVEmoZJ2z_10async_nats9jetstream7contextINtB5_14ContextBuilderpE16max_ack_inflightB9_
FN:291,_RNvMs3_NtNtCs6qhVEmoZJ2z_10async_nats9jetstream7contextINtB5_14ContextBuilderpE17concurrency_limitB9_
FN:274,_RNvMs3_NtNtCs6qhVEmoZJ2z_10async_nats9jetstream7contextINtB5_14ContextBuilderpE24backpressure_on_inflightB9_
FN:221,_RNvMs3_NtNtCs6qhVEmoZJ2z_10async_nats9jetstream7contextINtB5_14ContextBuilderpE7timeoutB9_
FN:2020,_RNvXsi_NtNtCs6qhVEmoZJ2z_10async_nats9jetstream7contextINtNtB9_5error5ErrorNtB5_16RequestErrorKindEINtNtCs2CqrNpCrSUr_4core7convert4FromIBS_NtNtB9_6client16RequestErrorKindEE4from
FN:2036,_RNvXsj_NtNtCs6qhVEmoZJ2z_10async_nats9jetstream7contextINtNtB9_5error5ErrorNtB5_16RequestErrorKindEINtNtCs2CqrNpCrSUr_4core7convert4FromNtNtB7_6errors5ErrorE4from
FN:2071,_RNvXsl_NtNtCs6qhVEmoZJ2z_10async_nats9jetstream7contextINtNtB9_5error5ErrorNtB5_21ConsumerInfoErrorKindEINtNtCs2CqrNpCrSUr_4core7convert4FromNtNtB7_6errors5ErrorE4from
FN:2086,_RNvXsm_NtNtCs6qhVEmoZJ2z_10async_nats9jetstream7contextINtNtB9_5error5ErrorNtB5_21ConsumerInfoErrorKindEINtNtCs2CqrNpCrSUr_4core7convert4FromIBS_NtB5_16RequestErrorKindEE4from
FN:2131,_RNvXso_NtNtCs6qhVEmoZJ2z_10async_nats9jetstream7contextINtNtB9_5error5ErrorNtB5_21CreateStreamErrorKindEINtNtCs2CqrNpCrSUr_4core7convert4FromNtNtB7_6errors5ErrorE4from
FN:2142,_RNvXsp_NtNtCs6qhVEmoZJ2z_10async_nats9jetstream7contextINtNtB9_5error5ErrorNtB5_21CreateStreamErrorKindEINtNtCs2CqrNpCrSUr_4core7convert4FromIBS_NtB5_16RequestErrorKindEE4from
FN:2319,_RNvXsx_NtNtCs6qhVEmoZJ2z_10async_nats9jetstream7contextINtNtB9_5error5ErrorNtB5_16AccountErrorKindEINtNtCs2CqrNpCrSUr_4core7convert4FromIBS_NtB5_16RequestErrorKindEE4from
FN:2374,_RNvXsy_NtNtCs6qhVEmoZJ2z_10async_nats9jetstream7contextINtNtB9_5error5ErrorNtB5_23CreateKeyValueErrorKindEINtNtCs2CqrNpCrSUr_4core7convert4FromNtB5_21KvToStreamConfigErrorE4from
FN:2387,_RNvXsz_NtNtCs6qhVEmoZJ2z_10async_nats9jetstream7contextINtNtB9_5error5ErrorNtB5_23UpdateKeyValueErrorKindEINtNtCs2CqrNpCrSUr_4core7convert4FromNtB5_21KvToStreamConfigErrorE4from
FN:182,_RNvMs1_NtNtCs6qhVEmoZJ2z_10async_nats9jetstream7contextINtB5_14ContextBuilderNtB5_3YesE3new
FN:332,_RNvMs4_NtNtCs6qhVEmoZJ2z_10async_nats9jetstream7contextNtB5_7Context11set_timeout
FN:949,_RNvMs4_NtNtCs6qhVEmoZJ2z_10async_nats9jetstream7contextNtB5_7Context12stream_names
FN:524,_RNvMs4_NtNtCs6qhVEmoZJ2z_10async_nats9jetstream7contextNtB5_7Context13query_account
FN:346,_RNvMs4_NtNtCs6qhVEmoZJ2z_10async_nats9jetstream7contextNtB5_7Context13wait_for_acks
FN:1057,_RNvMs4_NtNtCs6qhVEmoZJ2z_10async_nats9jetstream7contextNtB5_7Context16create_key_value
FN:1103,_RNvMs4_NtNtCs6qhVEmoZJ2z_10async_nats9jetstream7contextNtB5_7Context16update_key_value
FN:1559,_RNvMs4_NtNtCs6qhVEmoZJ2z_10async_nats9jetstream7contextNtB5_7Context19create_object_store
FN:870,_RNvMs4_NtNtCs6qhVEmoZJ2z_10async_nats9jetstream7contextNtB5_7Context23create_or_update_stream
FN:1157,_RNvMs4_NtNtCs6qhVEmoZJ2z_10async_nats9jetstream7contextNtB5_7Context26create_or_update_key_value
FN:327,_RNvMs4_NtNtCs6qhVEmoZJ2z_10async_nats9jetstream7contextNtB5_7Context3new
FN:337,_RNvMs4_NtNtCs6qhVEmoZJ2z_10async_nats9jetstream7contextNtB5_7Context6client
FN:977,_RNvMs4_NtNtCs6qhVEmoZJ2z_10async_nats9jetstream7contextNtB5_7Context7streams
FN:1790,_RNvMsd_NtNtCs6qhVEmoZJ2z_10async_nats9jetstream7contextNtB5_16PublishAckFuture17next_with_timeout
FN:111,_RNvNtNtCs6qhVEmoZJ2z_10async_nats9jetstream7context11spawn_acker
FN:2400,_RNvNtNtCs6qhVEmoZJ2z_10async_nats9jetstream7context19kv_to_stream_config
FN:2343,_RNvNtNtCs6qhVEmoZJ2z_10async_nats9jetstream7context9map_to_kv
FN:167,_RNvXs0_NtNtCs6qhVEmoZJ2z_10async_nats9jetstream7contextINtB5_14ContextBuilderNtB5_3YesENtNtCs2CqrNpCrSUr_4core7default7Default7default
FN:1686,_RNvXs6_NtNtCs6qhVEmoZJ2z_10async_nats9jetstream7contextNtB5_7ContextNtNtNtB9_6client6traits9Publisher15publish_message
FN:1695,_RNvXs7_NtNtCs6qhVEmoZJ2z_10async_nats9jetstream7contextNtB5_7ContextNtNtB5_6traits14ClientProvider6client
FN:1716,_RNvXs9_NtNtCs6qhVEmoZJ2z_10async_nats9jetstream7contextNtB5_7ContextNtNtB5_6traits15TimeoutProvider7timeout
FN:1730,_RNvXsa_NtNtCs6qhVEmoZJ2z_10async_nats9jetstream7contextNtB5_7ContextNtNtB5_6traits9Publisher15publish_message
FN:1756,_RNvXsb_NtNtCs6qhVEmoZJ2z_10async_nats9jetstream7contextNtB5_16PublishErrorKindNtNtCs2CqrNpCrSUr_4core3fmt7Display3fmt
FN:1825,_RNvXse_NtNtCs6qhVEmoZJ2z_10async_nats9jetstream7contextNtB5_16PublishAckFutureNtNtNtCs2CqrNpCrSUr_4core6future11into_future10IntoFuture11into_future
FN:1858,_RNvXsf_NtNtCs6qhVEmoZJ2z_10async_nats9jetstream7contextNtB5_11StreamNamesNtNtCscxja3U2MsTJ_12futures_core6stream6Stream9poll_next
FN:1934,_RNvXsg_NtNtCs6qhVEmoZJ2z_10async_nats9jetstream7contextNtB5_7StreamsNtNtCscxja3U2MsTJ_12futures_core6stream6Stream9poll_next
FN:2008,_RNvXsh_NtNtCs6qhVEmoZJ2z_10async_nats9jetstream7contextNtB5_16RequestErrorKindNtNtCs2CqrNpCrSUr_4core3fmt7Display3fmt
FN:2056,_RNvXsk_NtNtCs6qhVEmoZJ2z_10async_nats9jetstream7contextNtB5_21ConsumerInfoErrorKindNtNtCs2CqrNpCrSUr_4core3fmt7Display3fmt
FN:2113,_RNvXsn_NtNtCs6qhVEmoZJ2z_10async_nats9jetstream7contextNtB5_21CreateStreamErrorKindNtNtCs2CqrNpCrSUr_4core3fmt7Display3fmt
FN:2164,_RNvXsq_NtNtCs6qhVEmoZJ2z_10async_nats9jetstream7contextNtB5_18GetStreamErrorKindNtNtCs2CqrNpCrSUr_4core3fmt7Display3fmt
FN:2183,_RNvXsr_NtNtCs6qhVEmoZJ2z_10async_nats9jetstream7contextNtB5_24GetStreamByNameErrorKindNtNtCs2CqrNpCrSUr_4core3fmt7Display3fmt
FN:2209,_RNvXss_NtNtCs6qhVEmoZJ2z_10async_nats9jetstream7contextNtB5_17KeyValueErrorKindNtNtCs2CqrNpCrSUr_4core3fmt7Display3fmt
FN:2231,_RNvXst_NtNtCs6qhVEmoZJ2z_10async_nats9jetstream7contextNtB5_23CreateKeyValueErrorKindNtNtCs2CqrNpCrSUr_4core3fmt7Display3fmt
FN:2257,_RNvXsu_NtNtCs6qhVEmoZJ2z_10async_nats9jetstream7contextNtB5_23UpdateKeyValueErrorKindNtNtCs2CqrNpCrSUr_4core3fmt7Display3fmt
FN:2284,_RNvXsv_NtNtCs6qhVEmoZJ2z_10async_nats9jetstream7contextNtB5_20ObjectStoreErrorKindNtNtCs2CqrNpCrSUr_4core3fmt7Display3fmt
FN:2306,_RNvXsw_NtNtCs6qhVEmoZJ2z_10async_nats9jetstream7contextNtB5_16AccountErrorKindNtNtCs2CqrNpCrSUr_4core3fmt7Display3fmt
FN:189,_RINvMs2_NtNtCs6qhVEmoZJ2z_10async_nats9jetstream7contextINtB6_14ContextBuilderNtB6_3YesE10api_prefixNtNtCs1AhsD0INetT_5alloc6string6StringEBa_
FN:354,_RINvMs4_NtNtCs6qhVEmoZJ2z_10async_nats9jetstream7contextNtB6_7Context11with_prefixReEBa_
FN:470,_RINvMs4_NtNtCs6qhVEmoZJ2z_10async_nats9jetstream7contextNtB6_7Context12send_publishNtNtBa_7subject7SubjectEBa_
FN:1366,_RINvMs4_NtNtCs6qhVEmoZJ2z_10async_nats9jetstream7contextNtB6_7Context25create_consumer_on_streamNtNtNtB8_8consumer4pull13OrderedConfigReEBa_
FN:1366,_RINvMs4_NtNtCs6qhVEmoZJ2z_10async_nats9jetstream7contextNtB6_7Context25create_consumer_on_streamNtNtNtB8_8consumer4push13OrderedConfigNtNtCs1AhsD0INetT_5alloc6string6StringEBa_
FN:1317,_RINvMs4_NtNtCs6qhVEmoZJ2z_10async_nats9jetstream7contextNtB6_7Context27delete_consumer_from_streamReB1y_EBa_
FN:1452,_RINvMs4_NtNtCs6qhVEmoZJ2z_10async_nats9jetstream7contextNtB6_7Context32create_consumer_on_stream_actionNtNtNtB8_8consumer4pull13OrderedConfigReEBa_
FN:1452,_RINvMs4_NtNtCs6qhVEmoZJ2z_10async_nats9jetstream7contextNtB6_7Context32create_consumer_on_stream_actionNtNtNtB8_8consumer4push13OrderedConfigNtNtCs1AhsD0INetT_5alloc6string6StringEBa_
FN:1513,_RINvMs4_NtNtCs6qhVEmoZJ2z_10async_nats9jetstream7contextNtB6_7Context7requestNtNtCs1AhsD0INetT_5alloc6string6StringNtNtB8_6stream17StreamInfoRequestINtNtB8_8response8ResponseNtB1R_4InfoEEBa_
FN:1513,_RINvMs4_NtNtCs6qhVEmoZJ2z_10async_nats9jetstream7contextNtB6_7Context7requestNtNtCs1AhsD0INetT_5alloc6string6StringNtNtCs3hMvov8GLbn_10serde_json5value5ValueINtNtB8_8response8ResponseNtNtB8_6stream12ConsumerPageEEBa_
FN:1513,_RINvMs4_NtNtCs6qhVEmoZJ2z_10async_nats9jetstream7contextNtB6_7Context7requestNtNtCs1AhsD0INetT_5alloc6string6StringNtNtCs3hMvov8GLbn_10serde_json5value5ValueINtNtB8_8response8ResponseNtNtB8_6stream12DeleteStatusEEBa_
FN:1513,_RINvMs4_NtNtCs6qhVEmoZJ2z_10async_nats9jetstream7contextNtB6_7Context7requestNtNtCs1AhsD0INetT_5alloc6string6StringNtNtCs3hMvov8GLbn_10serde_json5value5ValueINtNtB8_8response8ResponseNtNtB8_6stream16ConsumerInfoPageEEBa_
FN:1513,_RINvMs4_NtNtCs6qhVEmoZJ2z_10async_nats9jetstream7contextNtB6_7Context7requestNtNtCs1AhsD0INetT_5alloc6string6StringNtNtCs3hMvov8GLbn_10serde_json5value5ValueINtNtB8_8response8ResponseNtNtB8_8consumer4InfoEEBa_
FN:1513,_RINvMs4_NtNtCs6qhVEmoZJ2z_10async_nats9jetstream7contextNtB6_7Context7requestReNtNtCs3hMvov8GLbn_10serde_json5value5ValueINtNtB8_8response8ResponseNtB6_10StreamPageEEBa_
FN:1513,_RINvMs4_NtNtCs6qhVEmoZJ2z_10async_nats9jetstream7contextNtB6_7Context7requestReNtNtCs3hMvov8GLbn_10serde_json5value5ValueINtNtB8_8response8ResponseNtB6_14StreamInfoPageEEBa_
FN:1370,_RNCINvMs4_NtNtCs6qhVEmoZJ2z_10async_nats9jetstream7contextNtB8_7Context25create_consumer_on_streamNtNtNtBa_8consumer4pull13OrderedConfigReE0Bc_
FN:1370,_RNCINvMs4_NtNtCs6qhVEmoZJ2z_10async_nats9jetstream7contextNtB8_7Context25create_consumer_on_streamNtNtNtBa_8consumer4push13OrderedConfigNtNtCs1AhsD0INetT_5alloc6string6StringE0Bc_
FN:1321,_RNCINvMs4_NtNtCs6qhVEmoZJ2z_10async_nats9jetstream7contextNtB8_7Context27delete_consumer_from_streamReB1A_E0Bc_
FN:1460,_RNCINvMs4_NtNtCs6qhVEmoZJ2z_10async_nats9jetstream7contextNtB8_7Context32create_consumer_on_stream_actionNtNtNtBa_8consumer4pull13OrderedConfigReE0Bc_
FN:1460,_RNCINvMs4_NtNtCs6qhVEmoZJ2z_10async_nats9jetstream7contextNtB8_7Context32create_consumer_on_stream_actionNtNtNtBa_8consumer4push13OrderedConfigNtNtCs1AhsD0INetT_5alloc6string6StringE0Bc_
FN:1518,_RNCINvMs4_NtNtCs6qhVEmoZJ2z_10async_nats9jetstream7contextNtB8_7Context7requestNtNtCs1AhsD0INetT_5alloc6string6StringNtNtBa_6stream17StreamInfoRequestINtNtBa_8response8ResponseNtB1T_4InfoEE0Bc_
FN:1518,_RNCINvMs4_NtNtCs6qhVEmoZJ2z_10async_nats9jetstream7contextNtB8_7Context7requestNtNtCs1AhsD0INetT_5alloc6string6StringNtNtCs3hMvov8GLbn_10serde_json5value5ValueINtNtBa_8response8ResponseNtNtBa_6stream12ConsumerPageEE0Bc_
FN:1518,_RNCINvMs4_NtNtCs6qhVEmoZJ2z_10async_nats9jetstream7contextNtB8_7Context7requestNtNtCs1AhsD0INetT_5alloc6string6StringNtNtCs3hMvov8GLbn_10serde_json5value5ValueINtNtBa_8response8ResponseNtNtBa_6stream12DeleteStatusEE0Bc_
FN:1518,_RNCINvMs4_NtNtCs6qhVEmoZJ2z_10async_nats9jetstream7contextNtB8_7Context7requestNtNtCs1AhsD0INetT_5alloc6string6StringNtNtCs3hMvov8GLbn_10serde_json5value5ValueINtNtBa_8response8ResponseNtNtBa_6stream16ConsumerInfoPageEE0Bc_
FN:1518,_RNCINvMs4_NtNtCs6qhVEmoZJ2z_10async_nats9jetstream7contextNtB8_7Context7requestNtNtCs1AhsD0INetT_5alloc6string6StringNtNtCs3hMvov8GLbn_10serde_json5value5ValueINtNtBa_8response8ResponseNtNtBa_8consumer4InfoEE0Bc_
FN:1518,_RNCINvMs4_NtNtCs6qhVEmoZJ2z_10async_nats9jetstream7contextNtB8_7Context7requestReNtNtCs3hMvov8GLbn_10serde_json5value5ValueINtNtBa_8response8ResponseNtB8_10StreamPageEE0Bc_
FN:1518,_RNCINvMs4_NtNtCs6qhVEmoZJ2z_10async_nats9jetstream7contextNtB8_7Context7requestReNtNtCs3hMvov8GLbn_10serde_json5value5ValueINtNtBa_8response8ResponseNtB8_14StreamInfoPageEE0Bc_
FN:1473,_RNCNCINvMs4_NtNtCs6qhVEmoZJ2z_10async_nats9jetstream7contextNtBa_7Context32create_consumer_on_stream_actionNtNtNtBc_8consumer4pull13OrderedConfigReE00Be_
FN:1487,_RNCNCINvMs4_NtNtCs6qhVEmoZJ2z_10async_nats9jetstream7contextNtBa_7Context32create_consumer_on_stream_actionNtNtNtBc_8consumer4pull13OrderedConfigReE0s0_0Be_
FN:1474,_RNCNCINvMs4_NtNtCs6qhVEmoZJ2z_10async_nats9jetstream7contextNtBa_7Context32create_consumer_on_stream_actionNtNtNtBc_8consumer4pull13OrderedConfigReE0s_0Be_
FN:1473,_RNCNCINvMs4_NtNtCs6qhVEmoZJ2z_10async_nats9jetstream7contextNtBa_7Context32create_consumer_on_stream_actionNtNtNtBc_8consumer4push13OrderedConfigNtNtCs1AhsD0INetT_5alloc6string6StringE00Be_
FN:1487,_RNCNCINvMs4_NtNtCs6qhVEmoZJ2z_10async_nats9jetstream7contextNtBa_7Context32create_consumer_on_stream_actionNtNtNtBc_8consumer4push13OrderedConfigNtNtCs1AhsD0INetT_5alloc6string6StringE0s0_0Be_
FN:1474,_RNCNCINvMs4_NtNtCs6qhVEmoZJ2z_10async_nats9jetstream7contextNtBa_7Context32create_consumer_on_stream_actionNtNtNtBc_8consumer4push13OrderedConfigNtNtCs1AhsD0INetT_5alloc6string6StringE0s_0Be_
FN:1522,_RNCNCINvMs4_NtNtCs6qhVEmoZJ2z_10async_nats9jetstream7contextNtBa_7Context7requestNtNtCs1AhsD0INetT_5alloc6string6StringNtNtBc_6stream17StreamInfoRequestINtNtBc_8response8ResponseNtB1V_4InfoEE00Be_
FN:1536,_RNCNCINvMs4_NtNtCs6qhVEmoZJ2z_10async_nats9jetstream7contextNtBa_7Context7requestNtNtCs1AhsD0INetT_5alloc6string6StringNtNtBc_6stream17StreamInfoRequestINtNtBc_8response8ResponseNtB1V_4InfoEE0s_0Be_
FN:1522,_RNCNCINvMs4_NtNtCs6qhVEmoZJ2z_10async_nats9jetstream7contextNtBa_7Context7requestNtNtCs1AhsD0INetT_5alloc6string6StringNtNtCs3hMvov8GLbn_10serde_json5value5ValueINtNtBc_8response8ResponseNtNtBc_6stream12ConsumerPageEE00Be_
FN:1536,_RNCNCINvMs4_NtNtCs6qhVEmoZJ2z_10async_nats9jetstream7contextNtBa_7Context7requestNtNtCs1AhsD0INetT_5alloc6string6StringNtNtCs3hMvov8GLbn_10serde_json5value5ValueINtNtBc_8response8ResponseNtNtBc_6stream12ConsumerPageEE0s_0Be_
FN:1522,_RNCNCINvMs4_NtNtCs6qhVEmoZJ2z_10async_nats9jetstream7contextNtBa_7Context7requestNtNtCs1AhsD0INetT_5alloc6string6StringNtNtCs3hMvov8GLbn_10serde_json5value5ValueINtNtBc_8response8ResponseNtNtBc_6stream12DeleteStatusEE00Be_
FN:1536,_RNCNCINvMs4_NtNtCs6qhVEmoZJ2z_10async_nats9jetstream7contextNtBa_7Context7requestNtNtCs1AhsD0INetT_5alloc6string6StringNtNtCs3hMvov8GLbn_10serde_json5value5ValueINtNtBc_8response8ResponseNtNtBc_6stream12DeleteStatusEE0s_0Be_
FN:1522,_RNCNCINvMs4_NtNtCs6qhVEmoZJ2z_10async_nats9jetstream7contextNtBa_7Context7requestNtNtCs1AhsD0INetT_5alloc6string6StringNtNtCs3hMvov8GLbn_10serde_json5value5ValueINtNtBc_8response8ResponseNtNtBc_6stream16ConsumerInfoPageEE00Be_
FN:1536,_RNCNCINvMs4_NtNtCs6qhVEmoZJ2z_10async_nats9jetstream7contextNtBa_7Context7requestNtNtCs1AhsD0INetT_5alloc6string6StringNtNtCs3hMvov8GLbn_10serde_json5value5ValueINtNtBc_8response8ResponseNtNtBc_6stream16ConsumerInfoPageEE0s_0Be_
FN:1522,_RNCNCINvMs4_NtNtCs6qhVEmoZJ2z_10async_nats9jetstream7contextNtBa_7Context7requestNtNtCs1AhsD0INetT_5alloc6string6StringNtNtCs3hMvov8GLbn_10serde_json5value5ValueINtNtBc_8response8ResponseNtNtBc_8consumer4InfoEE00Be_
FN:1536,_RNCNCINvMs4_NtNtCs6qhVEmoZJ2z_10async_nats9jetstream7contextNtBa_7Context7requestNtNtCs1AhsD0INetT_5alloc6string6StringNtNtCs3hMvov8GLbn_10serde_json5value5ValueINtNtBc_8response8ResponseNtNtBc_8consumer4InfoEE0s_0Be_
FN:1522,_RNCNCINvMs4_NtNtCs6qhVEmoZJ2z_10async_nats9jetstream7contextNtBa_7Context7requestReNtNtCs3hMvov8GLbn_10serde_json5value5ValueINtNtBc_8response8ResponseNtBa_10StreamPageEE00Be_
FN:1536,_RNCNCINvMs4_NtNtCs6qhVEmoZJ2z_10async_nats9jetstream7contextNtBa_7Context7requestReNtNtCs3hMvov8GLbn_10serde_json5value5ValueINtNtBc_8response8ResponseNtBa_10StreamPageEE0s_0Be_
FN:1522,_RNCNCINvMs4_NtNtCs6qhVEmoZJ2z_10async_nats9jetstream7contextNtBa_7Context7requestReNtNtCs3hMvov8GLbn_10serde_json5value5ValueINtNtBc_8response8ResponseNtBa_14StreamInfoPageEE00Be_
FN:1536,_RNCNCINvMs4_NtNtCs6qhVEmoZJ2z_10async_nats9jetstream7contextNtBa_7Context7requestReNtNtCs3hMvov8GLbn_10serde_json5value5ValueINtNtBc_8response8ResponseNtBa_14StreamInfoPageEE0s_0Be_
FN:1801,_RNCNCNCNvMsd_NtNtCs6qhVEmoZJ2z_10async_nats9jetstream7contextNtBb_16PublishAckFuture17next_with_timeout0s0_00Bf_
FN:117,_RNCNCNCNvNtNtCs6qhVEmoZJ2z_10async_nats9jetstream7context11spawn_acker000Bb_
FN:1793,_RNCNCNvMsd_NtNtCs6qhVEmoZJ2z_10async_nats9jetstream7contextNtB9_16PublishAckFuture17next_with_timeout00Bd_
FN:1796,_RNCNCNvMsd_NtNtCs6qhVEmoZJ2z_10async_nats9jetstream7contextNtB9_16PublishAckFuture17next_with_timeout0s0_0Bd_
FN:1795,_RNCNCNvMsd_NtNtCs6qhVEmoZJ2z_10async_nats9jetstream7contextNtB9_16PublishAckFuture17next_with_timeout0s_0Bd_
FN:120,_RNCNCNvNtNtCs6qhVEmoZJ2z_10async_nats9jetstream7context11spawn_acker00B9_
FN:1790,_RNCNvMsd_NtNtCs6qhVEmoZJ2z_10async_nats9jetstream7contextNtB7_16PublishAckFuture17next_with_timeout0Bb_
FN:116,_RNCNvNtNtCs6qhVEmoZJ2z_10async_nats9jetstream7context11spawn_acker0B7_
FN:1867,_RNCNvXsf_NtNtCs6qhVEmoZJ2z_10async_nats9jetstream7contextNtB7_11StreamNamesNtNtCscxja3U2MsTJ_12futures_core6stream6Stream9poll_next0Bb_
FN:1894,_RNCNvXsf_NtNtCs6qhVEmoZJ2z_10async_nats9jetstream7contextNtB7_11StreamNamesNtNtCscxja3U2MsTJ_12futures_core6stream6Stream9poll_nexts_0Bb_
FN:1943,_RNCNvXsg_NtNtCs6qhVEmoZJ2z_10async_nats9jetstream7contextNtB7_7StreamsNtNtCscxja3U2MsTJ_12futures_core6stream6Stream9poll_next0Bb_
FN:1969,_RNCNvXsg_NtNtCs6qhVEmoZJ2z_10async_nats9jetstream7contextNtB7_7StreamsNtNtCscxja3U2MsTJ_12futures_core6stream6Stream9poll_nexts_0Bb_
FN:307,_RNvMs3_NtNtCs6qhVEmoZJ2z_10async_nats9jetstream7contextINtB5_14ContextBuilderNtB5_2NoE5buildB9_
FN:307,_RNvMs3_NtNtCs6qhVEmoZJ2z_10async_nats9jetstream7contextINtB5_14ContextBuilderNtB5_3YesE5buildB9_
FN:1780,_RNvXsc_NtNtCs6qhVEmoZJ2z_10async_nats9jetstream7contextNtB5_16PublishAckFutureNtNtNtCs2CqrNpCrSUr_4core3ops4drop4Drop4drop
FN:671,_RINvMs4_NtNtCs6qhVEmoZJ2z_10async_nats9jetstream7contextNtB6_7Context10get_streamReECsbhX8fe0itkR_15jetstream_tests
FN:470,_RINvMs4_NtNtCs6qhVEmoZJ2z_10async_nats9jetstream7contextNtB6_7Context12send_publishNtNtCs1AhsD0INetT_5alloc6string6StringECsbhX8fe0itkR_15jetstream_tests
FN:470,_RINvMs4_NtNtCs6qhVEmoZJ2z_10async_nats9jetstream7contextNtB6_7Context12send_publishReECsbhX8fe0itkR_15jetstream_tests
FN:557,_RINvMs4_NtNtCs6qhVEmoZJ2z_10async_nats9jetstream7contextNtB6_7Context13create_streamNtNtB8_6stream6ConfigECsbhX8fe0itkR_15jetstream_tests
FN:557,_RINvMs4_NtNtCs6qhVEmoZJ2z_10async_nats9jetstream7contextNtB6_7Context13create_streamRNtNtB8_6stream6ConfigECsbhX8fe0itkR_15jetstream_tests
FN:557,_RINvMs4_NtNtCs6qhVEmoZJ2z_10async_nats9jetstream7contextNtB6_7Context13create_streamReECsbhX8fe0itkR_15jetstream_tests
FN:770,_RINvMs4_NtNtCs6qhVEmoZJ2z_10async_nats9jetstream7contextNtB6_7Context13delete_streamReECsbhX8fe0itkR_15jetstream_tests
FN:822,_RINvMs4_NtNtCs6qhVEmoZJ2z_10async_nats9jetstream7contextNtB6_7Context13update_streamNtNtB8_6stream6ConfigECsbhX8fe0itkR_15jetstream_tests
FN:822,_RINvMs4_NtNtCs6qhVEmoZJ2z_10async_nats9jetstream7contextNtB6_7Context13update_streamRNtNtB8_6stream6ConfigECsbhX8fe0itkR_15jetstream_tests
FN:900,_RINvMs4_NtNtCs6qhVEmoZJ2z_10async_nats9jetstream7contextNtB6_7Context17stream_by_subjectReECsbhX8fe0itkR_15jetstream_tests
FN:636,_RINvMs4_NtNtCs6qhVEmoZJ2z_10async_nats9jetstream7contextNtB6_7Context18get_stream_no_infoReECsbhX8fe0itkR_15jetstream_tests
FN:721,_RINvMs4_NtNtCs6qhVEmoZJ2z_10async_nats9jetstream7contextNtB6_7Context20get_or_create_streamNtNtB8_6stream6ConfigECsbhX8fe0itkR_15jetstream_tests
FN:721,_RINvMs4_NtNtCs6qhVEmoZJ2z_10async_nats9jetstream7contextNtB6_7Context20get_or_create_streamRNtNtB8_6stream6ConfigECsbhX8fe0itkR_15jetstream_tests
FN:721,_RINvMs4_NtNtCs6qhVEmoZJ2z_10async_nats9jetstream7contextNtB6_7Context20get_or_create_streamReECsbhX8fe0itkR_15jetstream_tests
FN:435,_RINvMs4_NtNtCs6qhVEmoZJ2z_10async_nats9jetstream7contextNtB6_7Context20publish_with_headersReECsbhX8fe0itkR_15jetstream_tests
FN:1258,_RINvMs4_NtNtCs6qhVEmoZJ2z_10async_nats9jetstream7contextNtB6_7Context24get_consumer_from_streamNtNtNtB8_8consumer4pull6ConfigReB1Z_ECsbhX8fe0itkR_15jetstream_tests
FN:1366,_RINvMs4_NtNtCs6qhVEmoZJ2z_10async_nats9jetstream7contextNtB6_7Context25create_consumer_on_streamNtNtB8_8consumer6ConfigNtNtCs1AhsD0INetT_5alloc6string6StringECsbhX8fe0itkR_15jetstream_tests
FN:1366,_RINvMs4_NtNtCs6qhVEmoZJ2z_10async_nats9jetstream7contextNtB6_7Context25create_consumer_on_streamNtNtNtB8_8consumer4pull13OrderedConfigNtNtCs1AhsD0INetT_5alloc6string6StringECsbhX8fe0itkR_15jetstream_tests
FN:1366,_RINvMs4_NtNtCs6qhVEmoZJ2z_10async_nats9jetstream7contextNtB6_7Context25create_consumer_on_streamNtNtNtB8_8consumer4pull6ConfigNtNtCs1AhsD0INetT_5alloc6string6StringECsbhX8fe0itkR_15jetstream_tests
FN:1366,_RINvMs4_NtNtCs6qhVEmoZJ2z_10async_nats9jetstream7contextNtB6_7Context25create_consumer_on_streamNtNtNtB8_8consumer4pull6ConfigReECsbhX8fe0itkR_15jetstream_tests
FN:1366,_RINvMs4_NtNtCs6qhVEmoZJ2z_10async_nats9jetstream7contextNtB6_7Context25create_consumer_on_streamNtNtNtB8_8consumer4push6ConfigNtNtCs1AhsD0INetT_5alloc6string6StringECsbhX8fe0itkR_15jetstream_tests
FN:1366,_RINvMs4_NtNtCs6qhVEmoZJ2z_10async_nats9jetstream7contextNtB6_7Context25create_consumer_on_streamNtNtNtB8_8consumer4push6ConfigReECsbhX8fe0itkR_15jetstream_tests
FN:1402,_RINvMs4_NtNtCs6qhVEmoZJ2z_10async_nats9jetstream7contextNtB6_7Context25update_consumer_on_streamNtNtB8_8consumer6ConfigNtNtCs1AhsD0INetT_5alloc6string6StringECsbhX8fe0itkR_15jetstream_tests
FN:1402,_RINvMs4_NtNtCs6qhVEmoZJ2z_10async_nats9jetstream7contextNtB6_7Context25update_consumer_on_streamNtNtNtB8_8consumer4pull6ConfigNtNtCs1AhsD0INetT_5alloc6string6StringECsbhX8fe0itkR_15jetstream_tests
FN:1452,_RINvMs4_NtNtCs6qhVEmoZJ2z_10async_nats9jetstream7contextNtB6_7Context32create_consumer_on_stream_actionNtNtB8_8consumer6ConfigNtNtCs1AhsD0INetT_5alloc6string6StringECsbhX8fe0itkR_15jetstream_tests
FN:1452,_RINvMs4_NtNtCs6qhVEmoZJ2z_10async_nats9jetstream7contextNtB6_7Context32create_consumer_on_stream_actionNtNtNtB8_8consumer4pull13OrderedConfigNtNtCs1AhsD0INetT_5alloc6string6StringECsbhX8fe0itkR_15jetstream_tests
FN:1452,_RINvMs4_NtNtCs6qhVEmoZJ2z_10async_nats9jetstream7contextNtB6_7Context32create_consumer_on_stream_actionNtNtNtB8_8consumer4pull6ConfigNtNtCs1AhsD0INetT_5alloc6string6StringECsbhX8fe0itkR_15jetstream_tests
FN:1452,_RINvMs4_NtNtCs6qhVEmoZJ2z_10async_nats9jetstream7contextNtB6_7Context32create_consumer_on_stream_actionNtNtNtB8_8consumer4pull6ConfigReECsbhX8fe0itkR_15jetstream_tests
FN:1452,_RINvMs4_NtNtCs6qhVEmoZJ2z_10async_nats9jetstream7contextNtB6_7Context32create_consumer_on_stream_actionNtNtNtB8_8consumer4push6ConfigNtNtCs1AhsD0INetT_5alloc6string6StringECsbhX8fe0itkR_15jetstream_tests
FN:1452,_RINvMs4_NtNtCs6qhVEmoZJ2z_10async_nats9jetstream7contextNtB6_7Context32create_consumer_on_stream_actionNtNtNtB8_8consumer4push6ConfigReECsbhX8fe0itkR_15jetstream_tests
FN:1439,_RINvMs4_NtNtCs6qhVEmoZJ2z_10async_nats9jetstream7contextNtB6_7Context32create_consumer_strict_on_streamNtNtNtB8_8consumer4pull6ConfigNtNtCs1AhsD0INetT_5alloc6string6StringECsbhX8fe0itkR_15jetstream_tests
FN:405,_RINvMs4_NtNtCs6qhVEmoZJ2z_10async_nats9jetstream7contextNtB6_7Context7publishNtNtCs1AhsD0INetT_5alloc6string6StringECsbhX8fe0itkR_15jetstream_tests
FN:405,_RINvMs4_NtNtCs6qhVEmoZJ2z_10async_nats9jetstream7contextNtB6_7Context7publishReECsbhX8fe0itkR_15jetstream_tests
FN:1513,_RINvMs4_NtNtCs6qhVEmoZJ2z_10async_nats9jetstream7contextNtB6_7Context7requestNtNtCs1AhsD0INetT_5alloc6string6StringNtNtB8_6stream12PurgeRequestINtNtB8_8response8ResponseNtB1R_13PurgeResponseEECsbhX8fe0itkR_15jetstream_tests
FN:1513,_RINvMs4_NtNtCs6qhVEmoZJ2z_10async_nats9jetstream7contextNtB6_7Context7requestNtNtCs1AhsD0INetT_5alloc6string6StringNtNtB8_6stream17RawMessageRequestINtNtB8_8response8ResponseNtB1R_13GetRawMessageEECsbhX8fe0itkR_15jetstream_tests
FN:1513,_RINvMs4_NtNtCs6qhVEmoZJ2z_10async_nats9jetstream7contextNtB6_7Context7requestNtNtCs1AhsD0INetT_5alloc6string6StringNtNtB8_6stream26PauseResumeConsumerRequestINtNtB8_8response8ResponseNtB1R_13PauseResponseEECsbhX8fe0itkR_15jetstream_tests
FN:1513,_RINvMs4_NtNtCs6qhVEmoZJ2z_10async_nats9jetstream7contextNtB6_7Context7requestNtNtCs1AhsD0INetT_5alloc6string6StringNtNtB8_6stream6ConfigINtNtB8_8response8ResponseNtB1R_4InfoEECsbhX8fe0itkR_15jetstream_tests
FN:1513,_RINvMs4_NtNtCs6qhVEmoZJ2z_10async_nats9jetstream7contextNtB6_7Context7requestNtNtCs1AhsD0INetT_5alloc6string6StringNtNtCs3hMvov8GLbn_10serde_json5value5ValueINtNtB8_8response8ResponseNtNtB8_6stream4InfoEECsbhX8fe0itkR_15jetstream_tests
FN:1513,_RINvMs4_NtNtCs6qhVEmoZJ2z_10async_nats9jetstream7contextNtB6_7Context7requestNtNtCs1AhsD0INetT_5alloc6string6StringuINtNtB8_8response8ResponseNtNtB8_6stream4InfoEECsbhX8fe0itkR_15jetstream_tests
FN:1513,_RINvMs4_NtNtCs6qhVEmoZJ2z_10async_nats9jetstream7contextNtB6_7Context7requestReAhj0_INtNtB8_8response8ResponseNtNtB8_7account7AccountEECsbhX8fe0itkR_15jetstream_tests
FN:1513,_RINvMs4_NtNtCs6qhVEmoZJ2z_10async_nats9jetstream7contextNtB6_7Context7requestReuINtNtB8_8response8ResponseNtCsbhX8fe0itkR_15jetstream_tests11AccountInfoEEB1I_
FN:671,_RNCINvMs4_NtNtCs6qhVEmoZJ2z_10async_nats9jetstream7contextNtB8_7Context10get_streamReE0CsbhX8fe0itkR_15jetstream_tests
FN:474,_RNCINvMs4_NtNtCs6qhVEmoZJ2z_10async_nats9jetstream7contextNtB8_7Context12send_publishNtNtCs1AhsD0INetT_5alloc6string6StringE0CsbhX8fe0itkR_15jetstream_tests
FN:474,_RNCINvMs4_NtNtCs6qhVEmoZJ2z_10async_nats9jetstream7contextNtB8_7Context12send_publishReE0CsbhX8fe0itkR_15jetstream_tests
FN:563,_RNCINvMs4_NtNtCs6qhVEmoZJ2z_10async_nats9jetstream7contextNtB8_7Context13create_streamNtNtBa_6stream6ConfigE0CsbhX8fe0itkR_15jetstream_tests
FN:563,_RNCINvMs4_NtNtCs6qhVEmoZJ2z_10async_nats9jetstream7contextNtB8_7Context13create_streamRNtNtBa_6stream6ConfigE0CsbhX8fe0itkR_15jetstream_tests
FN:563,_RNCINvMs4_NtNtCs6qhVEmoZJ2z_10async_nats9jetstream7contextNtB8_7Context13create_streamReE0CsbhX8fe0itkR_15jetstream_tests
FN:773,_RNCINvMs4_NtNtCs6qhVEmoZJ2z_10async_nats9jetstream7contextNtB8_7Context13delete_streamReE0CsbhX8fe0itkR_15jetstream_tests
FN:825,_RNCINvMs4_NtNtCs6qhVEmoZJ2z_10async_nats9jetstream7contextNtB8_7Context13update_streamNtNtBa_6stream6ConfigE0CsbhX8fe0itkR_15jetstream_tests
FN:825,_RNCINvMs4_NtNtCs6qhVEmoZJ2z_10async_nats9jetstream7contextNtB8_7Context13update_streamRNtNtBa_6stream6ConfigE0CsbhX8fe0itkR_15jetstream_tests
FN:903,_RNCINvMs4_NtNtCs6qhVEmoZJ2z_10async_nats9jetstream7contextNtB8_7Context17stream_by_subjectReE0CsbhX8fe0itkR_15jetstream_tests
FN:639,_RNCINvMs4_NtNtCs6qhVEmoZJ2z_10async_nats9jetstream7contextNtB8_7Context18get_stream_no_infoReE0CsbhX8fe0itkR_15jetstream_tests
FN:727,_RNCINvMs4_NtNtCs6qhVEmoZJ2z_10async_nats9jetstream7contextNtB8_7Context20get_or_create_streamNtNtBa_6stream6ConfigE0CsbhX8fe0itkR_15jetstream_tests
FN:727,_RNCINvMs4_NtNtCs6qhVEmoZJ2z_10async_nats9jetstream7contextNtB8_7Context20get_or_create_streamRNtNtBa_6stream6ConfigE0CsbhX8fe0itkR_15jetstream_tests
FN:727,_RNCINvMs4_NtNtCs6qhVEmoZJ2z_10async_nats9jetstream7contextNtB8_7Context20get_or_create_streamReE0CsbhX8fe0itkR_15jetstream_tests
FN:440,_RNCINvMs4_NtNtCs6qhVEmoZJ2z_10async_nats9jetstream7contextNtB8_7Context20publish_with_headersReE0CsbhX8fe0itkR_15jetstream_tests
FN:1267,_RNCINvMs4_NtNtCs6qhVEmoZJ2z_10async_nats9jetstream7contextNtB8_7Context24get_consumer_from_streamNtNtNtBa_8consumer4pull6ConfigReB21_E0CsbhX8fe0itkR_15jetstream_tests
FN:1370,_RNCINvMs4_NtNtCs6qhVEmoZJ2z_10async_nats9jetstream7contextNtB8_7Context25create_consumer_on_streamNtNtBa_8consumer6ConfigNtNtCs1AhsD0INetT_5alloc6string6StringE0CsbhX8fe0itkR_15jetstream_tests
FN:1370,_RNCINvMs4_NtNtCs6qhVEmoZJ2z_10async_nats9jetstream7contextNtB8_7Context25create_consumer_on_streamNtNtNtBa_8consumer4pull13OrderedConfigNtNtCs1AhsD0INetT_5alloc6string6StringE0CsbhX8fe0itkR_15jetstream_tests
FN:1370,_RNCINvMs4_NtNtCs6qhVEmoZJ2z_10async_nats9jetstream7contextNtB8_7Context25create_consumer_on_streamNtNtNtBa_8consumer4pull6ConfigNtNtCs1AhsD0INetT_5alloc6string6StringE0CsbhX8fe0itkR_15jetstream_tests
FN:1370,_RNCINvMs4_NtNtCs6qhVEmoZJ2z_10async_nats9jetstream7contextNtB8_7Context25create_consumer_on_streamNtNtNtBa_8consumer4pull6ConfigReE0CsbhX8fe0itkR_15jetstream_tests
FN:1370,_RNCINvMs4_NtNtCs6qhVEmoZJ2z_10async_nats9jetstream7contextNtB8_7Context25create_consumer_on_streamNtNtNtBa_8consumer4push6ConfigNtNtCs1AhsD0INetT_5alloc6string6StringE0CsbhX8fe0itkR_15jetstream_tests
FN:1370,_RNCINvMs4_NtNtCs6qhVEmoZJ2z_10async_nats9jetstream7contextNtB8_7Context25create_consumer_on_streamNtNtNtBa_8consumer4push6ConfigReE0CsbhX8fe0itkR_15jetstream_tests
FN:1406,_RNCINvMs4_NtNtCs6qhVEmoZJ2z_10async_nats9jetstream7contextNtB8_7Context25update_consumer_on_streamNtNtBa_8consumer6ConfigNtNtCs1AhsD0INetT_5alloc6string6StringE0CsbhX8fe0itkR_15jetstream_tests
FN:1406,_RNCINvMs4_NtNtCs6qhVEmoZJ2z_10async_nats9jetstream7contextNtB8_7Context25update_consumer_on_streamNtNtNtBa_8consumer4pull6ConfigNtNtCs1AhsD0INetT_5alloc6string6StringE0CsbhX8fe0itkR_15jetstream_tests
FN:1460,_RNCINvMs4_NtNtCs6qhVEmoZJ2z_10async_nats9jetstream7contextNtB8_7Context32create_consumer_on_stream_actionNtNtBa_8consumer6ConfigNtNtCs1AhsD0INetT_5alloc6string6StringE0CsbhX8fe0itkR_15jetstream_tests
FN:1460,_RNCINvMs4_NtNtCs6qhVEmoZJ2z_10async_nats9jetstream7contextNtB8_7Context32create_consumer_on_stream_actionNtNtNtBa_8consumer4pull13OrderedConfigNtNtCs1AhsD0INetT_5alloc6string6StringE0CsbhX8fe0itkR_15jetstream_tests
FN:1460,_RNCINvMs4_NtNtCs6qhVEmoZJ2z_10async_nats9jetstream7contextNtB8_7Context32create_consumer_on_stream_actionNtNtNtBa_8consumer4pull6ConfigNtNtCs1AhsD0INetT_5alloc6string6StringE0CsbhX8fe0itkR_15jetstream_tests
FN:1460,_RNCINvMs4_NtNtCs6qhVEmoZJ2z_10async_nats9jetstream7contextNtB8_7Context32create_consumer_on_stream_actionNtNtNtBa_8consumer4pull6ConfigReE0CsbhX8fe0itkR_15jetstream_tests
FN:1460,_RNCINvMs4_NtNtCs6qhVEmoZJ2z_10async_nats9jetstream7contextNtB8_7Context32create_consumer_on_stream_actionNtNtNtBa_8consumer4push6ConfigNtNtCs1AhsD0INetT_5alloc6string6StringE0CsbhX8fe0itkR_15jetstream_tests
FN:1460,_RNCINvMs4_NtNtCs6qhVEmoZJ2z_10async_nats9jetstream7contextNtB8_7Context32create_consumer_on_stream_actionNtNtNtBa_8consumer4push6ConfigReE0CsbhX8fe0itkR_15jetstream_tests
FN:1446,_RNCINvMs4_NtNtCs6qhVEmoZJ2z_10async_nats9jetstream7contextNtB8_7Context32create_consumer_strict_on_streamNtNtNtBa_8consumer4pull6ConfigNtNtCs1AhsD0INetT_5alloc6string6StringE0CsbhX8fe0itkR_15jetstream_tests
FN:409,_RNCINvMs4_NtNtCs6qhVEmoZJ2z_10async_nats9jetstream7contextNtB8_7Context7publishNtNtCs1AhsD0INetT_5alloc6string6StringE0CsbhX8fe0itkR_15jetstream_tests
FN:409,_RNCINvMs4_NtNtCs6qhVEmoZJ2z_10async_nats9jetstream7contextNtB8_7Context7publishReE0CsbhX8fe0itkR_15jetstream_tests
FN:1518,_RNCINvMs4_NtNtCs6qhVEmoZJ2z_10async_nats9jetstream7contextNtB8_7Context7requestNtNtCs1AhsD0INetT_5alloc6string6StringNtNtBa_6stream12PurgeRequestINtNtBa_8response8ResponseNtB1T_13PurgeResponseEE0CsbhX8fe0itkR_15jetstream_tests
FN:1518,_RNCINvMs4_NtNtCs6qhVEmoZJ2z_10async_nats9jetstream7contextNtB8_7Context7requestNtNtCs1AhsD0INetT_5alloc6string6StringNtNtBa_6stream17RawMessageRequestINtNtBa_8response8ResponseNtB1T_13GetRawMessageEE0CsbhX8fe0itkR_15jetstream_tests
FN:1518,_RNCINvMs4_NtNtCs6qhVEmoZJ2z_10async_nats9jetstream7contextNtB8_7Context7requestNtNtCs1AhsD0INetT_5alloc6string6StringNtNtBa_6stream26PauseResumeConsumerRequestINtNtBa_8response8ResponseNtB1T_13PauseResponseEE0CsbhX8fe0itkR_15jetstream_tests
FN:1518,_RNCINvMs4_NtNtCs6qhVEmoZJ2z_10async_nats9jetstream7contextNtB8_7Context7requestNtNtCs1AhsD0INetT_5alloc6string6StringNtNtBa_6stream6ConfigINtNtBa_8response8ResponseNtB1T_4InfoEE0CsbhX8fe0itkR_15jetstream_tests
FN:1518,_RNCINvMs4_NtNtCs6qhVEmoZJ2z_10async_nats9jetstream7contextNtB8_7Context7requestNtNtCs1AhsD0INetT_5alloc6string6StringNtNtCs3hMvov8GLbn_10serde_json5value5ValueINtNtBa_8response8ResponseNtNtBa_6stream4InfoEE0CsbhX8fe0itkR_15jetstream_tests
FN:1518,_RNCINvMs4_NtNtCs6qhVEmoZJ2z_10async_nats9jetstream7contextNtB8_7Context7requestNtNtCs1AhsD0INetT_5alloc6string6StringuINtNtBa_8response8ResponseNtNtBa_6stream4InfoEE0CsbhX8fe0itkR_15jetstream_tests
FN:1518,_RNCINvMs4_NtNtCs6qhVEmoZJ2z_10async_nats9jetstream7contextNtB8_7Context7requestReAhj0_INtNtBa_8response8ResponseNtNtBa_7account7AccountEE0CsbhX8fe0itkR_15jetstream_tests
FN:1518,_RNCINvMs4_NtNtCs6qhVEmoZJ2z_10async_nats9jetstream7contextNtB8_7Context7requestReuINtNtBa_8response8ResponseNtCsbhX8fe0itkR_15jetstream_tests11AccountInfoEE0B1K_
FN:685,_RNCNCINvMs4_NtNtCs6qhVEmoZJ2z_10async_nats9jetstream7contextNtBa_7Context10get_streamReE00CsbhX8fe0itkR_15jetstream_tests
FN:481,_RNCNCINvMs4_NtNtCs6qhVEmoZJ2z_10async_nats9jetstream7contextNtBa_7Context12send_publishNtNtCs1AhsD0INetT_5alloc6string6StringE00CsbhX8fe0itkR_15jetstream_tests
FN:509,_RNCNCINvMs4_NtNtCs6qhVEmoZJ2z_10async_nats9jetstream7contextNtBa_7Context12send_publishNtNtCs1AhsD0INetT_5alloc6string6StringE0s0_0CsbhX8fe0itkR_15jetstream_tests
FN:512,_RNCNCINvMs4_NtNtCs6qhVEmoZJ2z_10async_nats9jetstream7contextNtBa_7Context12send_publishNtNtCs1AhsD0INetT_5alloc6string6StringE0s1_0CsbhX8fe0itkR_15jetstream_tests
FN:487,_RNCNCINvMs4_NtNtCs6qhVEmoZJ2z_10async_nats9jetstream7contextNtBa_7Context12send_publishNtNtCs1AhsD0INetT_5alloc6string6StringE0s_0CsbhX8fe0itkR_15jetstream_tests
FN:481,_RNCNCINvMs4_NtNtCs6qhVEmoZJ2z_10async_nats9jetstream7contextNtBa_7Context12send_publishReE00CsbhX8fe0itkR_15jetstream_tests
FN:509,_RNCNCINvMs4_NtNtCs6qhVEmoZJ2z_10async_nats9jetstream7contextNtBa_7Context12send_publishReE0s0_0CsbhX8fe0itkR_15jetstream_tests
FN:512,_RNCNCINvMs4_NtNtCs6qhVEmoZJ2z_10async_nats9jetstream7contextNtBa_7Context12send_publishReE0s1_0CsbhX8fe0itkR_15jetstream_tests
FN:487,_RNCNCINvMs4_NtNtCs6qhVEmoZJ2z_10async_nats9jetstream7contextNtBa_7Context12send_publishReE0s_0CsbhX8fe0itkR_15jetstream_tests
FN:789,_RNCNCINvMs4_NtNtCs6qhVEmoZJ2z_10async_nats9jetstream7contextNtBa_7Context13delete_streamReE00CsbhX8fe0itkR_15jetstream_tests
FN:1287,_RNCNCINvMs4_NtNtCs6qhVEmoZJ2z_10async_nats9jetstream7contextNtBa_7Context24get_consumer_from_streamNtNtNtBc_8consumer4pull6ConfigReB23_E00CsbhX8fe0itkR_15jetstream_tests
FN:1409,_RNCNCINvMs4_NtNtCs6qhVEmoZJ2z_10async_nats9jetstream7contextNtBa_7Context25update_consumer_on_streamNtNtBc_8consumer6ConfigNtNtCs1AhsD0INetT_5alloc6string6StringE00CsbhX8fe0itkR_15jetstream_tests
FN:1409,_RNCNCINvMs4_NtNtCs6qhVEmoZJ2z_10async_nats9jetstream7contextNtBa_7Context25update_consumer_on_streamNtNtNtBc_8consumer4pull6ConfigNtNtCs1AhsD0INetT_5alloc6string6StringE00CsbhX8fe0itkR_15jetstream_tests
FN:1473,_RNCNCINvMs4_NtNtCs6qhVEmoZJ2z_10async_nats9jetstream7contextNtBa_7Context32create_consumer_on_stream_actionNtNtBc_8consumer6ConfigNtNtCs1AhsD0INetT_5alloc6string6StringE00CsbhX8fe0itkR_15jetstream_tests
FN:1487,_RNCNCINvMs4_NtNtCs6qhVEmoZJ2z_10async_nats9jetstream7contextNtBa_7Context32create_consumer_on_stream_actionNtNtBc_8consumer6ConfigNtNtCs1AhsD0INetT_5alloc6string6StringE0s0_0CsbhX8fe0itkR_15jetstream_tests
FN:1474,_RNCNCINvMs4_NtNtCs6qhVEmoZJ2z_10async_nats9jetstream7contextNtBa_7Context32create_consumer_on_stream_actionNtNtBc_8consumer6ConfigNtNtCs1AhsD0INetT_5alloc6string6StringE0s_0CsbhX8fe0itkR_15jetstream_tests
FN:1473,_RNCNCINvMs4_NtNtCs6qhVEmoZJ2z_10async_nats9jetstream7contextNtBa_7Context32create_consumer_on_stream_actionNtNtNtBc_8consumer4pull13OrderedConfigNtNtCs1AhsD0INetT_5alloc6string6StringE00CsbhX8fe0itkR_15jetstream_tests
FN:1487,_RNCNCINvMs4_NtNtCs6qhVEmoZJ2z_10async_nats9jetstream7contextNtBa_7Context32create_consumer_on_stream_actionNtNtNtBc_8consumer4pull13OrderedConfigNtNtCs1AhsD0INetT_5alloc6string6StringE0s0_0CsbhX8fe0itkR_15jetstream_tests
FN:1474,_RNCNCINvMs4_NtNtCs6qhVEmoZJ2z_10async_nats9jetstream7contextNtBa_7Context32create_consumer_on_stream_actionNtNtNtBc_8consumer4pull13OrderedConfigNtNtCs1AhsD0INetT_5alloc6string6StringE0s_0CsbhX8fe0itkR_15jetstream_tests
FN:1473,_RNCNCINvMs4_NtNtCs6qhVEmoZJ2z_10async_nats9jetstream7contextNtBa_7Context32create_consumer_on_stream_actionNtNtNtBc_8consumer4pull6ConfigNtNtCs1AhsD0INetT_5alloc6string6StringE00CsbhX8fe0itkR_15jetstream_tests
FN:1487,_RNCNCINvMs4_NtNtCs6qhVEmoZJ2z_10async_nats9jetstream7contextNtBa_7Context32create_consumer_on_stream_actionNtNtNtBc_8consumer4pull6ConfigNtNtCs1AhsD0INetT_5alloc6string6StringE0s0_0CsbhX8fe0itkR_15jetstream_tests
FN:1474,_RNCNCINvMs4_NtNtCs6qhVEmoZJ2z_10async_nats9jetstream7contextNtBa_7Context32create_consumer_on_stream_actionNtNtNtBc_8consumer4pull6ConfigNtNtCs1AhsD0INetT_5alloc6string6StringE0s_0CsbhX8fe0itkR_15jetstream_tests
FN:1473,_RNCNCINvMs4_NtNtCs6qhVEmoZJ2z_10async_nats9jetstream7contextNtBa_7Context32create_consumer_on_stream_actionNtNtNtBc_8consumer4pull6ConfigReE00CsbhX8fe0itkR_15jetstream_tests
FN:1487,_RNCNCINvMs4_NtNtCs6qhVEmoZJ2z_10async_nats9jetstream7contextNtBa_7Context32create_consumer_on_stream_actionNtNtNtBc_8consumer4pull6ConfigReE0s0_0CsbhX8fe0itkR_15jetstream_tests
FN:1474,_RNCNCINvMs4_NtNtCs6qhVEmoZJ2z_10async_nats9jetstream7contextNtBa_7Context32create_consumer_on_stream_actionNtNtNtBc_8consumer4pull6ConfigReE0s_0CsbhX8fe0itkR_15jetstream_tests
FN:1473,_RNCNCINvMs4_NtNtCs6qhVEmoZJ2z_10async_nats9jetstream7contextNtBa_7Context32create_consumer_on_stream_actionNtNtNtBc_8consumer4push6ConfigNtNtCs1AhsD0INetT_5alloc6string6StringE00CsbhX8fe0itkR_15jetstream_tests
FN:1487,_RNCNCINvMs4_NtNtCs6qhVEmoZJ2z_10async_nats9jetstream7contextNtBa_7Context32create_consumer_on_stream_actionNtNtNtBc_8consumer4push6ConfigNtNtCs1AhsD0INetT_5alloc6string6StringE0s0_0CsbhX8fe0itkR_15jetstream_tests
FN:1474,_RNCNCINvMs4_NtNtCs6qhVEmoZJ2z_10async_nats9jetstream7contextNtBa_7Context32create_consumer_on_stream_actionNtNtNtBc_8consumer4push6ConfigNtNtCs1AhsD0INetT_5alloc6string6StringE0s_0CsbhX8fe0itkR_15jetstream_tests
FN:1473,_RNCNCINvMs4_NtNtCs6qhVEmoZJ2z_10async_nats9jetstream7contextNtBa_7Context32create_consumer_on_stream_actionNtNtNtBc_8consumer4push6ConfigReE00CsbhX8fe0itkR_15jetstream_tests
FN:1487,_RNCNCINvMs4_NtNtCs6qhVEmoZJ2z_10async_nats9jetstream7contextNtBa_7Context32create_consumer_on_stream_actionNtNtNtBc_8consumer4push6ConfigReE0s0_0CsbhX8fe0itkR_15jetstream_tests
FN:1474,_RNCNCINvMs4_NtNtCs6qhVEmoZJ2z_10async_nats9jetstream7contextNtBa_7Context32create_consumer_on_stream_actionNtNtNtBc_8consumer4push6ConfigReE0s_0CsbhX8fe0itkR_15jetstream_tests
FN:1449,_RNCNCINvMs4_NtNtCs6qhVEmoZJ2z_10async_nats9jetstream7contextNtBa_7Context32create_consumer_strict_on_streamNtNtNtBc_8consumer4pull6ConfigNtNtCs1AhsD0INetT_5alloc6string6StringE00CsbhX8fe0itkR_15jetstream_tests
FN:1522,_RNCNCINvMs4_NtNtCs6qhVEmoZJ2z_10async_nats9jetstream7contextNtBa_7Context7requestNtNtCs1AhsD0INetT_5alloc6string6StringNtNtBc_6stream12PurgeRequestINtNtBc_8response8ResponseNtB1V_13PurgeResponseEE00CsbhX8fe0itkR_15jetstream_tests
FN:1536,_RNCNCINvMs4_NtNtCs6qhVEmoZJ2z_10async_nats9jetstream7contextNtBa_7Context7requestNtNtCs1AhsD0INetT_5alloc6string6StringNtNtBc_6stream12PurgeRequestINtNtBc_8response8ResponseNtB1V_13PurgeResponseEE0s_0CsbhX8fe0itkR_15jetstream_tests
FN:1522,_RNCNCINvMs4_NtNtCs6qhVEmoZJ2z_10async_nats9jetstream7contextNtBa_7Context7requestNtNtCs1AhsD0INetT_5alloc6string6StringNtNtBc_6stream17RawMessageRequestINtNtBc_8response8ResponseNtB1V_13GetRawMessageEE00CsbhX8fe0itkR_15jetstream_tests
FN:1536,_RNCNCINvMs4_NtNtCs6qhVEmoZJ2z_10async_nats9jetstream7contextNtBa_7Context7requestNtNtCs1AhsD0INetT_5alloc6string6StringNtNtBc_6stream17RawMessageRequestINtNtBc_8response8ResponseNtB1V_13GetRawMessageEE0s_0CsbhX8fe0itkR_15jetstream_tests
FN:1522,_RNCNCINvMs4_NtNtCs6qhVEmoZJ2z_10async_nats9jetstream7contextNtBa_7Context7requestNtNtCs1AhsD0INetT_5alloc6string6StringNtNtBc_6stream26PauseResumeConsumerRequestINtNtBc_8response8ResponseNtB1V_13PauseResponseEE00CsbhX8fe0itkR_15jetstream_tests
FN:1536,_RNCNCINvMs4_NtNtCs6qhVEmoZJ2z_10async_nats9jetstream7contextNtBa_7Context7requestNtNtCs1AhsD0INetT_5alloc6string6StringNtNtBc_6stream26PauseResumeConsumerRequestINtNtBc_8response8ResponseNtB1V_13PauseResponseEE0s_0CsbhX8fe0itkR_15jetstream_tests
FN:1522,_RNCNCINvMs4_NtNtCs6qhVEmoZJ2z_10async_nats9jetstream7contextNtBa_7Context7requestNtNtCs1AhsD0INetT_5alloc6string6StringNtNtBc_6stream6ConfigINtNtBc_8response8ResponseNtB1V_4InfoEE00CsbhX8fe0itkR_15jetstream_tests
FN:1536,_RNCNCINvMs4_NtNtCs6qhVEmoZJ2z_10async_nats9jetstream7contextNtBa_7Context7requestNtNtCs1AhsD0INetT_5alloc6string6StringNtNtBc_6stream6ConfigINtNtBc_8response8ResponseNtB1V_4InfoEE0s_0CsbhX8fe0itkR_15jetstream_tests
FN:1522,_RNCNCINvMs4_NtNtCs6qhVEmoZJ2z_10async_nats9jetstream7contextNtBa_7Context7requestNtNtCs1AhsD0INetT_5alloc6string6StringNtNtCs3hMvov8GLbn_10serde_json5value5ValueINtNtBc_8response8ResponseNtNtBc_6stream4InfoEE00CsbhX8fe0itkR_15jetstream_tests
FN:1536,_RNCNCINvMs4_NtNtCs6qhVEmoZJ2z_10async_nats9jetstream7contextNtBa_7Context7requestNtNtCs1AhsD0INetT_5alloc6string6StringNtNtCs3hMvov8GLbn_10serde_json5value5ValueINtNtBc_8response8ResponseNtNtBc_6stream4InfoEE0s_0CsbhX8fe0itkR_15jetstream_tests
FN:1522,_RNCNCINvMs4_NtNtCs6qhVEmoZJ2z_10async_nats9jetstream7contextNtBa_7Context7requestNtNtCs1AhsD0INetT_5alloc6string6StringuINtNtBc_8response8ResponseNtNtBc_6stream4InfoEE00CsbhX8fe0itkR_15jetstream_tests
FN:1536,_RNCNCINvMs4_NtNtCs6qhVEmoZJ2z_10async_nats9jetstream7contextNtBa_7Context7requestNtNtCs1AhsD0INetT_5alloc6string6StringuINtNtBc_8response8ResponseNtNtBc_6stream4InfoEE0s_0CsbhX8fe0itkR_15jetstream_tests
FN:1522,_RNCNCINvMs4_NtNtCs6qhVEmoZJ2z_10async_nats9jetstream7contextNtBa_7Context7requestReAhj0_INtNtBc_8response8ResponseNtNtBc_7account7AccountEE00CsbhX8fe0itkR_15jetstream_tests
FN:1536,_RNCNCINvMs4_NtNtCs6qhVEmoZJ2z_10async_nats9jetstream7contextNtBa_7Context7requestReAhj0_INtNtBc_8response8ResponseNtNtBc_7account7AccountEE0s_0CsbhX8fe0itkR_15jetstream_tests
FN:1522,_RNCNCINvMs4_NtNtCs6qhVEmoZJ2z_10async_nats9jetstream7contextNtBa_7Context7requestReuINtNtBc_8response8ResponseNtCsbhX8fe0itkR_15jetstream_tests11AccountInfoEE00B1M_
FN:1536,_RNCNCINvMs4_NtNtCs6qhVEmoZJ2z_10async_nats9jetstream7contextNtBa_7Context7requestReuINtNtBc_8response8ResponseNtCsbhX8fe0itkR_15jetstream_tests11AccountInfoEE0s_0B1M_
FN:524,_RNCNvMs4_NtNtCs6qhVEmoZJ2z_10async_nats9jetstream7contextNtB7_7Context13query_account0CsbhX8fe0itkR_15jetstream_tests
FN:346,_RNCNvMs4_NtNtCs6qhVEmoZJ2z_10async_nats9jetstream7contextNtB7_7Context13wait_for_acks0CsbhX8fe0itkR_15jetstream_tests
FN:255,_RNvMs3_NtNtCs6qhVEmoZJ2z_10async_nats9jetstream7contextINtB5_14ContextBuilderNtB5_3YesE16max_ack_inflightCsbhX8fe0itkR_15jetstream_tests
FN:274,_RNvMs3_NtNtCs6qhVEmoZJ2z_10async_nats9jetstream7contextINtB5_14ContextBuilderNtB5_3YesE24backpressure_on_inflightCsbhX8fe0itkR_15jetstream_tests
FN:203,_RINvMs2_NtNtCs6qhVEmoZJ2z_10async_nats9jetstream7contextINtB6_14ContextBuilderNtB6_3YesE6domainReECs98b7hshCa6M_8kv_tests
FN:671,_RINvMs4_NtNtCs6qhVEmoZJ2z_10async_nats9jetstream7contextNtB6_7Context10get_streamNtNtCs1AhsD0INetT_5alloc6string6StringECs98b7hshCa6M_8kv_tests
FN:671,_RINvMs4_NtNtCs6qhVEmoZJ2z_10async_nats9jetstream7contextNtB6_7Context10get_streamReECs98b7hshCa6M_8kv_tests
FN:361,_RINvMs4_NtNtCs6qhVEmoZJ2z_10async_nats9jetstream7contextNtB6_7Context11with_domainReECs98b7hshCa6M_8kv_tests
FN:470,_RINvMs4_NtNtCs6qhVEmoZJ2z_10async_nats9jetstream7contextNtB6_7Context12send_publishNtNtCs1AhsD0INetT_5alloc6string6StringECs98b7hshCa6M_8kv_tests
FN:470,_RINvMs4_NtNtCs6qhVEmoZJ2z_10async_nats9jetstream7contextNtB6_7Context12send_publishReECs98b7hshCa6M_8kv_tests
FN:557,_RINvMs4_NtNtCs6qhVEmoZJ2z_10async_nats9jetstream7contextNtB6_7Context13create_streamNtNtB8_6stream6ConfigECs98b7hshCa6M_8kv_tests
FN:999,_RINvMs4_NtNtCs6qhVEmoZJ2z_10async_nats9jetstream7contextNtB6_7Context13get_key_valueReECs98b7hshCa6M_8kv_tests
FN:822,_RINvMs4_NtNtCs6qhVEmoZJ2z_10async_nats9jetstream7contextNtB6_7Context13update_streamNtNtB8_6stream6ConfigECs98b7hshCa6M_8kv_tests
FN:435,_RINvMs4_NtNtCs6qhVEmoZJ2z_10async_nats9jetstream7contextNtB6_7Context20publish_with_headersNtNtCs1AhsD0INetT_5alloc6string6StringECs98b7hshCa6M_8kv_tests
FN:405,_RINvMs4_NtNtCs6qhVEmoZJ2z_10async_nats9jetstream7contextNtB6_7Context7publishNtNtCs1AhsD0INetT_5alloc6string6StringECs98b7hshCa6M_8kv_tests
FN:405,_RINvMs4_NtNtCs6qhVEmoZJ2z_10async_nats9jetstream7contextNtB6_7Context7publishReECs98b7hshCa6M_8kv_tests
FN:1513,_RINvMs4_NtNtCs6qhVEmoZJ2z_10async_nats9jetstream7contextNtB6_7Context7requestNtNtCs1AhsD0INetT_5alloc6string6StringNtNtB8_6stream17RawMessageRequestINtNtB8_8response8ResponseNtB1R_13GetRawMessageEECs98b7hshCa6M_8kv_tests
FN:1513,_RINvMs4_NtNtCs6qhVEmoZJ2z_10async_nats9jetstream7contextNtB6_7Context7requestNtNtCs1AhsD0INetT_5alloc6string6StringNtNtB8_6stream6ConfigINtNtB8_8response8ResponseNtB1R_4InfoEECs98b7hshCa6M_8kv_tests
FN:1513,_RINvMs4_NtNtCs6qhVEmoZJ2z_10async_nats9jetstream7contextNtB6_7Context7requestNtNtCs1AhsD0INetT_5alloc6string6StringNtNtCs3hMvov8GLbn_10serde_json5value5ValueINtNtB8_8response8ResponseNtNtB8_6stream4InfoEECs98b7hshCa6M_8kv_tests
FN:1513,_RINvMs4_NtNtCs6qhVEmoZJ2z_10async_nats9jetstream7contextNtB6_7Context7requestNtNtCs1AhsD0INetT_5alloc6string6StringuINtNtB8_8response8ResponseNtNtB8_6stream4InfoEECs98b7hshCa6M_8kv_tests
FN:1513,_RINvMs4_NtNtCs6qhVEmoZJ2z_10async_nats9jetstream7contextNtB6_7Context7requestReAhj0_INtNtB8_8response8ResponseNtNtB8_7account7AccountEECs98b7hshCa6M_8kv_tests
FN:671,_RNCINvMs4_NtNtCs6qhVEmoZJ2z_10async_nats9jetstream7contextNtB8_7Context10get_streamNtNtCs1AhsD0INetT_5alloc6string6StringE0Cs98b7hshCa6M_8kv_tests
FN:671,_RNCINvMs4_NtNtCs6qhVEmoZJ2z_10async_nats9jetstream7contextNtB8_7Context10get_streamReE0Cs98b7hshCa6M_8kv_tests
FN:474,_RNCINvMs4_NtNtCs6qhVEmoZJ2z_10async_nats9jetstream7contextNtB8_7Context12send_publishNtNtCs1AhsD0INetT_5alloc6string6StringE0Cs98b7hshCa6M_8kv_tests
FN:474,_RNCINvMs4_NtNtCs6qhVEmoZJ2z_10async_nats9jetstream7contextNtB8_7Context12send_publishReE0Cs98b7hshCa6M_8kv_tests
FN:563,_RNCINvMs4_NtNtCs6qhVEmoZJ2z_10async_nats9jetstream7contextNtB8_7Context13create_streamNtNtBa_6stream6ConfigE0Cs98b7hshCa6M_8kv_tests
FN:999,_RNCINvMs4_NtNtCs6qhVEmoZJ2z_10async_nats9jetstream7contextNtB8_7Context13get_key_valueReE0Cs98b7hshCa6M_8kv_tests
FN:825,_RNCINvMs4_NtNtCs6qhVEmoZJ2z_10async_nats9jetstream7contextNtB8_7Context13update_streamNtNtBa_6stream6ConfigE0Cs98b7hshCa6M_8kv_tests
FN:440,_RNCINvMs4_NtNtCs6qhVEmoZJ2z_10async_nats9jetstream7contextNtB8_7Context20publish_with_headersNtNtCs1AhsD0INetT_5alloc6string6StringE0Cs98b7hshCa6M_8kv_tests
FN:409,_RNCINvMs4_NtNtCs6qhVEmoZJ2z_10async_nats9jetstream7contextNtB8_7Context7publishNtNtCs1AhsD0INetT_5alloc6string6StringE0Cs98b7hshCa6M_8kv_tests
FN:409,_RNCINvMs4_NtNtCs6qhVEmoZJ2z_10async_nats9jetstream7contextNtB8_7Context7publishReE0Cs98b7hshCa6M_8kv_tests
FN:1518,_RNCINvMs4_NtNtCs6qhVEmoZJ2z_10async_nats9jetstream7contextNtB8_7Context7requestNtNtCs1AhsD0INetT_5alloc6string6StringNtNtBa_6stream17RawMessageRequestINtNtBa_8response8ResponseNtB1T_13GetRawMessageEE0Cs98b7hshCa6M_8kv_tests
FN:1518,_RNCINvMs4_NtNtCs6qhVEmoZJ2z_10async_nats9jetstream7contextNtB8_7Context7requestNtNtCs1AhsD0INetT_5alloc6string6StringNtNtBa_6stream6ConfigINtNtBa_8response8ResponseNtB1T_4InfoEE0Cs98b7hshCa6M_8kv_tests
FN:1518,_RNCINvMs4_NtNtCs6qhVEmoZJ2z_10async_nats9jetstream7contextNtB8_7Context7requestNtNtCs1AhsD0INetT_5alloc6string6StringNtNtCs3hMvov8GLbn_10serde_json5value5ValueINtNtBa_8response8ResponseNtNtBa_6stream4InfoEE0Cs98b7hshCa6M_8kv_tests
FN:1518,_RNCINvMs4_NtNtCs6qhVEmoZJ2z_10async_nats9jetstream7contextNtB8_7Context7requestNtNtCs1AhsD0INetT_5alloc6string6StringuINtNtBa_8response8ResponseNtNtBa_6stream4InfoEE0Cs98b7hshCa6M_8kv_tests
FN:1518,_RNCINvMs4_NtNtCs6qhVEmoZJ2z_10async_nats9jetstream7contextNtB8_7Context7requestReAhj0_INtNtBa_8response8ResponseNtNtBa_7account7AccountEE0Cs98b7hshCa6M_8kv_tests
FN:685,_RNCNCINvMs4_NtNtCs6qhVEmoZJ2z_10async_nats9jetstream7contextNtBa_7Context10get_streamNtNtCs1AhsD0INetT_5alloc6string6StringE00Cs98b7hshCa6M_8kv_tests
FN:685,_RNCNCINvMs4_NtNtCs6qhVEmoZJ2z_10async_nats9jetstream7contextNtBa_7Context10get_streamReE00Cs98b7hshCa6M_8kv_tests
FN:481,_RNCNCINvMs4_NtNtCs6qhVEmoZJ2z_10async_nats9jetstream7contextNtBa_7Context12send_publishNtNtCs1AhsD0INetT_5alloc6string6StringE00Cs98b7hshCa6M_8kv_tests
FN:509,_RNCNCINvMs4_NtNtCs6qhVEmoZJ2z_10async_nats9jetstream7contextNtBa_7Context12send_publishNtNtCs1AhsD0INetT_5alloc6string6StringE0s0_0Cs98b7hshCa6M_8kv_tests
FN:512,_RNCNCINvMs4_NtNtCs6qhVEmoZJ2z_10async_nats9jetstream7contextNtBa_7Context12send_publishNtNtCs1AhsD0INetT_5alloc6string6StringE0s1_0Cs98b7hshCa6M_8kv_tests
FN:487,_RNCNCINvMs4_NtNtCs6qhVEmoZJ2z_10async_nats9jetstream7contextNtBa_7Context12send_publishNtNtCs1AhsD0INetT_5alloc6string6StringE0s_0Cs98b7hshCa6M_8kv_tests
FN:481,_RNCNCINvMs4_NtNtCs6qhVEmoZJ2z_10async_nats9jetstream7contextNtBa_7Context12send_publishReE00Cs98b7hshCa6M_8kv_tests
FN:509,_RNCNCINvMs4_NtNtCs6qhVEmoZJ2z_10async_nats9jetstream7contextNtBa_7Context12send_publishReE0s0_0Cs98b7hshCa6M_8kv_tests
FN:512,_RNCNCINvMs4_NtNtCs6qhVEmoZJ2z_10async_nats9jetstream7contextNtBa_7Context12send_publishReE0s1_0Cs98b7hshCa6M_8kv_tests
FN:487,_RNCNCINvMs4_NtNtCs6qhVEmoZJ2z_10async_nats9jetstream7contextNtBa_7Context12send_publishReE0s_0Cs98b7hshCa6M_8kv_tests
FN:1008,_RNCNCINvMs4_NtNtCs6qhVEmoZJ2z_10async_nats9jetstream7contextNtBa_7Context13get_key_valueReE00Cs98b7hshCa6M_8kv_tests
FN:1522,_RNCNCINvMs4_NtNtCs6qhVEmoZJ2z_10async_nats9jetstream7contextNtBa_7Context7requestNtNtCs1AhsD0INetT_5alloc6string6StringNtNtBc_6stream17RawMessageRequestINtNtBc_8response8ResponseNtB1V_13GetRawMessageEE00Cs98b7hshCa6M_8kv_tests
FN:1536,_RNCNCINvMs4_NtNtCs6qhVEmoZJ2z_10async_nats9jetstream7contextNtBa_7Context7requestNtNtCs1AhsD0INetT_5alloc6string6StringNtNtBc_6stream17RawMessageRequestINtNtBc_8response8ResponseNtB1V_13GetRawMessageEE0s_0Cs98b7hshCa6M_8kv_tests
FN:1522,_RNCNCINvMs4_NtNtCs6qhVEmoZJ2z_10async_nats9jetstream7contextNtBa_7Context7requestNtNtCs1AhsD0INetT_5alloc6string6StringNtNtBc_6stream6ConfigINtNtBc_8response8ResponseNtB1V_4InfoEE00Cs98b7hshCa6M_8kv_tests
FN:1536,_RNCNCINvMs4_NtNtCs6qhVEmoZJ2z_10async_nats9jetstream7contextNtBa_7Context7requestNtNtCs1AhsD0INetT_5alloc6string6StringNtNtBc_6stream6ConfigINtNtBc_8response8ResponseNtB1V_4InfoEE0s_0Cs98b7hshCa6M_8kv_tests
FN:1522,_RNCNCINvMs4_NtNtCs6qhVEmoZJ2z_10async_nats9jetstream7contextNtBa_7Context7requestNtNtCs1AhsD0INetT_5alloc6string6StringNtNtCs3hMvov8GLbn_10serde_json5value5ValueINtNtBc_8response8ResponseNtNtBc_6stream4InfoEE00Cs98b7hshCa6M_8kv_tests
FN:1536,_RNCNCINvMs4_NtNtCs6qhVEmoZJ2z_10async_nats9jetstream7contextNtBa_7Context7requestNtNtCs1AhsD0INetT_5alloc6string6StringNtNtCs3hMvov8GLbn_10serde_json5value5ValueINtNtBc_8response8ResponseNtNtBc_6stream4InfoEE0s_0Cs98b7hshCa6M_8kv_tests
FN:1522,_RNCNCINvMs4_NtNtCs6qhVEmoZJ2z_10async_nats9jetstream7contextNtBa_7Context7requestNtNtCs1AhsD0INetT_5alloc6string6StringuINtNtBc_8response8ResponseNtNtBc_6stream4InfoEE00Cs98b7hshCa6M_8kv_tests
FN:1536,_RNCNCINvMs4_NtNtCs6qhVEmoZJ2z_10async_nats9jetstream7contextNtBa_7Context7requestNtNtCs1AhsD0INetT_5alloc6string6StringuINtNtBc_8response8ResponseNtNtBc_6stream4InfoEE0s_0Cs98b7hshCa6M_8kv_tests
FN:1522,_RNCNCINvMs4_NtNtCs6qhVEmoZJ2z_10async_nats9jetstream7contextNtBa_7Context7requestReAhj0_INtNtBc_8response8ResponseNtNtBc_7account7AccountEE00Cs98b7hshCa6M_8kv_tests
FN:1536,_RNCNCINvMs4_NtNtCs6qhVEmoZJ2z_10async_nats9jetstream7contextNtBa_7Context7requestReAhj0_INtNtBc_8response8ResponseNtNtBc_7account7AccountEE0s_0Cs98b7hshCa6M_8kv_tests
FN:1066,_RNCNCNvMs4_NtNtCs6qhVEmoZJ2z_10async_nats9jetstream7contextNtB9_7Context16create_key_value00Cs98b7hshCa6M_8kv_tests
FN:1073,_RNCNCNvMs4_NtNtCs6qhVEmoZJ2z_10async_nats9jetstream7contextNtB9_7Context16create_key_value0s_0Cs98b7hshCa6M_8kv_tests
FN:1116,_RNCNCNvMs4_NtNtCs6qhVEmoZJ2z_10async_nats9jetstream7contextNtB9_7Context16update_key_value00Cs98b7hshCa6M_8kv_tests
FN:1122,_RNCNCNvMs4_NtNtCs6qhVEmoZJ2z_10async_nats9jetstream7contextNtB9_7Context16update_key_value0s_0Cs98b7hshCa6M_8kv_tests
FN:878,_RNCNCNvMs4_NtNtCs6qhVEmoZJ2z_10async_nats9jetstream7contextNtB9_7Context23create_or_update_stream00Cs98b7hshCa6M_8kv_tests
FN:1170,_RNCNCNvMs4_NtNtCs6qhVEmoZJ2z_10async_nats9jetstream7contextNtB9_7Context26create_or_update_key_value00Cs98b7hshCa6M_8kv_tests
FN:1176,_RNCNCNvMs4_NtNtCs6qhVEmoZJ2z_10async_nats9jetstream7contextNtB9_7Context26create_or_update_key_value0s_0Cs98b7hshCa6M_8kv_tests
FN:524,_RNCNvMs4_NtNtCs6qhVEmoZJ2z_10async_nats9jetstream7contextNtB7_7Context13query_account0Cs98b7hshCa6M_8kv_tests
FN:1060,_RNCNvMs4_NtNtCs6qhVEmoZJ2z_10async_nats9jetstream7contextNtB7_7Context16create_key_value0Cs98b7hshCa6M_8kv_tests
FN:1106,_RNCNvMs4_NtNtCs6qhVEmoZJ2z_10async_nats9jetstream7contextNtB7_7Context16update_key_value0Cs98b7hshCa6M_8kv_tests
FN:870,_RNCNvMs4_NtNtCs6qhVEmoZJ2z_10async_nats9jetstream7contextNtB7_7Context23create_or_update_stream0Cs98b7hshCa6M_8kv_tests
FN:1160,_RNCNvMs4_NtNtCs6qhVEmoZJ2z_10async_nats9jetstream7contextNtB7_7Context26create_or_update_key_value0Cs98b7hshCa6M_8kv_tests
FN:671,_RINvMs4_NtNtCs6qhVEmoZJ2z_10async_nats9jetstream7contextNtB6_7Context10get_streamNtNtCs1AhsD0INetT_5alloc6string6StringECsesyn6ELQ2kp_12object_store
FN:671,_RINvMs4_NtNtCs6qhVEmoZJ2z_10async_nats9jetstream7contextNtB6_7Context10get_streamReECsesyn6ELQ2kp_12object_store
FN:470,_RINvMs4_NtNtCs6qhVEmoZJ2z_10async_nats9jetstream7contextNtB6_7Context12send_publishNtNtCs1AhsD0INetT_5alloc6string6StringECsesyn6ELQ2kp_12object_store
FN:557,_RINvMs4_NtNtCs6qhVEmoZJ2z_10async_nats9jetstream7contextNtB6_7Context13create_streamNtNtB8_6stream6ConfigECsesyn6ELQ2kp_12object_store
FN:822,_RINvMs4_NtNtCs6qhVEmoZJ2z_10async_nats9jetstream7contextNtB6_7Context13update_streamRNtNtB8_6stream6ConfigECsesyn6ELQ2kp_12object_store
FN:1619,_RINvMs4_NtNtCs6qhVEmoZJ2z_10async_nats9jetstream7contextNtB6_7Context16get_object_storeRNtNtCs1AhsD0INetT_5alloc6string6StringECsesyn6ELQ2kp_12object_store
FN:435,_RINvMs4_NtNtCs6qhVEmoZJ2z_10async_nats9jetstream7contextNtB6_7Context20publish_with_headersNtNtCs1AhsD0INetT_5alloc6string6StringECsesyn6ELQ2kp_12object_store
FN:405,_RINvMs4_NtNtCs6qhVEmoZJ2z_10async_nats9jetstream7contextNtB6_7Context7publishNtNtBa_7subject7SubjectECsesyn6ELQ2kp_12object_store
FN:1513,_RINvMs4_NtNtCs6qhVEmoZJ2z_10async_nats9jetstream7contextNtB6_7Context7requestNtNtCs1AhsD0INetT_5alloc6string6StringNtNtB8_6stream12PurgeRequestINtNtB8_8response8ResponseNtB1R_13PurgeResponseEECsesyn6ELQ2kp_12object_store
FN:1513,_RINvMs4_NtNtCs6qhVEmoZJ2z_10async_nats9jetstream7contextNtB6_7Context7requestNtNtCs1AhsD0INetT_5alloc6string6StringNtNtB8_6stream17RawMessageRequestINtNtB8_8response8ResponseNtB1R_13GetRawMessageEECsesyn6ELQ2kp_12object_store
FN:1513,_RINvMs4_NtNtCs6qhVEmoZJ2z_10async_nats9jetstream7contextNtB6_7Context7requestNtNtCs1AhsD0INetT_5alloc6string6StringNtNtB8_6stream6ConfigINtNtB8_8response8ResponseNtB1R_4InfoEECsesyn6ELQ2kp_12object_store
FN:1513,_RINvMs4_NtNtCs6qhVEmoZJ2z_10async_nats9jetstream7contextNtB6_7Context7requestNtNtCs1AhsD0INetT_5alloc6string6StringNtNtCs3hMvov8GLbn_10serde_json5value5ValueINtNtB8_8response8ResponseNtNtB8_6stream4InfoEECsesyn6ELQ2kp_12object_store
FN:1513,_RINvMs4_NtNtCs6qhVEmoZJ2z_10async_nats9jetstream7contextNtB6_7Context7requestNtNtCs1AhsD0INetT_5alloc6string6StringuINtNtB8_8response8ResponseNtNtB8_6stream4InfoEECsesyn6ELQ2kp_12object_store
FN:671,_RNCINvMs4_NtNtCs6qhVEmoZJ2z_10async_nats9jetstream7contextNtB8_7Context10get_streamNtNtCs1AhsD0INetT_5alloc6string6StringE0Csesyn6ELQ2kp_12object_store
FN:671,_RNCINvMs4_NtNtCs6qhVEmoZJ2z_10async_nats9jetstream7contextNtB8_7Context10get_streamReE0Csesyn6ELQ2kp_12object_store
FN:474,_RNCINvMs4_NtNtCs6qhVEmoZJ2z_10async_nats9jetstream7contextNtB8_7Context12send_publishNtNtBc_7subject7SubjectE0Csesyn6ELQ2kp_12object_store
FN:474,_RNCINvMs4_NtNtCs6qhVEmoZJ2z_10async_nats9jetstream7contextNtB8_7Context12send_publishNtNtCs1AhsD0INetT_5alloc6string6StringE0Csesyn6ELQ2kp_12object_store
FN:563,_RNCINvMs4_NtNtCs6qhVEmoZJ2z_10async_nats9jetstream7contextNtB8_7Context13create_streamNtNtBa_6stream6ConfigE0Csesyn6ELQ2kp_12object_store
FN:825,_RNCINvMs4_NtNtCs6qhVEmoZJ2z_10async_nats9jetstream7contextNtB8_7Context13update_streamRNtNtBa_6stream6ConfigE0Csesyn6ELQ2kp_12object_store
FN:1622,_RNCINvMs4_NtNtCs6qhVEmoZJ2z_10async_nats9jetstream7contextNtB8_7Context16get_object_storeRNtNtCs1AhsD0INetT_5alloc6string6StringE0Csesyn6ELQ2kp_12object_store
FN:440,_RNCINvMs4_NtNtCs6qhVEmoZJ2z_10async_nats9jetstream7contextNtB8_7Context20publish_with_headersNtNtCs1AhsD0INetT_5alloc6string6StringE0Csesyn6ELQ2kp_12object_store
FN:409,_RNCINvMs4_NtNtCs6qhVEmoZJ2z_10async_nats9jetstream7contextNtB8_7Context7publishNtNtBc_7subject7SubjectE0Csesyn6ELQ2kp_12object_store
FN:1518,_RNCINvMs4_NtNtCs6qhVEmoZJ2z_10async_nats9jetstream7contextNtB8_7Context7requestNtNtCs1AhsD0INetT_5alloc6string6StringNtNtBa_6stream12PurgeRequestINtNtBa_8response8ResponseNtB1T_13PurgeResponseEE0Csesyn6ELQ2kp_12object_store
FN:1518,_RNCINvMs4_NtNtCs6qhVEmoZJ2z_10async_nats9jetstream7contextNtB8_7Context7requestNtNtCs1AhsD0INetT_5alloc6string6StringNtNtBa_6stream17RawMessageRequestINtNtBa_8response8ResponseNtB1T_13GetRawMessageEE0Csesyn6ELQ2kp_12object_store
FN:1518,_RNCINvMs4_NtNtCs6qhVEmoZJ2z_10async_nats9jetstream7contextNtB8_7Context7requestNtNtCs1AhsD0INetT_5alloc6string6StringNtNtBa_6stream6ConfigINtNtBa_8response8ResponseNtB1T_4InfoEE0Csesyn6ELQ2kp_12object_store
FN:1518,_RNCINvMs4_NtNtCs6qhVEmoZJ2z_10async_nats9jetstream7contextNtB8_7Context7requestNtNtCs1AhsD0INetT_5alloc6string6StringNtNtCs3hMvov8GLbn_10serde_json5value5ValueINtNtBa_8response8ResponseNtNtBa_6stream4InfoEE0Csesyn6ELQ2kp_12object_store
FN:1518,_RNCINvMs4_NtNtCs6qhVEmoZJ2z_10async_nats9jetstream7contextNtB8_7Context7requestNtNtCs1AhsD0INetT_5alloc6string6StringuINtNtBa_8response8ResponseNtNtBa_6stream4InfoEE0Csesyn6ELQ2kp_12object_store
FN:685,_RNCNCINvMs4_NtNtCs6qhVEmoZJ2z_10async_nats9jetstream7contextNtBa_7Context10get_streamNtNtCs1AhsD0INetT_5alloc6string6StringE00Csesyn6ELQ2kp_12object_store
FN:685,_RNCNCINvMs4_NtNtCs6qhVEmoZJ2z_10async_nats9jetstream7contextNtBa_7Context10get_streamReE00Csesyn6ELQ2kp_12object_store
FN:481,_RNCNCINvMs4_NtNtCs6qhVEmoZJ2z_10async_nats9jetstream7contextNtBa_7Context12send_publishNtNtBe_7subject7SubjectE00Csesyn6ELQ2kp_12object_store
FN:509,_RNCNCINvMs4_NtNtCs6qhVEmoZJ2z_10async_nats9jetstream7contextNtBa_7Context12send_publishNtNtBe_7subject7SubjectE0s0_0Csesyn6ELQ2kp_12object_store
FN:512,_RNCNCINvMs4_NtNtCs6qhVEmoZJ2z_10async_nats9jetstream7contextNtBa_7Context12send_publishNtNtBe_7subject7SubjectE0s1_0Csesyn6ELQ2kp_12object_store
FN:487,_RNCNCINvMs4_NtNtCs6qhVEmoZJ2z_10async_nats9jetstream7contextNtBa_7Context12send_publishNtNtBe_7subject7SubjectE0s_0Csesyn6ELQ2kp_12object_store
FN:481,_RNCNCINvMs4_NtNtCs6qhVEmoZJ2z_10async_nats9jetstream7contextNtBa_7Context12send_publishNtNtCs1AhsD0INetT_5alloc6string6StringE00Csesyn6ELQ2kp_12object_store
FN:509,_RNCNCINvMs4_NtNtCs6qhVEmoZJ2z_10async_nats9jetstream7contextNtBa_7Context12send_publishNtNtCs1AhsD0INetT_5alloc6string6StringE0s0_0Csesyn6ELQ2kp_12object_store
FN:512,_RNCNCINvMs4_NtNtCs6qhVEmoZJ2z_10async_nats9jetstream7contextNtBa_7Context12send_publishNtNtCs1AhsD0INetT_5alloc6string6StringE0s1_0Csesyn6ELQ2kp_12object_store
FN:487,_RNCNCINvMs4_NtNtCs6qhVEmoZJ2z_10async_nats9jetstream7contextNtBa_7Context12send_publishNtNtCs1AhsD0INetT_5alloc6string6StringE0s_0Csesyn6ELQ2kp_12object_store
FN:1633,_RNCNCINvMs4_NtNtCs6qhVEmoZJ2z_10async_nats9jetstream7contextNtBa_7Context16get_object_storeRNtNtCs1AhsD0INetT_5alloc6string6StringE00Csesyn6ELQ2kp_12object_store
FN:1522,_RNCNCINvMs4_NtNtCs6qhVEmoZJ2z_10async_nats9jetstream7contextNtBa_7Context7requestNtNtCs1AhsD0INetT_5alloc6string6StringNtNtBc_6stream12PurgeRequestINtNtBc_8response8ResponseNtB1V_13PurgeResponseEE00Csesyn6ELQ2kp_12object_store
FN:1536,_RNCNCINvMs4_NtNtCs6qhVEmoZJ2z_10async_nats9jetstream7contextNtBa_7Context7requestNtNtCs1AhsD0INetT_5alloc6string6StringNtNtBc_6stream12PurgeRequestINtNtBc_8response8ResponseNtB1V_13PurgeResponseEE0s_0Csesyn6ELQ2kp_12object_store
FN:1522,_RNCNCINvMs4_NtNtCs6qhVEmoZJ2z_10async_nats9jetstream7contextNtBa_7Context7requestNtNtCs1AhsD0INetT_5alloc6string6StringNtNtBc_6stream17RawMessageRequestINtNtBc_8response8ResponseNtB1V_13GetRawMessageEE00Csesyn6ELQ2kp_12object_store
FN:1536,_RNCNCINvMs4_NtNtCs6qhVEmoZJ2z_10async_nats9jetstream7contextNtBa_7Context7requestNtNtCs1AhsD0INetT_5alloc6string6StringNtNtBc_6stream17RawMessageRequestINtNtBc_8response8ResponseNtB1V_13GetRawMessageEE0s_0Csesyn6ELQ2kp_12object_store
FN:1522,_RNCNCINvMs4_NtNtCs6qhVEmoZJ2z_10async_nats9jetstream7contextNtBa_7Context7requestNtNtCs1AhsD0INetT_5alloc6string6StringNtNtBc_6stream6ConfigINtNtBc_8response8ResponseNtB1V_4InfoEE00Csesyn6ELQ2kp_12object_store
FN:1536,_RNCNCINvMs4_NtNtCs6qhVEmoZJ2z_10async_nats9jetstream7contextNtBa_7Context7requestNtNtCs1AhsD0INetT_5alloc6string6StringNtNtBc_6stream6ConfigINtNtBc_8response8ResponseNtB1V_4InfoEE0s_0Csesyn6ELQ2kp_12object_store
FN:1522,_RNCNCINvMs4_NtNtCs6qhVEmoZJ2z_10async_nats9jetstream7contextNtBa_7Context7requestNtNtCs1AhsD0INetT_5alloc6string6StringNtNtCs3hMvov8GLbn_10serde_json5value5ValueINtNtBc_8response8ResponseNtNtBc_6stream4InfoEE00Csesyn6ELQ2kp_12object_store
FN:1536,_RNCNCINvMs4_NtNtCs6qhVEmoZJ2z_10async_nats9jetstream7contextNtBa_7Context7requestNtNtCs1AhsD0INetT_5alloc6string6StringNtNtCs3hMvov8GLbn_10serde_json5value5ValueINtNtBc_8response8ResponseNtNtBc_6stream4InfoEE0s_0Csesyn6ELQ2kp_12object_store
FN:1522,_RNCNCINvMs4_NtNtCs6qhVEmoZJ2z_10async_nats9jetstream7contextNtBa_7Context7requestNtNtCs1AhsD0INetT_5alloc6string6StringuINtNtBc_8response8ResponseNtNtBc_6stream4InfoEE00Csesyn6ELQ2kp_12object_store
FN:1536,_RNCNCINvMs4_NtNtCs6qhVEmoZJ2z_10async_nats9jetstream7contextNtBa_7Context7requestNtNtCs1AhsD0INetT_5alloc6string6StringuINtNtBc_8response8ResponseNtNtBc_6stream4InfoEE0s_0Csesyn6ELQ2kp_12object_store
FN:1596,_RNCNCNvMs4_NtNtCs6qhVEmoZJ2z_10async_nats9jetstream7contextNtB9_7Context19create_object_store00Csesyn6ELQ2kp_12object_store
FN:1562,_RNCNvMs4_NtNtCs6qhVEmoZJ2z_10async_nats9jetstream7contextNtB7_7Context19create_object_store0Csesyn6ELQ2kp_12object_store
FNDA:0,_RINvMs2_NtNtCs1hbFQVFAImq_10async_nats9jetstream7contextINtB6_14ContextBuilderNtB6_3YesE10api_prefixpEBa_
FNDA:0,_RINvMs2_NtNtCs1hbFQVFAImq_10async_nats9jetstream7contextINtB6_14ContextBuilderNtB6_3YesE6domainpEBa_
FNDA:0,_RINvMs4_NtNtCs1hbFQVFAImq_10async_nats9jetstream7contextNtB6_7Context10get_streampEBa_
FNDA:0,_RINvMs4_NtNtCs1hbFQVFAImq_10async_nats9jetstream7contextNtB6_7Context11with_domainpEBa_
FNDA:0,_RINvMs4_NtNtCs1hbFQVFAImq_10async_nats9jetstream7contextNtB6_7Context11with_prefixpEBa_
FNDA:0,_RINvMs4_NtNtCs1hbFQVFAImq_10async_nats9jetstream7contextNtB6_7Context12send_publishpEBa_
FNDA:0,_RINvMs4_NtNtCs1hbFQVFAImq_10async_nats9jetstream7contextNtB6_7Context13create_streampEBa_
FNDA:0,_RINvMs4_NtNtCs1hbFQVFAImq_10async_nats9jetstream7contextNtB6_7Context13delete_streampEBa_
FNDA:0,_RINvMs4_NtNtCs1hbFQVFAImq_10async_nats9jetstream7contextNtB6_7Context13get_key_valuepEBa_
FNDA:0,_RINvMs4_NtNtCs1hbFQVFAImq_10async_nats9jetstream7contextNtB6_7Context13update_streampEBa_
FNDA:0,_RINvMs4_NtNtCs1hbFQVFAImq_10async_nats9jetstream7contextNtB6_7Context16delete_key_valuepEBa_
FNDA:0,_RINvMs4_NtNtCs1hbFQVFAImq_10async_nats9jetstream7contextNtB6_7Context16get_object_storepEBa_
FNDA:0,_RINvMs4_NtNtCs1hbFQVFAImq_10async_nats9jetstream7contextNtB6_7Context17stream_by_subjectpEBa_
FNDA:0,_RINvMs4_NtNtCs1hbFQVFAImq_10async_nats9jetstream7contextNtB6_7Context18get_stream_no_infopEBa_
FNDA:0,_RINvMs4_NtNtCs1hbFQVFAImq_10async_nats9jetstream7contextNtB6_7Context19delete_object_storepEBa_
FNDA:0,_RINvMs4_NtNtCs1hbFQVFAImq_10async_nats9jetstream7contextNtB6_7Context20get_or_create_streampEBa_
FNDA:0,_RINvMs4_NtNtCs1hbFQVFAImq_10async_nats9jetstream7contextNtB6_7Context20publish_with_headerspEBa_
FNDA:0,_RINvMs4_NtNtCs1hbFQVFAImq_10async_nats9jetstream7contextNtB6_7Context24get_consumer_from_streampppEBa_
FNDA:0,_RINvMs4_NtNtCs1hbFQVFAImq_10async_nats9jetstream7contextNtB6_7Context25create_consumer_on_streamppEBa_
FNDA:0,_RINvMs4_NtNtCs1hbFQVFAImq_10async_nats9jetstream7contextNtB6_7Context25update_consumer_on_streamppEBa_
FNDA:0,_RINvMs4_NtNtCs1hbFQVFAImq_10async_nats9jetstream7contextNtB6_7Context27delete_consumer_from_streamppEBa_
FNDA:0,_RINvMs4_NtNtCs1hbFQVFAImq_10async_nats9jetstream7contextNtB6_7Context32create_consumer_on_stream_actionppEBa_
FNDA:0,_RINvMs4_NtNtCs1hbFQVFAImq_10async_nats9jetstream7contextNtB6_7Context32create_consumer_strict_on_streamppEBa_
FNDA:0,_RINvMs4_NtNtCs1hbFQVFAImq_10async_nats9jetstream7contextNtB6_7Context7publishpEBa_
FNDA:0,_RINvMs4_NtNtCs1hbFQVFAImq_10async_nats9jetstream7contextNtB6_7Context7requestpppEBa_
FNDA:0,_RINvXs5_NtNtCs1hbFQVFAImq_10async_nats9jetstream7contextNtB6_7ContextNtNtNtBa_6client6traits9Requester12send_requestpEBa_
FNDA:0,_RINvXs6_NtNtCs1hbFQVFAImq_10async_nats9jetstream7contextNtB6_7ContextNtNtNtBa_6client6traits9Publisher18publish_with_replyppEBa_
FNDA:0,_RINvXs8_NtNtCs1hbFQVFAImq_10async_nats9jetstream7contextNtB6_7ContextNtNtB6_6traits9Requester7requestpppEBa_
FNDA:0,_RINvXsa_NtNtCs1hbFQVFAImq_10async_nats9jetstream7contextNtB6_7ContextNtNtB6_6traits9Publisher7publishpEBa_
FNDA:0,_RNCINvMs4_NtNtCs1hbFQVFAImq_10async_nats9jetstream7contextNtB8_7Context10get_streampE0Bc_
FNDA:0,_RNCINvMs4_NtNtCs1hbFQVFAImq_10async_nats9jetstream7contextNtB8_7Context12send_publishpE0Bc_
FNDA:0,_RNCINvMs4_NtNtCs1hbFQVFAImq_10async_nats9jetstream7contextNtB8_7Context13create_streampE0Bc_
FNDA:0,_RNCINvMs4_NtNtCs1hbFQVFAImq_10async_nats9jetstream7contextNtB8_7Context13delete_streampE0Bc_
FNDA:0,_RNCINvMs4_NtNtCs1hbFQVFAImq_10async_nats9jetstream7contextNtB8_7Context13get_key_valuepE0Bc_
FNDA:0,_RNCINvMs4_NtNtCs1hbFQVFAImq_10async_nats9jetstream7contextNtB8_7Context13update_streampE0Bc_
FNDA:0,_RNCINvMs4_NtNtCs1hbFQVFAImq_10async_nats9jetstream7contextNtB8_7Context16delete_key_valuepE0Bc_
FNDA:0,_RNCINvMs4_NtNtCs1hbFQVFAImq_10async_nats9jetstream7contextNtB8_7Context16get_object_storepE0Bc_
FNDA:0,_RNCINvMs4_NtNtCs1hbFQVFAImq_10async_nats9jetstream7contextNtB8_7Context17stream_by_subjectpE0Bc_
FNDA:0,_RNCINvMs4_NtNtCs1hbFQVFAImq_10async_nats9jetstream7contextNtB8_7Context18get_stream_no_infopE0Bc_
FNDA:0,_RNCINvMs4_NtNtCs1hbFQVFAImq_10async_nats9jetstream7contextNtB8_7Context19delete_object_storepE0Bc_
FNDA:0,_RNCINvMs4_NtNtCs1hbFQVFAImq_10async_nats9jetstream7contextNtB8_7Context20get_or_create_streampE0Bc_
FNDA:0,_RNCINvMs4_NtNtCs1hbFQVFAImq_10async_nats9jetstream7contextNtB8_7Context20publish_with_headerspE0Bc_
FNDA:0,_RNCINvMs4_NtNtCs1hbFQVFAImq_10async_nats9jetstream7contextNtB8_7Context24get_consumer_from_streampppE0Bc_
FNDA:0,_RNCINvMs4_NtNtCs1hbFQVFAImq_10async_nats9jetstream7contextNtB8_7Context25create_consumer_on_streamppE0Bc_
FNDA:0,_RNCINvMs4_NtNtCs1hbFQVFAImq_10async_nats9jetstream7contextNtB8_7Context25update_consumer_on_streamppE0Bc_
FNDA:0,_RNCINvMs4_NtNtCs1hbFQVFAImq_10async_nats9jetstream7contextNtB8_7Context27delete_consumer_from_streamppE0Bc_
FNDA:0,_RNCINvMs4_NtNtCs1hbFQVFAImq_10async_nats9jetstream7contextNtB8_7Context32create_consumer_on_stream_actionppE0Bc_
FNDA:0,_RNCINvMs4_NtNtCs1hbFQVFAImq_10async_nats9jetstream7contextNtB8_7Context32create_consumer_strict_on_streamppE0Bc_
FNDA:0,_RNCINvMs4_NtNtCs1hbFQVFAImq_10async_nats9jetstream7contextNtB8_7Context7publishpE0Bc_
FNDA:0,_RNCINvMs4_NtNtCs1hbFQVFAImq_10async_nats9jetstream7contextNtB8_7Context7requestpppE0Bc_
FNDA:0,_RNCNCINvMs4_NtNtCs1hbFQVFAImq_10async_nats9jetstream7contextNtBa_7Context10get_streampE00Be_
FNDA:0,_RNCNCINvMs4_NtNtCs1hbFQVFAImq_10async_nats9jetstream7contextNtBa_7Context12send_publishpE00Be_
FNDA:0,_RNCNCINvMs4_NtNtCs1hbFQVFAImq_10async_nats9jetstream7contextNtBa_7Context12send_publishpE0s0_0Be_
FNDA:0,_RNCNCINvMs4_NtNtCs1hbFQVFAImq_10async_nats9jetstream7contextNtBa_7Context12send_publishpE0s1_0Be_
FNDA:0,_RNCNCINvMs4_NtNtCs1hbFQVFAImq_10async_nats9jetstream7contextNtBa_7Context12send_publishpE0s_0Be_
FNDA:0,_RNCNCINvMs4_NtNtCs1hbFQVFAImq_10async_nats9jetstream7contextNtBa_7Context13delete_streampE00Be_
FNDA:0,_RNCNCINvMs4_NtNtCs1hbFQVFAImq_10async_nats9jetstream7contextNtBa_7Context13get_key_valuepE00Be_
FNDA:0,_RNCNCINvMs4_NtNtCs1hbFQVFAImq_10async_nats9jetstream7contextNtBa_7Context16delete_key_valuepE00Be_
FNDA:0,_RNCNCINvMs4_NtNtCs1hbFQVFAImq_10async_nats9jetstream7contextNtBa_7Context16get_object_storepE00Be_
FNDA:0,_RNCNCINvMs4_NtNtCs1hbFQVFAImq_10async_nats9jetstream7contextNtBa_7Context19delete_object_storepE00Be_
FNDA:0,_RNCNCINvMs4_NtNtCs1hbFQVFAImq_10async_nats9jetstream7contextNtBa_7Context24get_consumer_from_streampppE00Be_
FNDA:0,_RNCNCINvMs4_NtNtCs1hbFQVFAImq_10async_nats9jetstream7contextNtBa_7Context25update_consumer_on_streamppE00Be_
FNDA:0,_RNCNCINvMs4_NtNtCs1hbFQVFAImq_10async_nats9jetstream7contextNtBa_7Context32create_consumer_on_stream_actionppE00Be_
FNDA:0,_RNCNCINvMs4_NtNtCs1hbFQVFAImq_10async_nats9jetstream7contextNtBa_7Context32create_consumer_on_stream_actionppE0s0_0Be_
FNDA:0,_RNCNCINvMs4_NtNtCs1hbFQVFAImq_10async_nats9jetstream7contextNtBa_7Context32create_consumer_on_stream_actionppE0s_0Be_
FNDA:0,_RNCNCINvMs4_NtNtCs1hbFQVFAImq_10async_nats9jetstream7contextNtBa_7Context32create_consumer_strict_on_streamppE00Be_
FNDA:0,_RNCNCINvMs4_NtNtCs1hbFQVFAImq_10async_nats9jetstream7contextNtBa_7Context7requestpppE00Be_
FNDA:0,_RNCNCINvMs4_NtNtCs1hbFQVFAImq_10async_nats9jetstream7contextNtBa_7Context7requestpppE0s_0Be_
FNDA:0,_RNCNCNCNvMsd_NtNtCs1hbFQVFAImq_10async_nats9jetstream7contextNtBb_16PublishAckFuture17next_with_timeout0s0_00Bf_
FNDA:0,_RNCNCNCNvNtNtCs1hbFQVFAImq_10async_nats9jetstream7context11spawn_acker000Bb_
FNDA:0,_RNCNCNvMs4_NtNtCs1hbFQVFAImq_10async_nats9jetstream7contextNtB9_7Context16create_key_value00Bd_
FNDA:0,_RNCNCNvMs4_NtNtCs1hbFQVFAImq_10async_nats9jetstream7contextNtB9_7Context16create_key_value0s_0Bd_
FNDA:0,_RNCNCNvMs4_NtNtCs1hbFQVFAImq_10async_nats9jetstream7contextNtB9_7Context16update_key_value00Bd_
FNDA:0,_RNCNCNvMs4_NtNtCs1hbFQVFAImq_10async_nats9jetstream7contextNtB9_7Context16update_key_value0s_0Bd_
FNDA:0,_RNCNCNvMs4_NtNtCs1hbFQVFAImq_10async_nats9jetstream7contextNtB9_7Context19create_object_store00Bd_
FNDA:0,_RNCNCNvMs4_NtNtCs1hbFQVFAImq_10async_nats9jetstream7contextNtB9_7Context23create_or_update_stream00Bd_
FNDA:0,_RNCNCNvMs4_NtNtCs1hbFQVFAImq_10async_nats9jetstream7contextNtB9_7Context26create_or_update_key_value00Bd_
FNDA:0,_RNCNCNvMs4_NtNtCs1hbFQVFAImq_10async_nats9jetstream7contextNtB9_7Context26create_or_update_key_value0s_0Bd_
FNDA:0,_RNCNCNvMsd_NtNtCs1hbFQVFAImq_10async_nats9jetstream7contextNtB9_16PublishAckFuture17next_with_timeout00Bd_
FNDA:0,_RNCNCNvMsd_NtNtCs1hbFQVFAImq_10async_nats9jetstream7contextNtB9_16PublishAckFuture17next_with_timeout0s0_0Bd_
FNDA:0,_RNCNCNvMsd_NtNtCs1hbFQVFAImq_10async_nats9jetstream7contextNtB9_16PublishAckFuture17next_with_timeout0s_0Bd_
FNDA:0,_RNCNCNvNtNtCs1hbFQVFAImq_10async_nats9jetstream7context11spawn_acker00B9_
FNDA:0,_RNCNvMs4_NtNtCs1hbFQVFAImq_10async_nats9jetstream7contextNtB7_7Context13query_account0Bb_
FNDA:0,_RNCNvMs4_NtNtCs1hbFQVFAImq_10async_nats9jetstream7contextNtB7_7Context13wait_for_acks0Bb_
FNDA:0,_RNCNvMs4_NtNtCs1hbFQVFAImq_10async_nats9jetstream7contextNtB7_7Context16create_key_value0Bb_
FNDA:0,_RNCNvMs4_NtNtCs1hbFQVFAImq_10async_nats9jetstream7contextNtB7_7Context16update_key_value0Bb_
FNDA:0,_RNCNvMs4_NtNtCs1hbFQVFAImq_10async_nats9jetstream7contextNtB7_7Context19create_object_store0Bb_
FNDA:0,_RNCNvMs4_NtNtCs1hbFQVFAImq_10async_nats9jetstream7contextNtB7_7Context23create_or_update_stream0Bb_
FNDA:0,_RNCNvMs4_NtNtCs1hbFQVFAImq_10async_nats9jetstream7contextNtB7_7Context26create_or_update_key_value0Bb_
FNDA:0,_RNCNvMsd_NtNtCs1hbFQVFAImq_10async_nats9jetstream7contextNtB7_16PublishAckFuture17next_with_timeout0Bb_
FNDA:0,_RNCNvNtNtCs1hbFQVFAImq_10async_nats9jetstream7context11spawn_acker0B7_
FNDA:0,_RNCNvXsf_NtNtCs1hbFQVFAImq_10async_nats9jetstream7contextNtB7_11StreamNamesNtNtCscxja3U2MsTJ_12futures_core6stream6Stream9poll_next0Bb_
FNDA:0,_RNCNvXsf_NtNtCs1hbFQVFAImq_10async_nats9jetstream7contextNtB7_11StreamNamesNtNtCscxja3U2MsTJ_12futures_core6stream6Stream9poll_nexts_0Bb_
FNDA:0,_RNCNvXsg_NtNtCs1hbFQVFAImq_10async_nats9jetstream7contextNtB7_7StreamsNtNtCscxja3U2MsTJ_12futures_core6stream6Stream9poll_next0Bb_
FNDA:0,_RNCNvXsg_NtNtCs1hbFQVFAImq_10async_nats9jetstream7contextNtB7_7StreamsNtNtCscxja3U2MsTJ_12futures_core6stream6Stream9poll_nexts_0Bb_
FNDA:0,_RNvMs1_NtNtCs1hbFQVFAImq_10async_nats9jetstream7contextINtB5_14ContextBuilderNtB5_3YesE3new
FNDA:0,_RNvMs3_NtNtCs1hbFQVFAImq_10async_nats9jetstream7contextINtB5_14ContextBuilderpE11ack_timeoutB9_
FNDA:0,_RNvMs3_NtNtCs1hbFQVFAImq_10async_nats9jetstream7contextINtB5_14ContextBuilderpE16max_ack_inflightB9_
FNDA:0,_RNvMs3_NtNtCs1hbFQVFAImq_10async_nats9jetstream7contextINtB5_14ContextBuilderpE17concurrency_limitB9_
FNDA:0,_RNvMs3_NtNtCs1hbFQVFAImq_10async_nats9jetstream7contextINtB5_14ContextBuilderpE24backpressure_on_inflightB9_
FNDA:0,_RNvMs3_NtNtCs1hbFQVFAImq_10async_nats9jetstream7contextINtB5_14ContextBuilderpE5buildB9_
FNDA:0,_RNvMs3_NtNtCs1hbFQVFAImq_10async_nats9jetstream7contextINtB5_14ContextBuilderpE7timeoutB9_
FNDA:0,_RNvMs4_NtNtCs1hbFQVFAImq_10async_nats9jetstream7contextNtB5_7Context11set_timeout
FNDA:0,_RNvMs4_NtNtCs1hbFQVFAImq_10async_nats9jetstream7contextNtB5_7Context12stream_names
FNDA:0,_RNvMs4_NtNtCs1hbFQVFAImq_10async_nats9jetstream7contextNtB5_7Context13query_account
FNDA:0,_RNvMs4_NtNtCs1hbFQVFAImq_10async_nats9jetstream7contextNtB5_7Context13wait_for_acks
FNDA:0,_RNvMs4_NtNtCs1hbFQVFAImq_10async_nats9jetstream7contextNtB5_7Context16create_key_value
FNDA:0,_RNvMs4_NtNtCs1hbFQVFAImq_10async_nats9jetstream7contextNtB5_7Context16update_key_value
FNDA:0,_RNvMs4_NtNtCs1hbFQVFAImq_10async_nats9jetstream7contextNtB5_7Context19create_object_store
FNDA:0,_RNvMs4_NtNtCs1hbFQVFAImq_10async_nats9jetstream7contextNtB5_7Context23create_or_update_stream
FNDA:0,_RNvMs4_NtNtCs1hbFQVFAImq_10async_nats9jetstream7contextNtB5_7Context26create_or_update_key_value
FNDA:0,_RNvMs4_NtNtCs1hbFQVFAImq_10async_nats9jetstream7contextNtB5_7Context3new
FNDA:0,_RNvMs4_NtNtCs1hbFQVFAImq_10async_nats9jetstream7contextNtB5_7Context6client
FNDA:0,_RNvMs4_NtNtCs1hbFQVFAImq_10async_nats9jetstream7contextNtB5_7Context7streams
FNDA:0,_RNvMsd_NtNtCs1hbFQVFAImq_10async_nats9jetstream7contextNtB5_16PublishAckFuture17next_with_timeout
FNDA:0,_RNvNtNtCs1hbFQVFAImq_10async_nats9jetstream7context11spawn_acker
FNDA:0,_RNvNtNtCs1hbFQVFAImq_10async_nats9jetstream7context19kv_to_stream_config
FNDA:0,_RNvNtNtCs1hbFQVFAImq_10async_nats9jetstream7context9map_to_kv
FNDA:0,_RNvXs0_NtNtCs1hbFQVFAImq_10async_nats9jetstream7contextINtB5_14ContextBuilderNtB5_3YesENtNtCs2CqrNpCrSUr_4core7default7Default7default
FNDA:0,_RNvXs6_NtNtCs1hbFQVFAImq_10async_nats9jetstream7contextNtB5_7ContextNtNtNtB9_6client6traits9Publisher15publish_message
FNDA:0,_RNvXs7_NtNtCs1hbFQVFAImq_10async_nats9jetstream7contextNtB5_7ContextNtNtB5_6traits14ClientProvider6client
FNDA:0,_RNvXs9_NtNtCs1hbFQVFAImq_10async_nats9jetstream7contextNtB5_7ContextNtNtB5_6traits15TimeoutProvider7timeout
FNDA:0,_RNvXsa_NtNtCs1hbFQVFAImq_10async_nats9jetstream7contextNtB5_7ContextNtNtB5_6traits9Publisher15publish_message
FNDA:0,_RNvXsb_NtNtCs1hbFQVFAImq_10async_nats9jetstream7contextNtB5_16PublishErrorKindNtNtCs2CqrNpCrSUr_4core3fmt7Display3fmt
FNDA:0,_RNvXsc_NtNtCs1hbFQVFAImq_10async_nats9jetstream7contextNtB5_16PublishAckFutureNtNtNtCs2CqrNpCrSUr_4core3ops4drop4Drop4drop
FNDA:0,_RNvXse_NtNtCs1hbFQVFAImq_10async_nats9jetstream7contextNtB5_16PublishAckFutureNtNtNtCs2CqrNpCrSUr_4core6future11into_future10IntoFuture11into_future
FNDA:0,_RNvXsf_NtNtCs1hbFQVFAImq_10async_nats9jetstream7contextNtB5_11StreamNamesNtNtCscxja3U2MsTJ_12futures_core6stream6Stream9poll_next
FNDA:0,_RNvXsg_NtNtCs1hbFQVFAImq_10async_nats9jetstream7contextNtB5_7StreamsNtNtCscxja3U2MsTJ_12futures_core6stream6Stream9poll_next
FNDA:0,_RNvXsh_NtNtCs1hbFQVFAImq_10async_nats9jetstream7contextNtB5_16RequestErrorKindNtNtCs2CqrNpCrSUr_4core3fmt7Display3fmt
FNDA:0,_RNvXsi_NtNtCs1hbFQVFAImq_10async_nats9jetstream7contextINtNtB9_5error5ErrorNtB5_16RequestErrorKindEINtNtCs2CqrNpCrSUr_4core7convert4FromIBS_NtNtB9_6client16RequestErrorKindEE4from
FNDA:0,_RNvXsj_NtNtCs1hbFQVFAImq_10async_nats9jetstream7contextINtNtB9_5error5ErrorNtB5_16RequestErrorKindEINtNtCs2CqrNpCrSUr_4core7convert4FromNtNtB7_6errors5ErrorE4from
FNDA:0,_RNvXsk_NtNtCs1hbFQVFAImq_10async_nats9jetstream7contextNtB5_21ConsumerInfoErrorKindNtNtCs2CqrNpCrSUr_4core3fmt7Display3fmt
FNDA:0,_RNvXsl_NtNtCs1hbFQVFAImq_10async_nats9jetstream7contextINtNtB9_5error5ErrorNtB5_21ConsumerInfoErrorKindEINtNtCs2CqrNpCrSUr_4core7convert4FromNtNtB7_6errors5ErrorE4from
FNDA:0,_RNvXsm_NtNtCs1hbFQVFAImq_10async_nats9jetstream7contextINtNtB9_5error5ErrorNtB5_21ConsumerInfoErrorKindEINtNtCs2CqrNpCrSUr_4core7convert4FromIBS_NtB5_16RequestErrorKindEE4from
FNDA:0,_RNvXsn_NtNtCs1hbFQVFAImq_10async_nats9jetstream7contextNtB5_21CreateStreamErrorKindNtNtCs2CqrNpCrSUr_4core3fmt7Display3fmt
FNDA:0,_RNvXso_NtNtCs1hbFQVFAImq_10async_nats9jetstream7contextINtNtB9_5error5ErrorNtB5_21CreateStreamErrorKindEINtNtCs2CqrNpCrSUr_4core7convert4FromNtNtB7_6errors5ErrorE4from
FNDA:0,_RNvXsp_NtNtCs1hbFQVFAImq_10async_nats9jetstream7contextINtNtB9_5error5ErrorNtB5_21CreateStreamErrorKindEINtNtCs2CqrNpCrSUr_4core7convert4FromIBS_NtB5_16RequestErrorKindEE4from
FNDA:0,_RNvXsq_NtNtCs1hbFQVFAImq_10async_nats9jetstream7contextNtB5_18GetStreamErrorKindNtNtCs2CqrNpCrSUr_4core3fmt7Display3fmt
FNDA:0,_RNvXsr_NtNtCs1hbFQVFAImq_10async_nats9jetstream7contextNtB5_24GetStreamByNameErrorKindNtNtCs2CqrNpCrSUr_4core3fmt7Display3fmt
FNDA:0,_RNvXss_NtNtCs1hbFQVFAImq_10async_nats9jetstream7contextNtB5_17KeyValueErrorKindNtNtCs2CqrNpCrSUr_4core3fmt7Display3fmt
FNDA:0,_RNvXst_NtNtCs1hbFQVFAImq_10async_nats9jetstream7contextNtB5_23CreateKeyValueErrorKindNtNtCs2CqrNpCrSUr_4core3fmt7Display3fmt
FNDA:0,_RNvXsu_NtNtCs1hbFQVFAImq_10async_nats9jetstream7contextNtB5_23UpdateKeyValueErrorKindNtNtCs2CqrNpCrSUr_4core3fmt7Display3fmt
FNDA:0,_RNvXsv_NtNtCs1hbFQVFAImq_10async_nats9jetstream7contextNtB5_20ObjectStoreErrorKindNtNtCs2CqrNpCrSUr_4core3fmt7Display3fmt
FNDA:0,_RNvXsw_NtNtCs1hbFQVFAImq_10async_nats9jetstream7contextNtB5_16AccountErrorKindNtNtCs2CqrNpCrSUr_4core3fmt7Display3fmt
FNDA:0,_RNvXsx_NtNtCs1hbFQVFAImq_10async_nats9jetstream7contextINtNtB9_5error5ErrorNtB5_16AccountErrorKindEINtNtCs2CqrNpCrSUr_4core7convert4FromIBS_NtB5_16RequestErrorKindEE4from
FNDA:0,_RNvXsy_NtNtCs1hbFQVFAImq_10async_nats9jetstream7contextINtNtB9_5error5ErrorNtB5_23CreateKeyValueErrorKindEINtNtCs2CqrNpCrSUr_4core7convert4FromNtB5_21KvToStreamConfigErrorE4from
FNDA:0,_RNvXsz_NtNtCs1hbFQVFAImq_10async_nats9jetstream7contextINtNtB9_5error5ErrorNtB5_23UpdateKeyValueErrorKindEINtNtCs2CqrNpCrSUr_4core7convert4FromNtB5_21KvToStreamConfigErrorE4from
FNDA:0,_RINvMs2_NtNtCs6qhVEmoZJ2z_10async_nats9jetstream7contextINtB6_14ContextBuilderNtB6_3YesE6domainpEBa_
FNDA:0,_RINvMs4_NtNtCs6qhVEmoZJ2z_10async_nats9jetstream7contextNtB6_7Context10get_streampEBa_
FNDA:0,_RINvMs4_NtNtCs6qhVEmoZJ2z_10async_nats9jetstream7contextNtB6_7Context11with_domainpEBa_
FNDA:0,_RINvMs4_NtNtCs6qhVEmoZJ2z_10async_nats9jetstream7contextNtB6_7Context13create_streampEBa_
FNDA:0,_RINvMs4_NtNtCs6qhVEmoZJ2z_10async_nats9jetstream7contextNtB6_7Context13delete_streampEBa_
FNDA:0,_RINvMs4_NtNtCs6qhVEmoZJ2z_10async_nats9jetstream7contextNtB6_7Context13get_key_valuepEBa_
FNDA:0,_RINvMs4_NtNtCs6qhVEmoZJ2z_10async_nats9jetstream7contextNtB6_7Context13update_streampEBa_
FNDA:0,_RINvMs4_NtNtCs6qhVEmoZJ2z_10async_nats9jetstream7contextNtB6_7Context16delete_key_valuepEBa_
FNDA:0,_RINvMs4_NtNtCs6qhVEmoZJ2z_10async_nats9jetstream7contextNtB6_7Context16get_object_storepEBa_
FNDA:0,_RINvMs4_NtNtCs6qhVEmoZJ2z_10async_nats9jetstream7contextNtB6_7Context17stream_by_subjectpEBa_
FNDA:0,_RINvMs4_NtNtCs6qhVEmoZJ2z_10async_nats9jetstream7contextNtB6_7Context18get_stream_no_infopEBa_
FNDA:0,_RINvMs4_NtNtCs6qhVEmoZJ2z_10async_nats9jetstream7contextNtB6_7Context19delete_object_storepEBa_
FNDA:0,_RINvMs4_NtNtCs6qhVEmoZJ2z_10async_nats9jetstream7contextNtB6_7Context20get_or_create_streampEBa_
FNDA:0,_RINvMs4_NtNtCs6qhVEmoZJ2z_10async_nats9jetstream7contextNtB6_7Context20publish_with_headerspEBa_
